
comoen son!!!.elf:     file format elf32-littlearm

Sections:
Idx Name          Size      VMA       LMA       File off  Algn
  0 .isr_vector   00000194  08000000  08000000  00001000  2**0
                  CONTENTS, ALLOC, LOAD, READONLY, DATA
  1 .text         00004620  080001a0  080001a0  000011a0  2**4
                  CONTENTS, ALLOC, LOAD, READONLY, CODE
  2 .rodata       000004e8  080047c0  080047c0  000057c0  2**3
                  CONTENTS, ALLOC, LOAD, READONLY, DATA
  3 .ARM.extab    00000000  08004ca8  08004ca8  000061fc  2**0
                  CONTENTS
  4 .ARM          00000008  08004ca8  08004ca8  00005ca8  2**2
                  CONTENTS, ALLOC, LOAD, READONLY, DATA
  5 .preinit_array 00000000  08004cb0  08004cb0  000061fc  2**0
                  CONTENTS, ALLOC, LOAD, DATA
  6 .init_array   00000004  08004cb0  08004cb0  00005cb0  2**2
                  CONTENTS, ALLOC, LOAD, DATA
  7 .fini_array   00000004  08004cb4  08004cb4  00005cb4  2**2
                  CONTENTS, ALLOC, LOAD, DATA
  8 .data         000001fc  20000000  08004cb8  00006000  2**2
                  CONTENTS, ALLOC, LOAD, DATA
  9 .ccmram       00000000  10000000  10000000  000061fc  2**0
                  CONTENTS
 10 .bss          00000408  200001fc  200001fc  000061fc  2**2
                  ALLOC
 11 ._user_heap_stack 00000604  20000604  20000604  000061fc  2**0
                  ALLOC
 12 .ARM.attributes 0000002a  00000000  00000000  000061fc  2**0
                  CONTENTS, READONLY
 13 .debug_info   00001ce5  00000000  00000000  00006226  2**0
                  CONTENTS, READONLY, DEBUGGING, OCTETS
 14 .debug_abbrev 0000092d  00000000  00000000  00007f0b  2**0
                  CONTENTS, READONLY, DEBUGGING, OCTETS
 15 .debug_aranges 000001e8  00000000  00000000  00008838  2**3
                  CONTENTS, READONLY, DEBUGGING, OCTETS
 16 .debug_rnglists 00000151  00000000  00000000  00008a20  2**0
                  CONTENTS, READONLY, DEBUGGING, OCTETS
 17 .debug_macro  00016ff5  00000000  00000000  00008b71  2**0
                  CONTENTS, READONLY, DEBUGGING, OCTETS
 18 .debug_line   000027f1  00000000  00000000  0001fb66  2**0
                  CONTENTS, READONLY, DEBUGGING, OCTETS
 19 .debug_str    000785d8  00000000  00000000  00022357  2**0
                  CONTENTS, READONLY, DEBUGGING, OCTETS
 20 .comment      00000043  00000000  00000000  0009a92f  2**0
                  CONTENTS, READONLY
 21 .debug_frame  00001834  00000000  00000000  0009a974  2**2
                  CONTENTS, READONLY, DEBUGGING, OCTETS
 22 .debug_line_str 00000068  00000000  00000000  0009c1a8  2**0
                  CONTENTS, READONLY, DEBUGGING, OCTETS

Disassembly of section .text:

080001a0 <__do_global_dtors_aux>:
 80001a0:	b510      	push	{r4, lr}
 80001a2:	4c05      	ldr	r4, [pc, #20]	@ (80001b8 <__do_global_dtors_aux+0x18>)
 80001a4:	7823      	ldrb	r3, [r4, #0]
 80001a6:	b933      	cbnz	r3, 80001b6 <__do_global_dtors_aux+0x16>
 80001a8:	4b04      	ldr	r3, [pc, #16]	@ (80001bc <__do_global_dtors_aux+0x1c>)
 80001aa:	b113      	cbz	r3, 80001b2 <__do_global_dtors_aux+0x12>
 80001ac:	4804      	ldr	r0, [pc, #16]	@ (80001c0 <__do_global_dtors_aux+0x20>)
 80001ae:	f3af 8000 	nop.w
 80001b2:	2301      	movs	r3, #1
 80001b4:	7023      	strb	r3, [r4, #0]
 80001b6:	bd10      	pop	{r4, pc}
 80001b8:	200001fc 	.word	0x200001fc
 80001bc:	00000000 	.word	0x00000000
 80001c0:	080047a8 	.word	0x080047a8

080001c4 <frame_dummy>:
 80001c4:	b508      	push	{r3, lr}
 80001c6:	4b03      	ldr	r3, [pc, #12]	@ (80001d4 <frame_dummy+0x10>)
 80001c8:	b11b      	cbz	r3, 80001d2 <frame_dummy+0xe>
 80001ca:	4903      	ldr	r1, [pc, #12]	@ (80001d8 <frame_dummy+0x14>)
 80001cc:	4803      	ldr	r0, [pc, #12]	@ (80001dc <frame_dummy+0x18>)
 80001ce:	f3af 8000 	nop.w
 80001d2:	bd08      	pop	{r3, pc}
 80001d4:	00000000 	.word	0x00000000
 80001d8:	20000200 	.word	0x20000200
 80001dc:	080047a8 	.word	0x080047a8

080001e0 <memchr>:
 80001e0:	f001 01ff 	and.w	r1, r1, #255	@ 0xff
 80001e4:	2a10      	cmp	r2, #16
 80001e6:	db2b      	blt.n	8000240 <memchr+0x60>
 80001e8:	f010 0f07 	tst.w	r0, #7
 80001ec:	d008      	beq.n	8000200 <memchr+0x20>
 80001ee:	f810 3b01 	ldrb.w	r3, [r0], #1
 80001f2:	3a01      	subs	r2, #1
 80001f4:	428b      	cmp	r3, r1
 80001f6:	d02d      	beq.n	8000254 <memchr+0x74>
 80001f8:	f010 0f07 	tst.w	r0, #7
 80001fc:	b342      	cbz	r2, 8000250 <memchr+0x70>
 80001fe:	d1f6      	bne.n	80001ee <memchr+0xe>
 8000200:	b4f0      	push	{r4, r5, r6, r7}
 8000202:	ea41 2101 	orr.w	r1, r1, r1, lsl #8
 8000206:	ea41 4101 	orr.w	r1, r1, r1, lsl #16
 800020a:	f022 0407 	bic.w	r4, r2, #7
 800020e:	f07f 0700 	mvns.w	r7, #0
 8000212:	2300      	movs	r3, #0
 8000214:	e8f0 5602 	ldrd	r5, r6, [r0], #8
 8000218:	3c08      	subs	r4, #8
 800021a:	ea85 0501 	eor.w	r5, r5, r1
 800021e:	ea86 0601 	eor.w	r6, r6, r1
 8000222:	fa85 f547 	uadd8	r5, r5, r7
 8000226:	faa3 f587 	sel	r5, r3, r7
 800022a:	fa86 f647 	uadd8	r6, r6, r7
 800022e:	faa5 f687 	sel	r6, r5, r7
 8000232:	b98e      	cbnz	r6, 8000258 <memchr+0x78>
 8000234:	d1ee      	bne.n	8000214 <memchr+0x34>
 8000236:	bcf0      	pop	{r4, r5, r6, r7}
 8000238:	f001 01ff 	and.w	r1, r1, #255	@ 0xff
 800023c:	f002 0207 	and.w	r2, r2, #7
 8000240:	b132      	cbz	r2, 8000250 <memchr+0x70>
 8000242:	f810 3b01 	ldrb.w	r3, [r0], #1
 8000246:	3a01      	subs	r2, #1
 8000248:	ea83 0301 	eor.w	r3, r3, r1
 800024c:	b113      	cbz	r3, 8000254 <memchr+0x74>
 800024e:	d1f8      	bne.n	8000242 <memchr+0x62>
 8000250:	2000      	movs	r0, #0
 8000252:	4770      	bx	lr
 8000254:	3801      	subs	r0, #1
 8000256:	4770      	bx	lr
 8000258:	2d00      	cmp	r5, #0
 800025a:	bf06      	itte	eq
 800025c:	4635      	moveq	r5, r6
 800025e:	3803      	subeq	r0, #3
 8000260:	3807      	subne	r0, #7
 8000262:	f015 0f01 	tst.w	r5, #1
 8000266:	d107      	bne.n	8000278 <memchr+0x98>
 8000268:	3001      	adds	r0, #1
 800026a:	f415 7f80 	tst.w	r5, #256	@ 0x100
 800026e:	bf02      	ittt	eq
 8000270:	3001      	addeq	r0, #1
 8000272:	f415 3fc0 	tsteq.w	r5, #98304	@ 0x18000
 8000276:	3001      	addeq	r0, #1
 8000278:	bcf0      	pop	{r4, r5, r6, r7}
 800027a:	3801      	subs	r0, #1
 800027c:	4770      	bx	lr
 800027e:	bf00      	nop

08000280 <strlen>:
 8000280:	4603      	mov	r3, r0
 8000282:	f813 2b01 	ldrb.w	r2, [r3], #1
 8000286:	2a00      	cmp	r2, #0
 8000288:	d1fb      	bne.n	8000282 <strlen+0x2>
 800028a:	1a18      	subs	r0, r3, r0
 800028c:	3801      	subs	r0, #1
 800028e:	4770      	bx	lr

08000290 <strcmp>:
 8000290:	f810 2b01 	ldrb.w	r2, [r0], #1
 8000294:	f811 3b01 	ldrb.w	r3, [r1], #1
 8000298:	2a01      	cmp	r2, #1
 800029a:	bf28      	it	cs
 800029c:	429a      	cmpcs	r2, r3
 800029e:	d0f7      	beq.n	8000290 <strcmp>
 80002a0:	1ad0      	subs	r0, r2, r3
 80002a2:	4770      	bx	lr

080002a4 <__aeabi_fmul>:
 80002a4:	f04f 0cff 	mov.w	ip, #255	@ 0xff
 80002a8:	ea1c 52d0 	ands.w	r2, ip, r0, lsr #23
 80002ac:	bf1e      	ittt	ne
 80002ae:	ea1c 53d1 	andsne.w	r3, ip, r1, lsr #23
 80002b2:	ea92 0f0c 	teqne	r2, ip
 80002b6:	ea93 0f0c 	teqne	r3, ip
 80002ba:	d06f      	beq.n	800039c <__aeabi_fmul+0xf8>
 80002bc:	441a      	add	r2, r3
 80002be:	ea80 0c01 	eor.w	ip, r0, r1
 80002c2:	0240      	lsls	r0, r0, #9
 80002c4:	bf18      	it	ne
 80002c6:	ea5f 2141 	movsne.w	r1, r1, lsl #9
 80002ca:	d01e      	beq.n	800030a <__aeabi_fmul+0x66>
 80002cc:	f04f 6300 	mov.w	r3, #134217728	@ 0x8000000
 80002d0:	ea43 1050 	orr.w	r0, r3, r0, lsr #5
 80002d4:	ea43 1151 	orr.w	r1, r3, r1, lsr #5
 80002d8:	fba0 3101 	umull	r3, r1, r0, r1
 80002dc:	f00c 4000 	and.w	r0, ip, #2147483648	@ 0x80000000
 80002e0:	f5b1 0f00 	cmp.w	r1, #8388608	@ 0x800000
 80002e4:	bf3e      	ittt	cc
 80002e6:	0049      	lslcc	r1, r1, #1
 80002e8:	ea41 71d3 	orrcc.w	r1, r1, r3, lsr #31
 80002ec:	005b      	lslcc	r3, r3, #1
 80002ee:	ea40 0001 	orr.w	r0, r0, r1
 80002f2:	f162 027f 	sbc.w	r2, r2, #127	@ 0x7f
 80002f6:	2afd      	cmp	r2, #253	@ 0xfd
 80002f8:	d81d      	bhi.n	8000336 <__aeabi_fmul+0x92>
 80002fa:	f1b3 4f00 	cmp.w	r3, #2147483648	@ 0x80000000
 80002fe:	eb40 50c2 	adc.w	r0, r0, r2, lsl #23
 8000302:	bf08      	it	eq
 8000304:	f020 0001 	biceq.w	r0, r0, #1
 8000308:	4770      	bx	lr
 800030a:	f090 0f00 	teq	r0, #0
 800030e:	f00c 4c00 	and.w	ip, ip, #2147483648	@ 0x80000000
 8000312:	bf08      	it	eq
 8000314:	0249      	lsleq	r1, r1, #9
 8000316:	ea4c 2050 	orr.w	r0, ip, r0, lsr #9
 800031a:	ea40 2051 	orr.w	r0, r0, r1, lsr #9
 800031e:	3a7f      	subs	r2, #127	@ 0x7f
 8000320:	bfc2      	ittt	gt
 8000322:	f1d2 03ff 	rsbsgt	r3, r2, #255	@ 0xff
 8000326:	ea40 50c2 	orrgt.w	r0, r0, r2, lsl #23
 800032a:	4770      	bxgt	lr
 800032c:	f440 0000 	orr.w	r0, r0, #8388608	@ 0x800000
 8000330:	f04f 0300 	mov.w	r3, #0
 8000334:	3a01      	subs	r2, #1
 8000336:	dc5d      	bgt.n	80003f4 <__aeabi_fmul+0x150>
 8000338:	f112 0f19 	cmn.w	r2, #25
 800033c:	bfdc      	itt	le
 800033e:	f000 4000 	andle.w	r0, r0, #2147483648	@ 0x80000000
 8000342:	4770      	bxle	lr
 8000344:	f1c2 0200 	rsb	r2, r2, #0
 8000348:	0041      	lsls	r1, r0, #1
 800034a:	fa21 f102 	lsr.w	r1, r1, r2
 800034e:	f1c2 0220 	rsb	r2, r2, #32
 8000352:	fa00 fc02 	lsl.w	ip, r0, r2
 8000356:	ea5f 0031 	movs.w	r0, r1, rrx
 800035a:	f140 0000 	adc.w	r0, r0, #0
 800035e:	ea53 034c 	orrs.w	r3, r3, ip, lsl #1
 8000362:	bf08      	it	eq
 8000364:	ea20 70dc 	biceq.w	r0, r0, ip, lsr #31
 8000368:	4770      	bx	lr
 800036a:	f092 0f00 	teq	r2, #0
 800036e:	f000 4c00 	and.w	ip, r0, #2147483648	@ 0x80000000
 8000372:	bf02      	ittt	eq
 8000374:	0040      	lsleq	r0, r0, #1
 8000376:	f410 0f00 	tsteq.w	r0, #8388608	@ 0x800000
 800037a:	3a01      	subeq	r2, #1
 800037c:	d0f9      	beq.n	8000372 <__aeabi_fmul+0xce>
 800037e:	ea40 000c 	orr.w	r0, r0, ip
 8000382:	f093 0f00 	teq	r3, #0
 8000386:	f001 4c00 	and.w	ip, r1, #2147483648	@ 0x80000000
 800038a:	bf02      	ittt	eq
 800038c:	0049      	lsleq	r1, r1, #1
 800038e:	f411 0f00 	tsteq.w	r1, #8388608	@ 0x800000
 8000392:	3b01      	subeq	r3, #1
 8000394:	d0f9      	beq.n	800038a <__aeabi_fmul+0xe6>
 8000396:	ea41 010c 	orr.w	r1, r1, ip
 800039a:	e78f      	b.n	80002bc <__aeabi_fmul+0x18>
 800039c:	ea0c 53d1 	and.w	r3, ip, r1, lsr #23
 80003a0:	ea92 0f0c 	teq	r2, ip
 80003a4:	bf18      	it	ne
 80003a6:	ea93 0f0c 	teqne	r3, ip
 80003aa:	d00a      	beq.n	80003c2 <__aeabi_fmul+0x11e>
 80003ac:	f030 4c00 	bics.w	ip, r0, #2147483648	@ 0x80000000
 80003b0:	bf18      	it	ne
 80003b2:	f031 4c00 	bicsne.w	ip, r1, #2147483648	@ 0x80000000
 80003b6:	d1d8      	bne.n	800036a <__aeabi_fmul+0xc6>
 80003b8:	ea80 0001 	eor.w	r0, r0, r1
 80003bc:	f000 4000 	and.w	r0, r0, #2147483648	@ 0x80000000
 80003c0:	4770      	bx	lr
 80003c2:	f090 0f00 	teq	r0, #0
 80003c6:	bf17      	itett	ne
 80003c8:	f090 4f00 	teqne	r0, #2147483648	@ 0x80000000
 80003cc:	4608      	moveq	r0, r1
 80003ce:	f091 0f00 	teqne	r1, #0
 80003d2:	f091 4f00 	teqne	r1, #2147483648	@ 0x80000000
 80003d6:	d014      	beq.n	8000402 <__aeabi_fmul+0x15e>
 80003d8:	ea92 0f0c 	teq	r2, ip
 80003dc:	d101      	bne.n	80003e2 <__aeabi_fmul+0x13e>
 80003de:	0242      	lsls	r2, r0, #9
 80003e0:	d10f      	bne.n	8000402 <__aeabi_fmul+0x15e>
 80003e2:	ea93 0f0c 	teq	r3, ip
 80003e6:	d103      	bne.n	80003f0 <__aeabi_fmul+0x14c>
 80003e8:	024b      	lsls	r3, r1, #9
 80003ea:	bf18      	it	ne
 80003ec:	4608      	movne	r0, r1
 80003ee:	d108      	bne.n	8000402 <__aeabi_fmul+0x15e>
 80003f0:	ea80 0001 	eor.w	r0, r0, r1
 80003f4:	f000 4000 	and.w	r0, r0, #2147483648	@ 0x80000000
 80003f8:	f040 40fe 	orr.w	r0, r0, #2130706432	@ 0x7f000000
 80003fc:	f440 0000 	orr.w	r0, r0, #8388608	@ 0x800000
 8000400:	4770      	bx	lr
 8000402:	f040 40fe 	orr.w	r0, r0, #2130706432	@ 0x7f000000
 8000406:	f440 0040 	orr.w	r0, r0, #12582912	@ 0xc00000
 800040a:	4770      	bx	lr

0800040c <__aeabi_drsub>:
 800040c:	f081 4100 	eor.w	r1, r1, #2147483648	@ 0x80000000
 8000410:	e002      	b.n	8000418 <__adddf3>
 8000412:	bf00      	nop

08000414 <__aeabi_dsub>:
 8000414:	f083 4300 	eor.w	r3, r3, #2147483648	@ 0x80000000

08000418 <__adddf3>:
 8000418:	b530      	push	{r4, r5, lr}
 800041a:	ea4f 0441 	mov.w	r4, r1, lsl #1
 800041e:	ea4f 0543 	mov.w	r5, r3, lsl #1
 8000422:	ea94 0f05 	teq	r4, r5
 8000426:	bf08      	it	eq
 8000428:	ea90 0f02 	teqeq	r0, r2
 800042c:	bf1f      	itttt	ne
 800042e:	ea54 0c00 	orrsne.w	ip, r4, r0
 8000432:	ea55 0c02 	orrsne.w	ip, r5, r2
 8000436:	ea7f 5c64 	mvnsne.w	ip, r4, asr #21
 800043a:	ea7f 5c65 	mvnsne.w	ip, r5, asr #21
 800043e:	f000 80e2 	beq.w	8000606 <__adddf3+0x1ee>
 8000442:	ea4f 5454 	mov.w	r4, r4, lsr #21
 8000446:	ebd4 5555 	rsbs	r5, r4, r5, lsr #21
 800044a:	bfb8      	it	lt
 800044c:	426d      	neglt	r5, r5
 800044e:	dd0c      	ble.n	800046a <__adddf3+0x52>
 8000450:	442c      	add	r4, r5
 8000452:	ea80 0202 	eor.w	r2, r0, r2
 8000456:	ea81 0303 	eor.w	r3, r1, r3
 800045a:	ea82 0000 	eor.w	r0, r2, r0
 800045e:	ea83 0101 	eor.w	r1, r3, r1
 8000462:	ea80 0202 	eor.w	r2, r0, r2
 8000466:	ea81 0303 	eor.w	r3, r1, r3
 800046a:	2d36      	cmp	r5, #54	@ 0x36
 800046c:	bf88      	it	hi
 800046e:	bd30      	pophi	{r4, r5, pc}
 8000470:	f011 4f00 	tst.w	r1, #2147483648	@ 0x80000000
 8000474:	ea4f 3101 	mov.w	r1, r1, lsl #12
 8000478:	f44f 1c80 	mov.w	ip, #1048576	@ 0x100000
 800047c:	ea4c 3111 	orr.w	r1, ip, r1, lsr #12
 8000480:	d002      	beq.n	8000488 <__adddf3+0x70>
 8000482:	4240      	negs	r0, r0
 8000484:	eb61 0141 	sbc.w	r1, r1, r1, lsl #1
 8000488:	f013 4f00 	tst.w	r3, #2147483648	@ 0x80000000
 800048c:	ea4f 3303 	mov.w	r3, r3, lsl #12
 8000490:	ea4c 3313 	orr.w	r3, ip, r3, lsr #12
 8000494:	d002      	beq.n	800049c <__adddf3+0x84>
 8000496:	4252      	negs	r2, r2
 8000498:	eb63 0343 	sbc.w	r3, r3, r3, lsl #1
 800049c:	ea94 0f05 	teq	r4, r5
 80004a0:	f000 80a7 	beq.w	80005f2 <__adddf3+0x1da>
 80004a4:	f1a4 0401 	sub.w	r4, r4, #1
 80004a8:	f1d5 0e20 	rsbs	lr, r5, #32
 80004ac:	db0d      	blt.n	80004ca <__adddf3+0xb2>
 80004ae:	fa02 fc0e 	lsl.w	ip, r2, lr
 80004b2:	fa22 f205 	lsr.w	r2, r2, r5
 80004b6:	1880      	adds	r0, r0, r2
 80004b8:	f141 0100 	adc.w	r1, r1, #0
 80004bc:	fa03 f20e 	lsl.w	r2, r3, lr
 80004c0:	1880      	adds	r0, r0, r2
 80004c2:	fa43 f305 	asr.w	r3, r3, r5
 80004c6:	4159      	adcs	r1, r3
 80004c8:	e00e      	b.n	80004e8 <__adddf3+0xd0>
 80004ca:	f1a5 0520 	sub.w	r5, r5, #32
 80004ce:	f10e 0e20 	add.w	lr, lr, #32
 80004d2:	2a01      	cmp	r2, #1
 80004d4:	fa03 fc0e 	lsl.w	ip, r3, lr
 80004d8:	bf28      	it	cs
 80004da:	f04c 0c02 	orrcs.w	ip, ip, #2
 80004de:	fa43 f305 	asr.w	r3, r3, r5
 80004e2:	18c0      	adds	r0, r0, r3
 80004e4:	eb51 71e3 	adcs.w	r1, r1, r3, asr #31
 80004e8:	f001 4500 	and.w	r5, r1, #2147483648	@ 0x80000000
 80004ec:	d507      	bpl.n	80004fe <__adddf3+0xe6>
 80004ee:	f04f 0e00 	mov.w	lr, #0
 80004f2:	f1dc 0c00 	rsbs	ip, ip, #0
 80004f6:	eb7e 0000 	sbcs.w	r0, lr, r0
 80004fa:	eb6e 0101 	sbc.w	r1, lr, r1
 80004fe:	f5b1 1f80 	cmp.w	r1, #1048576	@ 0x100000
 8000502:	d31b      	bcc.n	800053c <__adddf3+0x124>
 8000504:	f5b1 1f00 	cmp.w	r1, #2097152	@ 0x200000
 8000508:	d30c      	bcc.n	8000524 <__adddf3+0x10c>
 800050a:	0849      	lsrs	r1, r1, #1
 800050c:	ea5f 0030 	movs.w	r0, r0, rrx
 8000510:	ea4f 0c3c 	mov.w	ip, ip, rrx
 8000514:	f104 0401 	add.w	r4, r4, #1
 8000518:	ea4f 5244 	mov.w	r2, r4, lsl #21
 800051c:	f512 0f80 	cmn.w	r2, #4194304	@ 0x400000
 8000520:	f080 809a 	bcs.w	8000658 <__adddf3+0x240>
 8000524:	f1bc 4f00 	cmp.w	ip, #2147483648	@ 0x80000000
 8000528:	bf08      	it	eq
 800052a:	ea5f 0c50 	movseq.w	ip, r0, lsr #1
 800052e:	f150 0000 	adcs.w	r0, r0, #0
 8000532:	eb41 5104 	adc.w	r1, r1, r4, lsl #20
 8000536:	ea41 0105 	orr.w	r1, r1, r5
 800053a:	bd30      	pop	{r4, r5, pc}
 800053c:	ea5f 0c4c 	movs.w	ip, ip, lsl #1
 8000540:	4140      	adcs	r0, r0
 8000542:	eb41 0101 	adc.w	r1, r1, r1
 8000546:	3c01      	subs	r4, #1
 8000548:	bf28      	it	cs
 800054a:	f5b1 1f80 	cmpcs.w	r1, #1048576	@ 0x100000
 800054e:	d2e9      	bcs.n	8000524 <__adddf3+0x10c>
 8000550:	f091 0f00 	teq	r1, #0
 8000554:	bf04      	itt	eq
 8000556:	4601      	moveq	r1, r0
 8000558:	2000      	moveq	r0, #0
 800055a:	fab1 f381 	clz	r3, r1
 800055e:	bf08      	it	eq
 8000560:	3320      	addeq	r3, #32
 8000562:	f1a3 030b 	sub.w	r3, r3, #11
 8000566:	f1b3 0220 	subs.w	r2, r3, #32
 800056a:	da0c      	bge.n	8000586 <__adddf3+0x16e>
 800056c:	320c      	adds	r2, #12
 800056e:	dd08      	ble.n	8000582 <__adddf3+0x16a>
 8000570:	f102 0c14 	add.w	ip, r2, #20
 8000574:	f1c2 020c 	rsb	r2, r2, #12
 8000578:	fa01 f00c 	lsl.w	r0, r1, ip
 800057c:	fa21 f102 	lsr.w	r1, r1, r2
 8000580:	e00c      	b.n	800059c <__adddf3+0x184>
 8000582:	f102 0214 	add.w	r2, r2, #20
 8000586:	bfd8      	it	le
 8000588:	f1c2 0c20 	rsble	ip, r2, #32
 800058c:	fa01 f102 	lsl.w	r1, r1, r2
 8000590:	fa20 fc0c 	lsr.w	ip, r0, ip
 8000594:	bfdc      	itt	le
 8000596:	ea41 010c 	orrle.w	r1, r1, ip
 800059a:	4090      	lslle	r0, r2
 800059c:	1ae4      	subs	r4, r4, r3
 800059e:	bfa2      	ittt	ge
 80005a0:	eb01 5104 	addge.w	r1, r1, r4, lsl #20
 80005a4:	4329      	orrge	r1, r5
 80005a6:	bd30      	popge	{r4, r5, pc}
 80005a8:	ea6f 0404 	mvn.w	r4, r4
 80005ac:	3c1f      	subs	r4, #31
 80005ae:	da1c      	bge.n	80005ea <__adddf3+0x1d2>
 80005b0:	340c      	adds	r4, #12
 80005b2:	dc0e      	bgt.n	80005d2 <__adddf3+0x1ba>
 80005b4:	f104 0414 	add.w	r4, r4, #20
 80005b8:	f1c4 0220 	rsb	r2, r4, #32
 80005bc:	fa20 f004 	lsr.w	r0, r0, r4
 80005c0:	fa01 f302 	lsl.w	r3, r1, r2
 80005c4:	ea40 0003 	orr.w	r0, r0, r3
 80005c8:	fa21 f304 	lsr.w	r3, r1, r4
 80005cc:	ea45 0103 	orr.w	r1, r5, r3
 80005d0:	bd30      	pop	{r4, r5, pc}
 80005d2:	f1c4 040c 	rsb	r4, r4, #12
 80005d6:	f1c4 0220 	rsb	r2, r4, #32
 80005da:	fa20 f002 	lsr.w	r0, r0, r2
 80005de:	fa01 f304 	lsl.w	r3, r1, r4
 80005e2:	ea40 0003 	orr.w	r0, r0, r3
 80005e6:	4629      	mov	r1, r5
 80005e8:	bd30      	pop	{r4, r5, pc}
 80005ea:	fa21 f004 	lsr.w	r0, r1, r4
 80005ee:	4629      	mov	r1, r5
 80005f0:	bd30      	pop	{r4, r5, pc}
 80005f2:	f094 0f00 	teq	r4, #0
 80005f6:	f483 1380 	eor.w	r3, r3, #1048576	@ 0x100000
 80005fa:	bf06      	itte	eq
 80005fc:	f481 1180 	eoreq.w	r1, r1, #1048576	@ 0x100000
 8000600:	3401      	addeq	r4, #1
 8000602:	3d01      	subne	r5, #1
 8000604:	e74e      	b.n	80004a4 <__adddf3+0x8c>
 8000606:	ea7f 5c64 	mvns.w	ip, r4, asr #21
 800060a:	bf18      	it	ne
 800060c:	ea7f 5c65 	mvnsne.w	ip, r5, asr #21
 8000610:	d029      	beq.n	8000666 <__adddf3+0x24e>
 8000612:	ea94 0f05 	teq	r4, r5
 8000616:	bf08      	it	eq
 8000618:	ea90 0f02 	teqeq	r0, r2
 800061c:	d005      	beq.n	800062a <__adddf3+0x212>
 800061e:	ea54 0c00 	orrs.w	ip, r4, r0
 8000622:	bf04      	itt	eq
 8000624:	4619      	moveq	r1, r3
 8000626:	4610      	moveq	r0, r2
 8000628:	bd30      	pop	{r4, r5, pc}
 800062a:	ea91 0f03 	teq	r1, r3
 800062e:	bf1e      	ittt	ne
 8000630:	2100      	movne	r1, #0
 8000632:	2000      	movne	r0, #0
 8000634:	bd30      	popne	{r4, r5, pc}
 8000636:	ea5f 5c54 	movs.w	ip, r4, lsr #21
 800063a:	d105      	bne.n	8000648 <__adddf3+0x230>
 800063c:	0040      	lsls	r0, r0, #1
 800063e:	4149      	adcs	r1, r1
 8000640:	bf28      	it	cs
 8000642:	f041 4100 	orrcs.w	r1, r1, #2147483648	@ 0x80000000
 8000646:	bd30      	pop	{r4, r5, pc}
 8000648:	f514 0480 	adds.w	r4, r4, #4194304	@ 0x400000
 800064c:	bf3c      	itt	cc
 800064e:	f501 1180 	addcc.w	r1, r1, #1048576	@ 0x100000
 8000652:	bd30      	popcc	{r4, r5, pc}
 8000654:	f001 4500 	and.w	r5, r1, #2147483648	@ 0x80000000
 8000658:	f045 41fe 	orr.w	r1, r5, #2130706432	@ 0x7f000000
 800065c:	f441 0170 	orr.w	r1, r1, #15728640	@ 0xf00000
 8000660:	f04f 0000 	mov.w	r0, #0
 8000664:	bd30      	pop	{r4, r5, pc}
 8000666:	ea7f 5c64 	mvns.w	ip, r4, asr #21
 800066a:	bf1a      	itte	ne
 800066c:	4619      	movne	r1, r3
 800066e:	4610      	movne	r0, r2
 8000670:	ea7f 5c65 	mvnseq.w	ip, r5, asr #21
 8000674:	bf1c      	itt	ne
 8000676:	460b      	movne	r3, r1
 8000678:	4602      	movne	r2, r0
 800067a:	ea50 3401 	orrs.w	r4, r0, r1, lsl #12
 800067e:	bf06      	itte	eq
 8000680:	ea52 3503 	orrseq.w	r5, r2, r3, lsl #12
 8000684:	ea91 0f03 	teqeq	r1, r3
 8000688:	f441 2100 	orrne.w	r1, r1, #524288	@ 0x80000
 800068c:	bd30      	pop	{r4, r5, pc}
 800068e:	bf00      	nop

08000690 <__aeabi_ui2d>:
 8000690:	f090 0f00 	teq	r0, #0
 8000694:	bf04      	itt	eq
 8000696:	2100      	moveq	r1, #0
 8000698:	4770      	bxeq	lr
 800069a:	b530      	push	{r4, r5, lr}
 800069c:	f44f 6480 	mov.w	r4, #1024	@ 0x400
 80006a0:	f104 0432 	add.w	r4, r4, #50	@ 0x32
 80006a4:	f04f 0500 	mov.w	r5, #0
 80006a8:	f04f 0100 	mov.w	r1, #0
 80006ac:	e750      	b.n	8000550 <__adddf3+0x138>
 80006ae:	bf00      	nop

080006b0 <__aeabi_i2d>:
 80006b0:	f090 0f00 	teq	r0, #0
 80006b4:	bf04      	itt	eq
 80006b6:	2100      	moveq	r1, #0
 80006b8:	4770      	bxeq	lr
 80006ba:	b530      	push	{r4, r5, lr}
 80006bc:	f44f 6480 	mov.w	r4, #1024	@ 0x400
 80006c0:	f104 0432 	add.w	r4, r4, #50	@ 0x32
 80006c4:	f010 4500 	ands.w	r5, r0, #2147483648	@ 0x80000000
 80006c8:	bf48      	it	mi
 80006ca:	4240      	negmi	r0, r0
 80006cc:	f04f 0100 	mov.w	r1, #0
 80006d0:	e73e      	b.n	8000550 <__adddf3+0x138>
 80006d2:	bf00      	nop

080006d4 <__aeabi_f2d>:
 80006d4:	0042      	lsls	r2, r0, #1
 80006d6:	ea4f 01e2 	mov.w	r1, r2, asr #3
 80006da:	ea4f 0131 	mov.w	r1, r1, rrx
 80006de:	ea4f 7002 	mov.w	r0, r2, lsl #28
 80006e2:	bf1f      	itttt	ne
 80006e4:	f012 437f 	andsne.w	r3, r2, #4278190080	@ 0xff000000
 80006e8:	f093 4f7f 	teqne	r3, #4278190080	@ 0xff000000
 80006ec:	f081 5160 	eorne.w	r1, r1, #939524096	@ 0x38000000
 80006f0:	4770      	bxne	lr
 80006f2:	f032 427f 	bics.w	r2, r2, #4278190080	@ 0xff000000
 80006f6:	bf08      	it	eq
 80006f8:	4770      	bxeq	lr
 80006fa:	f093 4f7f 	teq	r3, #4278190080	@ 0xff000000
 80006fe:	bf04      	itt	eq
 8000700:	f441 2100 	orreq.w	r1, r1, #524288	@ 0x80000
 8000704:	4770      	bxeq	lr
 8000706:	b530      	push	{r4, r5, lr}
 8000708:	f44f 7460 	mov.w	r4, #896	@ 0x380
 800070c:	f001 4500 	and.w	r5, r1, #2147483648	@ 0x80000000
 8000710:	f021 4100 	bic.w	r1, r1, #2147483648	@ 0x80000000
 8000714:	e71c      	b.n	8000550 <__adddf3+0x138>
 8000716:	bf00      	nop

08000718 <__aeabi_ul2d>:
 8000718:	ea50 0201 	orrs.w	r2, r0, r1
 800071c:	bf08      	it	eq
 800071e:	4770      	bxeq	lr
 8000720:	b530      	push	{r4, r5, lr}
 8000722:	f04f 0500 	mov.w	r5, #0
 8000726:	e00a      	b.n	800073e <__aeabi_l2d+0x16>

08000728 <__aeabi_l2d>:
 8000728:	ea50 0201 	orrs.w	r2, r0, r1
 800072c:	bf08      	it	eq
 800072e:	4770      	bxeq	lr
 8000730:	b530      	push	{r4, r5, lr}
 8000732:	f011 4500 	ands.w	r5, r1, #2147483648	@ 0x80000000
 8000736:	d502      	bpl.n	800073e <__aeabi_l2d+0x16>
 8000738:	4240      	negs	r0, r0
 800073a:	eb61 0141 	sbc.w	r1, r1, r1, lsl #1
 800073e:	f44f 6480 	mov.w	r4, #1024	@ 0x400
 8000742:	f104 0432 	add.w	r4, r4, #50	@ 0x32
 8000746:	ea5f 5c91 	movs.w	ip, r1, lsr #22
 800074a:	f43f aed8 	beq.w	80004fe <__adddf3+0xe6>
 800074e:	f04f 0203 	mov.w	r2, #3
 8000752:	ea5f 0cdc 	movs.w	ip, ip, lsr #3
 8000756:	bf18      	it	ne
 8000758:	3203      	addne	r2, #3
 800075a:	ea5f 0cdc 	movs.w	ip, ip, lsr #3
 800075e:	bf18      	it	ne
 8000760:	3203      	addne	r2, #3
 8000762:	eb02 02dc 	add.w	r2, r2, ip, lsr #3
 8000766:	f1c2 0320 	rsb	r3, r2, #32
 800076a:	fa00 fc03 	lsl.w	ip, r0, r3
 800076e:	fa20 f002 	lsr.w	r0, r0, r2
 8000772:	fa01 fe03 	lsl.w	lr, r1, r3
 8000776:	ea40 000e 	orr.w	r0, r0, lr
 800077a:	fa21 f102 	lsr.w	r1, r1, r2
 800077e:	4414      	add	r4, r2
 8000780:	e6bd      	b.n	80004fe <__adddf3+0xe6>
 8000782:	bf00      	nop

08000784 <__aeabi_dmul>:
 8000784:	b570      	push	{r4, r5, r6, lr}
 8000786:	f04f 0cff 	mov.w	ip, #255	@ 0xff
 800078a:	f44c 6ce0 	orr.w	ip, ip, #1792	@ 0x700
 800078e:	ea1c 5411 	ands.w	r4, ip, r1, lsr #20
 8000792:	bf1d      	ittte	ne
 8000794:	ea1c 5513 	andsne.w	r5, ip, r3, lsr #20
 8000798:	ea94 0f0c 	teqne	r4, ip
 800079c:	ea95 0f0c 	teqne	r5, ip
 80007a0:	f000 f8de 	bleq	8000960 <__aeabi_dmul+0x1dc>
 80007a4:	442c      	add	r4, r5
 80007a6:	ea81 0603 	eor.w	r6, r1, r3
 80007aa:	ea21 514c 	bic.w	r1, r1, ip, lsl #21
 80007ae:	ea23 534c 	bic.w	r3, r3, ip, lsl #21
 80007b2:	ea50 3501 	orrs.w	r5, r0, r1, lsl #12
 80007b6:	bf18      	it	ne
 80007b8:	ea52 3503 	orrsne.w	r5, r2, r3, lsl #12
 80007bc:	f441 1180 	orr.w	r1, r1, #1048576	@ 0x100000
 80007c0:	f443 1380 	orr.w	r3, r3, #1048576	@ 0x100000
 80007c4:	d038      	beq.n	8000838 <__aeabi_dmul+0xb4>
 80007c6:	fba0 ce02 	umull	ip, lr, r0, r2
 80007ca:	f04f 0500 	mov.w	r5, #0
 80007ce:	fbe1 e502 	umlal	lr, r5, r1, r2
 80007d2:	f006 4200 	and.w	r2, r6, #2147483648	@ 0x80000000
 80007d6:	fbe0 e503 	umlal	lr, r5, r0, r3
 80007da:	f04f 0600 	mov.w	r6, #0
 80007de:	fbe1 5603 	umlal	r5, r6, r1, r3
 80007e2:	f09c 0f00 	teq	ip, #0
 80007e6:	bf18      	it	ne
 80007e8:	f04e 0e01 	orrne.w	lr, lr, #1
 80007ec:	f1a4 04ff 	sub.w	r4, r4, #255	@ 0xff
 80007f0:	f5b6 7f00 	cmp.w	r6, #512	@ 0x200
 80007f4:	f564 7440 	sbc.w	r4, r4, #768	@ 0x300
 80007f8:	d204      	bcs.n	8000804 <__aeabi_dmul+0x80>
 80007fa:	ea5f 0e4e 	movs.w	lr, lr, lsl #1
 80007fe:	416d      	adcs	r5, r5
 8000800:	eb46 0606 	adc.w	r6, r6, r6
 8000804:	ea42 21c6 	orr.w	r1, r2, r6, lsl #11
 8000808:	ea41 5155 	orr.w	r1, r1, r5, lsr #21
 800080c:	ea4f 20c5 	mov.w	r0, r5, lsl #11
 8000810:	ea40 505e 	orr.w	r0, r0, lr, lsr #21
 8000814:	ea4f 2ece 	mov.w	lr, lr, lsl #11
 8000818:	f1b4 0cfd 	subs.w	ip, r4, #253	@ 0xfd
 800081c:	bf88      	it	hi
 800081e:	f5bc 6fe0 	cmphi.w	ip, #1792	@ 0x700
 8000822:	d81e      	bhi.n	8000862 <__aeabi_dmul+0xde>
 8000824:	f1be 4f00 	cmp.w	lr, #2147483648	@ 0x80000000
 8000828:	bf08      	it	eq
 800082a:	ea5f 0e50 	movseq.w	lr, r0, lsr #1
 800082e:	f150 0000 	adcs.w	r0, r0, #0
 8000832:	eb41 5104 	adc.w	r1, r1, r4, lsl #20
 8000836:	bd70      	pop	{r4, r5, r6, pc}
 8000838:	f006 4600 	and.w	r6, r6, #2147483648	@ 0x80000000
 800083c:	ea46 0101 	orr.w	r1, r6, r1
 8000840:	ea40 0002 	orr.w	r0, r0, r2
 8000844:	ea81 0103 	eor.w	r1, r1, r3
 8000848:	ebb4 045c 	subs.w	r4, r4, ip, lsr #1
 800084c:	bfc2      	ittt	gt
 800084e:	ebd4 050c 	rsbsgt	r5, r4, ip
 8000852:	ea41 5104 	orrgt.w	r1, r1, r4, lsl #20
 8000856:	bd70      	popgt	{r4, r5, r6, pc}
 8000858:	f441 1180 	orr.w	r1, r1, #1048576	@ 0x100000
 800085c:	f04f 0e00 	mov.w	lr, #0
 8000860:	3c01      	subs	r4, #1
 8000862:	f300 80ab 	bgt.w	80009bc <__aeabi_dmul+0x238>
 8000866:	f114 0f36 	cmn.w	r4, #54	@ 0x36
 800086a:	bfde      	ittt	le
 800086c:	2000      	movle	r0, #0
 800086e:	f001 4100 	andle.w	r1, r1, #2147483648	@ 0x80000000
 8000872:	bd70      	pople	{r4, r5, r6, pc}
 8000874:	f1c4 0400 	rsb	r4, r4, #0
 8000878:	3c20      	subs	r4, #32
 800087a:	da35      	bge.n	80008e8 <__aeabi_dmul+0x164>
 800087c:	340c      	adds	r4, #12
 800087e:	dc1b      	bgt.n	80008b8 <__aeabi_dmul+0x134>
 8000880:	f104 0414 	add.w	r4, r4, #20
 8000884:	f1c4 0520 	rsb	r5, r4, #32
 8000888:	fa00 f305 	lsl.w	r3, r0, r5
 800088c:	fa20 f004 	lsr.w	r0, r0, r4
 8000890:	fa01 f205 	lsl.w	r2, r1, r5
 8000894:	ea40 0002 	orr.w	r0, r0, r2
 8000898:	f001 4200 	and.w	r2, r1, #2147483648	@ 0x80000000
 800089c:	f021 4100 	bic.w	r1, r1, #2147483648	@ 0x80000000
 80008a0:	eb10 70d3 	adds.w	r0, r0, r3, lsr #31
 80008a4:	fa21 f604 	lsr.w	r6, r1, r4
 80008a8:	eb42 0106 	adc.w	r1, r2, r6
 80008ac:	ea5e 0e43 	orrs.w	lr, lr, r3, lsl #1
 80008b0:	bf08      	it	eq
 80008b2:	ea20 70d3 	biceq.w	r0, r0, r3, lsr #31
 80008b6:	bd70      	pop	{r4, r5, r6, pc}
 80008b8:	f1c4 040c 	rsb	r4, r4, #12
 80008bc:	f1c4 0520 	rsb	r5, r4, #32
 80008c0:	fa00 f304 	lsl.w	r3, r0, r4
 80008c4:	fa20 f005 	lsr.w	r0, r0, r5
 80008c8:	fa01 f204 	lsl.w	r2, r1, r4
 80008cc:	ea40 0002 	orr.w	r0, r0, r2
 80008d0:	f001 4100 	and.w	r1, r1, #2147483648	@ 0x80000000
 80008d4:	eb10 70d3 	adds.w	r0, r0, r3, lsr #31
 80008d8:	f141 0100 	adc.w	r1, r1, #0
 80008dc:	ea5e 0e43 	orrs.w	lr, lr, r3, lsl #1
 80008e0:	bf08      	it	eq
 80008e2:	ea20 70d3 	biceq.w	r0, r0, r3, lsr #31
 80008e6:	bd70      	pop	{r4, r5, r6, pc}
 80008e8:	f1c4 0520 	rsb	r5, r4, #32
 80008ec:	fa00 f205 	lsl.w	r2, r0, r5
 80008f0:	ea4e 0e02 	orr.w	lr, lr, r2
 80008f4:	fa20 f304 	lsr.w	r3, r0, r4
 80008f8:	fa01 f205 	lsl.w	r2, r1, r5
 80008fc:	ea43 0302 	orr.w	r3, r3, r2
 8000900:	fa21 f004 	lsr.w	r0, r1, r4
 8000904:	f001 4100 	and.w	r1, r1, #2147483648	@ 0x80000000
 8000908:	fa21 f204 	lsr.w	r2, r1, r4
 800090c:	ea20 0002 	bic.w	r0, r0, r2
 8000910:	eb00 70d3 	add.w	r0, r0, r3, lsr #31
 8000914:	ea5e 0e43 	orrs.w	lr, lr, r3, lsl #1
 8000918:	bf08      	it	eq
 800091a:	ea20 70d3 	biceq.w	r0, r0, r3, lsr #31
 800091e:	bd70      	pop	{r4, r5, r6, pc}
 8000920:	f094 0f00 	teq	r4, #0
 8000924:	d10f      	bne.n	8000946 <__aeabi_dmul+0x1c2>
 8000926:	f001 4600 	and.w	r6, r1, #2147483648	@ 0x80000000
 800092a:	0040      	lsls	r0, r0, #1
 800092c:	eb41 0101 	adc.w	r1, r1, r1
 8000930:	f411 1f80 	tst.w	r1, #1048576	@ 0x100000
 8000934:	bf08      	it	eq
 8000936:	3c01      	subeq	r4, #1
 8000938:	d0f7      	beq.n	800092a <__aeabi_dmul+0x1a6>
 800093a:	ea41 0106 	orr.w	r1, r1, r6
 800093e:	f095 0f00 	teq	r5, #0
 8000942:	bf18      	it	ne
 8000944:	4770      	bxne	lr
 8000946:	f003 4600 	and.w	r6, r3, #2147483648	@ 0x80000000
 800094a:	0052      	lsls	r2, r2, #1
 800094c:	eb43 0303 	adc.w	r3, r3, r3
 8000950:	f413 1f80 	tst.w	r3, #1048576	@ 0x100000
 8000954:	bf08      	it	eq
 8000956:	3d01      	subeq	r5, #1
 8000958:	d0f7      	beq.n	800094a <__aeabi_dmul+0x1c6>
 800095a:	ea43 0306 	orr.w	r3, r3, r6
 800095e:	4770      	bx	lr
 8000960:	ea94 0f0c 	teq	r4, ip
 8000964:	ea0c 5513 	and.w	r5, ip, r3, lsr #20
 8000968:	bf18      	it	ne
 800096a:	ea95 0f0c 	teqne	r5, ip
 800096e:	d00c      	beq.n	800098a <__aeabi_dmul+0x206>
 8000970:	ea50 0641 	orrs.w	r6, r0, r1, lsl #1
 8000974:	bf18      	it	ne
 8000976:	ea52 0643 	orrsne.w	r6, r2, r3, lsl #1
 800097a:	d1d1      	bne.n	8000920 <__aeabi_dmul+0x19c>
 800097c:	ea81 0103 	eor.w	r1, r1, r3
 8000980:	f001 4100 	and.w	r1, r1, #2147483648	@ 0x80000000
 8000984:	f04f 0000 	mov.w	r0, #0
 8000988:	bd70      	pop	{r4, r5, r6, pc}
 800098a:	ea50 0641 	orrs.w	r6, r0, r1, lsl #1
 800098e:	bf06      	itte	eq
 8000990:	4610      	moveq	r0, r2
 8000992:	4619      	moveq	r1, r3
 8000994:	ea52 0643 	orrsne.w	r6, r2, r3, lsl #1
 8000998:	d019      	beq.n	80009ce <__aeabi_dmul+0x24a>
 800099a:	ea94 0f0c 	teq	r4, ip
 800099e:	d102      	bne.n	80009a6 <__aeabi_dmul+0x222>
 80009a0:	ea50 3601 	orrs.w	r6, r0, r1, lsl #12
 80009a4:	d113      	bne.n	80009ce <__aeabi_dmul+0x24a>
 80009a6:	ea95 0f0c 	teq	r5, ip
 80009aa:	d105      	bne.n	80009b8 <__aeabi_dmul+0x234>
 80009ac:	ea52 3603 	orrs.w	r6, r2, r3, lsl #12
 80009b0:	bf1c      	itt	ne
 80009b2:	4610      	movne	r0, r2
 80009b4:	4619      	movne	r1, r3
 80009b6:	d10a      	bne.n	80009ce <__aeabi_dmul+0x24a>
 80009b8:	ea81 0103 	eor.w	r1, r1, r3
 80009bc:	f001 4100 	and.w	r1, r1, #2147483648	@ 0x80000000
 80009c0:	f041 41fe 	orr.w	r1, r1, #2130706432	@ 0x7f000000
 80009c4:	f441 0170 	orr.w	r1, r1, #15728640	@ 0xf00000
 80009c8:	f04f 0000 	mov.w	r0, #0
 80009cc:	bd70      	pop	{r4, r5, r6, pc}
 80009ce:	f041 41fe 	orr.w	r1, r1, #2130706432	@ 0x7f000000
 80009d2:	f441 0178 	orr.w	r1, r1, #16252928	@ 0xf80000
 80009d6:	bd70      	pop	{r4, r5, r6, pc}

080009d8 <__aeabi_ddiv>:
 80009d8:	b570      	push	{r4, r5, r6, lr}
 80009da:	f04f 0cff 	mov.w	ip, #255	@ 0xff
 80009de:	f44c 6ce0 	orr.w	ip, ip, #1792	@ 0x700
 80009e2:	ea1c 5411 	ands.w	r4, ip, r1, lsr #20
 80009e6:	bf1d      	ittte	ne
 80009e8:	ea1c 5513 	andsne.w	r5, ip, r3, lsr #20
 80009ec:	ea94 0f0c 	teqne	r4, ip
 80009f0:	ea95 0f0c 	teqne	r5, ip
 80009f4:	f000 f8a7 	bleq	8000b46 <__aeabi_ddiv+0x16e>
 80009f8:	eba4 0405 	sub.w	r4, r4, r5
 80009fc:	ea81 0e03 	eor.w	lr, r1, r3
 8000a00:	ea52 3503 	orrs.w	r5, r2, r3, lsl #12
 8000a04:	ea4f 3101 	mov.w	r1, r1, lsl #12
 8000a08:	f000 8088 	beq.w	8000b1c <__aeabi_ddiv+0x144>
 8000a0c:	ea4f 3303 	mov.w	r3, r3, lsl #12
 8000a10:	f04f 5580 	mov.w	r5, #268435456	@ 0x10000000
 8000a14:	ea45 1313 	orr.w	r3, r5, r3, lsr #4
 8000a18:	ea43 6312 	orr.w	r3, r3, r2, lsr #24
 8000a1c:	ea4f 2202 	mov.w	r2, r2, lsl #8
 8000a20:	ea45 1511 	orr.w	r5, r5, r1, lsr #4
 8000a24:	ea45 6510 	orr.w	r5, r5, r0, lsr #24
 8000a28:	ea4f 2600 	mov.w	r6, r0, lsl #8
 8000a2c:	f00e 4100 	and.w	r1, lr, #2147483648	@ 0x80000000
 8000a30:	429d      	cmp	r5, r3
 8000a32:	bf08      	it	eq
 8000a34:	4296      	cmpeq	r6, r2
 8000a36:	f144 04fd 	adc.w	r4, r4, #253	@ 0xfd
 8000a3a:	f504 7440 	add.w	r4, r4, #768	@ 0x300
 8000a3e:	d202      	bcs.n	8000a46 <__aeabi_ddiv+0x6e>
 8000a40:	085b      	lsrs	r3, r3, #1
 8000a42:	ea4f 0232 	mov.w	r2, r2, rrx
 8000a46:	1ab6      	subs	r6, r6, r2
 8000a48:	eb65 0503 	sbc.w	r5, r5, r3
 8000a4c:	085b      	lsrs	r3, r3, #1
 8000a4e:	ea4f 0232 	mov.w	r2, r2, rrx
 8000a52:	f44f 1080 	mov.w	r0, #1048576	@ 0x100000
 8000a56:	f44f 2c00 	mov.w	ip, #524288	@ 0x80000
 8000a5a:	ebb6 0e02 	subs.w	lr, r6, r2
 8000a5e:	eb75 0e03 	sbcs.w	lr, r5, r3
 8000a62:	bf22      	ittt	cs
 8000a64:	1ab6      	subcs	r6, r6, r2
 8000a66:	4675      	movcs	r5, lr
 8000a68:	ea40 000c 	orrcs.w	r0, r0, ip
 8000a6c:	085b      	lsrs	r3, r3, #1
 8000a6e:	ea4f 0232 	mov.w	r2, r2, rrx
 8000a72:	ebb6 0e02 	subs.w	lr, r6, r2
 8000a76:	eb75 0e03 	sbcs.w	lr, r5, r3
 8000a7a:	bf22      	ittt	cs
 8000a7c:	1ab6      	subcs	r6, r6, r2
 8000a7e:	4675      	movcs	r5, lr
 8000a80:	ea40 005c 	orrcs.w	r0, r0, ip, lsr #1
 8000a84:	085b      	lsrs	r3, r3, #1
 8000a86:	ea4f 0232 	mov.w	r2, r2, rrx
 8000a8a:	ebb6 0e02 	subs.w	lr, r6, r2
 8000a8e:	eb75 0e03 	sbcs.w	lr, r5, r3
 8000a92:	bf22      	ittt	cs
 8000a94:	1ab6      	subcs	r6, r6, r2
 8000a96:	4675      	movcs	r5, lr
 8000a98:	ea40 009c 	orrcs.w	r0, r0, ip, lsr #2
 8000a9c:	085b      	lsrs	r3, r3, #1
 8000a9e:	ea4f 0232 	mov.w	r2, r2, rrx
 8000aa2:	ebb6 0e02 	subs.w	lr, r6, r2
 8000aa6:	eb75 0e03 	sbcs.w	lr, r5, r3
 8000aaa:	bf22      	ittt	cs
 8000aac:	1ab6      	subcs	r6, r6, r2
 8000aae:	4675      	movcs	r5, lr
 8000ab0:	ea40 00dc 	orrcs.w	r0, r0, ip, lsr #3
 8000ab4:	ea55 0e06 	orrs.w	lr, r5, r6
 8000ab8:	d018      	beq.n	8000aec <__aeabi_ddiv+0x114>
 8000aba:	ea4f 1505 	mov.w	r5, r5, lsl #4
 8000abe:	ea45 7516 	orr.w	r5, r5, r6, lsr #28
 8000ac2:	ea4f 1606 	mov.w	r6, r6, lsl #4
 8000ac6:	ea4f 03c3 	mov.w	r3, r3, lsl #3
 8000aca:	ea43 7352 	orr.w	r3, r3, r2, lsr #29
 8000ace:	ea4f 02c2 	mov.w	r2, r2, lsl #3
 8000ad2:	ea5f 1c1c 	movs.w	ip, ip, lsr #4
 8000ad6:	d1c0      	bne.n	8000a5a <__aeabi_ddiv+0x82>
 8000ad8:	f411 1f80 	tst.w	r1, #1048576	@ 0x100000
 8000adc:	d10b      	bne.n	8000af6 <__aeabi_ddiv+0x11e>
 8000ade:	ea41 0100 	orr.w	r1, r1, r0
 8000ae2:	f04f 0000 	mov.w	r0, #0
 8000ae6:	f04f 4c00 	mov.w	ip, #2147483648	@ 0x80000000
 8000aea:	e7b6      	b.n	8000a5a <__aeabi_ddiv+0x82>
 8000aec:	f411 1f80 	tst.w	r1, #1048576	@ 0x100000
 8000af0:	bf04      	itt	eq
 8000af2:	4301      	orreq	r1, r0
 8000af4:	2000      	moveq	r0, #0
 8000af6:	f1b4 0cfd 	subs.w	ip, r4, #253	@ 0xfd
 8000afa:	bf88      	it	hi
 8000afc:	f5bc 6fe0 	cmphi.w	ip, #1792	@ 0x700
 8000b00:	f63f aeaf 	bhi.w	8000862 <__aeabi_dmul+0xde>
 8000b04:	ebb5 0c03 	subs.w	ip, r5, r3
 8000b08:	bf04      	itt	eq
 8000b0a:	ebb6 0c02 	subseq.w	ip, r6, r2
 8000b0e:	ea5f 0c50 	movseq.w	ip, r0, lsr #1
 8000b12:	f150 0000 	adcs.w	r0, r0, #0
 8000b16:	eb41 5104 	adc.w	r1, r1, r4, lsl #20
 8000b1a:	bd70      	pop	{r4, r5, r6, pc}
 8000b1c:	f00e 4e00 	and.w	lr, lr, #2147483648	@ 0x80000000
 8000b20:	ea4e 3111 	orr.w	r1, lr, r1, lsr #12
 8000b24:	eb14 045c 	adds.w	r4, r4, ip, lsr #1
 8000b28:	bfc2      	ittt	gt
 8000b2a:	ebd4 050c 	rsbsgt	r5, r4, ip
 8000b2e:	ea41 5104 	orrgt.w	r1, r1, r4, lsl #20
 8000b32:	bd70      	popgt	{r4, r5, r6, pc}
 8000b34:	f441 1180 	orr.w	r1, r1, #1048576	@ 0x100000
 8000b38:	f04f 0e00 	mov.w	lr, #0
 8000b3c:	3c01      	subs	r4, #1
 8000b3e:	e690      	b.n	8000862 <__aeabi_dmul+0xde>
 8000b40:	ea45 0e06 	orr.w	lr, r5, r6
 8000b44:	e68d      	b.n	8000862 <__aeabi_dmul+0xde>
 8000b46:	ea0c 5513 	and.w	r5, ip, r3, lsr #20
 8000b4a:	ea94 0f0c 	teq	r4, ip
 8000b4e:	bf08      	it	eq
 8000b50:	ea95 0f0c 	teqeq	r5, ip
 8000b54:	f43f af3b 	beq.w	80009ce <__aeabi_dmul+0x24a>
 8000b58:	ea94 0f0c 	teq	r4, ip
 8000b5c:	d10a      	bne.n	8000b74 <__aeabi_ddiv+0x19c>
 8000b5e:	ea50 3401 	orrs.w	r4, r0, r1, lsl #12
 8000b62:	f47f af34 	bne.w	80009ce <__aeabi_dmul+0x24a>
 8000b66:	ea95 0f0c 	teq	r5, ip
 8000b6a:	f47f af25 	bne.w	80009b8 <__aeabi_dmul+0x234>
 8000b6e:	4610      	mov	r0, r2
 8000b70:	4619      	mov	r1, r3
 8000b72:	e72c      	b.n	80009ce <__aeabi_dmul+0x24a>
 8000b74:	ea95 0f0c 	teq	r5, ip
 8000b78:	d106      	bne.n	8000b88 <__aeabi_ddiv+0x1b0>
 8000b7a:	ea52 3503 	orrs.w	r5, r2, r3, lsl #12
 8000b7e:	f43f aefd 	beq.w	800097c <__aeabi_dmul+0x1f8>
 8000b82:	4610      	mov	r0, r2
 8000b84:	4619      	mov	r1, r3
 8000b86:	e722      	b.n	80009ce <__aeabi_dmul+0x24a>
 8000b88:	ea50 0641 	orrs.w	r6, r0, r1, lsl #1
 8000b8c:	bf18      	it	ne
 8000b8e:	ea52 0643 	orrsne.w	r6, r2, r3, lsl #1
 8000b92:	f47f aec5 	bne.w	8000920 <__aeabi_dmul+0x19c>
 8000b96:	ea50 0441 	orrs.w	r4, r0, r1, lsl #1
 8000b9a:	f47f af0d 	bne.w	80009b8 <__aeabi_dmul+0x234>
 8000b9e:	ea52 0543 	orrs.w	r5, r2, r3, lsl #1
 8000ba2:	f47f aeeb 	bne.w	800097c <__aeabi_dmul+0x1f8>
 8000ba6:	e712      	b.n	80009ce <__aeabi_dmul+0x24a>

08000ba8 <__gedf2>:
 8000ba8:	f04f 3cff 	mov.w	ip, #4294967295	@ 0xffffffff
 8000bac:	e006      	b.n	8000bbc <__cmpdf2+0x4>
 8000bae:	bf00      	nop

08000bb0 <__ledf2>:
 8000bb0:	f04f 0c01 	mov.w	ip, #1
 8000bb4:	e002      	b.n	8000bbc <__cmpdf2+0x4>
 8000bb6:	bf00      	nop

08000bb8 <__cmpdf2>:
 8000bb8:	f04f 0c01 	mov.w	ip, #1
 8000bbc:	f84d cd04 	str.w	ip, [sp, #-4]!
 8000bc0:	ea4f 0c41 	mov.w	ip, r1, lsl #1
 8000bc4:	ea7f 5c6c 	mvns.w	ip, ip, asr #21
 8000bc8:	ea4f 0c43 	mov.w	ip, r3, lsl #1
 8000bcc:	bf18      	it	ne
 8000bce:	ea7f 5c6c 	mvnsne.w	ip, ip, asr #21
 8000bd2:	d01b      	beq.n	8000c0c <__cmpdf2+0x54>
 8000bd4:	b001      	add	sp, #4
 8000bd6:	ea50 0c41 	orrs.w	ip, r0, r1, lsl #1
 8000bda:	bf0c      	ite	eq
 8000bdc:	ea52 0c43 	orrseq.w	ip, r2, r3, lsl #1
 8000be0:	ea91 0f03 	teqne	r1, r3
 8000be4:	bf02      	ittt	eq
 8000be6:	ea90 0f02 	teqeq	r0, r2
 8000bea:	2000      	moveq	r0, #0
 8000bec:	4770      	bxeq	lr
 8000bee:	f110 0f00 	cmn.w	r0, #0
 8000bf2:	ea91 0f03 	teq	r1, r3
 8000bf6:	bf58      	it	pl
 8000bf8:	4299      	cmppl	r1, r3
 8000bfa:	bf08      	it	eq
 8000bfc:	4290      	cmpeq	r0, r2
 8000bfe:	bf2c      	ite	cs
 8000c00:	17d8      	asrcs	r0, r3, #31
 8000c02:	ea6f 70e3 	mvncc.w	r0, r3, asr #31
 8000c06:	f040 0001 	orr.w	r0, r0, #1
 8000c0a:	4770      	bx	lr
 8000c0c:	ea4f 0c41 	mov.w	ip, r1, lsl #1
 8000c10:	ea7f 5c6c 	mvns.w	ip, ip, asr #21
 8000c14:	d102      	bne.n	8000c1c <__cmpdf2+0x64>
 8000c16:	ea50 3c01 	orrs.w	ip, r0, r1, lsl #12
 8000c1a:	d107      	bne.n	8000c2c <__cmpdf2+0x74>
 8000c1c:	ea4f 0c43 	mov.w	ip, r3, lsl #1
 8000c20:	ea7f 5c6c 	mvns.w	ip, ip, asr #21
 8000c24:	d1d6      	bne.n	8000bd4 <__cmpdf2+0x1c>
 8000c26:	ea52 3c03 	orrs.w	ip, r2, r3, lsl #12
 8000c2a:	d0d3      	beq.n	8000bd4 <__cmpdf2+0x1c>
 8000c2c:	f85d 0b04 	ldr.w	r0, [sp], #4
 8000c30:	4770      	bx	lr
 8000c32:	bf00      	nop

08000c34 <__aeabi_cdrcmple>:
 8000c34:	4684      	mov	ip, r0
 8000c36:	4610      	mov	r0, r2
 8000c38:	4662      	mov	r2, ip
 8000c3a:	468c      	mov	ip, r1
 8000c3c:	4619      	mov	r1, r3
 8000c3e:	4663      	mov	r3, ip
 8000c40:	e000      	b.n	8000c44 <__aeabi_cdcmpeq>
 8000c42:	bf00      	nop

08000c44 <__aeabi_cdcmpeq>:
 8000c44:	b501      	push	{r0, lr}
 8000c46:	f7ff ffb7 	bl	8000bb8 <__cmpdf2>
 8000c4a:	2800      	cmp	r0, #0
 8000c4c:	bf48      	it	mi
 8000c4e:	f110 0f00 	cmnmi.w	r0, #0
 8000c52:	bd01      	pop	{r0, pc}

08000c54 <__aeabi_dcmpeq>:
 8000c54:	f84d ed08 	str.w	lr, [sp, #-8]!
 8000c58:	f7ff fff4 	bl	8000c44 <__aeabi_cdcmpeq>
 8000c5c:	bf0c      	ite	eq
 8000c5e:	2001      	moveq	r0, #1
 8000c60:	2000      	movne	r0, #0
 8000c62:	f85d fb08 	ldr.w	pc, [sp], #8
 8000c66:	bf00      	nop

08000c68 <__aeabi_dcmplt>:
 8000c68:	f84d ed08 	str.w	lr, [sp, #-8]!
 8000c6c:	f7ff ffea 	bl	8000c44 <__aeabi_cdcmpeq>
 8000c70:	bf34      	ite	cc
 8000c72:	2001      	movcc	r0, #1
 8000c74:	2000      	movcs	r0, #0
 8000c76:	f85d fb08 	ldr.w	pc, [sp], #8
 8000c7a:	bf00      	nop

08000c7c <__aeabi_dcmple>:
 8000c7c:	f84d ed08 	str.w	lr, [sp, #-8]!
 8000c80:	f7ff ffe0 	bl	8000c44 <__aeabi_cdcmpeq>
 8000c84:	bf94      	ite	ls
 8000c86:	2001      	movls	r0, #1
 8000c88:	2000      	movhi	r0, #0
 8000c8a:	f85d fb08 	ldr.w	pc, [sp], #8
 8000c8e:	bf00      	nop

08000c90 <__aeabi_dcmpge>:
 8000c90:	f84d ed08 	str.w	lr, [sp, #-8]!
 8000c94:	f7ff ffce 	bl	8000c34 <__aeabi_cdrcmple>
 8000c98:	bf94      	ite	ls
 8000c9a:	2001      	movls	r0, #1
 8000c9c:	2000      	movhi	r0, #0
 8000c9e:	f85d fb08 	ldr.w	pc, [sp], #8
 8000ca2:	bf00      	nop

08000ca4 <__aeabi_dcmpgt>:
 8000ca4:	f84d ed08 	str.w	lr, [sp, #-8]!
 8000ca8:	f7ff ffc4 	bl	8000c34 <__aeabi_cdrcmple>
 8000cac:	bf34      	ite	cc
 8000cae:	2001      	movcc	r0, #1
 8000cb0:	2000      	movcs	r0, #0
 8000cb2:	f85d fb08 	ldr.w	pc, [sp], #8
 8000cb6:	bf00      	nop

08000cb8 <__aeabi_dcmpun>:
 8000cb8:	ea4f 0c41 	mov.w	ip, r1, lsl #1
 8000cbc:	ea7f 5c6c 	mvns.w	ip, ip, asr #21
 8000cc0:	d102      	bne.n	8000cc8 <__aeabi_dcmpun+0x10>
 8000cc2:	ea50 3c01 	orrs.w	ip, r0, r1, lsl #12
 8000cc6:	d10a      	bne.n	8000cde <__aeabi_dcmpun+0x26>
 8000cc8:	ea4f 0c43 	mov.w	ip, r3, lsl #1
 8000ccc:	ea7f 5c6c 	mvns.w	ip, ip, asr #21
 8000cd0:	d102      	bne.n	8000cd8 <__aeabi_dcmpun+0x20>
 8000cd2:	ea52 3c03 	orrs.w	ip, r2, r3, lsl #12
 8000cd6:	d102      	bne.n	8000cde <__aeabi_dcmpun+0x26>
 8000cd8:	f04f 0000 	mov.w	r0, #0
 8000cdc:	4770      	bx	lr
 8000cde:	f04f 0001 	mov.w	r0, #1
 8000ce2:	4770      	bx	lr

08000ce4 <__aeabi_d2iz>:
 8000ce4:	ea4f 0241 	mov.w	r2, r1, lsl #1
 8000ce8:	f512 1200 	adds.w	r2, r2, #2097152	@ 0x200000
 8000cec:	d215      	bcs.n	8000d1a <__aeabi_d2iz+0x36>
 8000cee:	d511      	bpl.n	8000d14 <__aeabi_d2iz+0x30>
 8000cf0:	f46f 7378 	mvn.w	r3, #992	@ 0x3e0
 8000cf4:	ebb3 5262 	subs.w	r2, r3, r2, asr #21
 8000cf8:	d912      	bls.n	8000d20 <__aeabi_d2iz+0x3c>
 8000cfa:	ea4f 23c1 	mov.w	r3, r1, lsl #11
 8000cfe:	f043 4300 	orr.w	r3, r3, #2147483648	@ 0x80000000
 8000d02:	ea43 5350 	orr.w	r3, r3, r0, lsr #21
 8000d06:	f011 4f00 	tst.w	r1, #2147483648	@ 0x80000000
 8000d0a:	fa23 f002 	lsr.w	r0, r3, r2
 8000d0e:	bf18      	it	ne
 8000d10:	4240      	negne	r0, r0
 8000d12:	4770      	bx	lr
 8000d14:	f04f 0000 	mov.w	r0, #0
 8000d18:	4770      	bx	lr
 8000d1a:	ea50 3001 	orrs.w	r0, r0, r1, lsl #12
 8000d1e:	d105      	bne.n	8000d2c <__aeabi_d2iz+0x48>
 8000d20:	f011 4000 	ands.w	r0, r1, #2147483648	@ 0x80000000
 8000d24:	bf08      	it	eq
 8000d26:	f06f 4000 	mvneq.w	r0, #2147483648	@ 0x80000000
 8000d2a:	4770      	bx	lr
 8000d2c:	f04f 0000 	mov.w	r0, #0
 8000d30:	4770      	bx	lr
 8000d32:	bf00      	nop

08000d34 <__aeabi_frsub>:
 8000d34:	f080 4000 	eor.w	r0, r0, #2147483648	@ 0x80000000
 8000d38:	e002      	b.n	8000d40 <__addsf3>
 8000d3a:	bf00      	nop

08000d3c <__aeabi_fsub>:
 8000d3c:	f081 4100 	eor.w	r1, r1, #2147483648	@ 0x80000000

08000d40 <__addsf3>:
 8000d40:	0042      	lsls	r2, r0, #1
 8000d42:	bf1f      	itttt	ne
 8000d44:	ea5f 0341 	movsne.w	r3, r1, lsl #1
 8000d48:	ea92 0f03 	teqne	r2, r3
 8000d4c:	ea7f 6c22 	mvnsne.w	ip, r2, asr #24
 8000d50:	ea7f 6c23 	mvnsne.w	ip, r3, asr #24
 8000d54:	d06a      	beq.n	8000e2c <__addsf3+0xec>
 8000d56:	ea4f 6212 	mov.w	r2, r2, lsr #24
 8000d5a:	ebd2 6313 	rsbs	r3, r2, r3, lsr #24
 8000d5e:	bfc1      	itttt	gt
 8000d60:	18d2      	addgt	r2, r2, r3
 8000d62:	4041      	eorgt	r1, r0
 8000d64:	4048      	eorgt	r0, r1
 8000d66:	4041      	eorgt	r1, r0
 8000d68:	bfb8      	it	lt
 8000d6a:	425b      	neglt	r3, r3
 8000d6c:	2b19      	cmp	r3, #25
 8000d6e:	bf88      	it	hi
 8000d70:	4770      	bxhi	lr
 8000d72:	f010 4f00 	tst.w	r0, #2147483648	@ 0x80000000
 8000d76:	f440 0000 	orr.w	r0, r0, #8388608	@ 0x800000
 8000d7a:	f020 407f 	bic.w	r0, r0, #4278190080	@ 0xff000000
 8000d7e:	bf18      	it	ne
 8000d80:	4240      	negne	r0, r0
 8000d82:	f011 4f00 	tst.w	r1, #2147483648	@ 0x80000000
 8000d86:	f441 0100 	orr.w	r1, r1, #8388608	@ 0x800000
 8000d8a:	f021 417f 	bic.w	r1, r1, #4278190080	@ 0xff000000
 8000d8e:	bf18      	it	ne
 8000d90:	4249      	negne	r1, r1
 8000d92:	ea92 0f03 	teq	r2, r3
 8000d96:	d03f      	beq.n	8000e18 <__addsf3+0xd8>
 8000d98:	f1a2 0201 	sub.w	r2, r2, #1
 8000d9c:	fa41 fc03 	asr.w	ip, r1, r3
 8000da0:	eb10 000c 	adds.w	r0, r0, ip
 8000da4:	f1c3 0320 	rsb	r3, r3, #32
 8000da8:	fa01 f103 	lsl.w	r1, r1, r3
 8000dac:	f000 4300 	and.w	r3, r0, #2147483648	@ 0x80000000
 8000db0:	d502      	bpl.n	8000db8 <__addsf3+0x78>
 8000db2:	4249      	negs	r1, r1
 8000db4:	eb60 0040 	sbc.w	r0, r0, r0, lsl #1
 8000db8:	f5b0 0f00 	cmp.w	r0, #8388608	@ 0x800000
 8000dbc:	d313      	bcc.n	8000de6 <__addsf3+0xa6>
 8000dbe:	f1b0 7f80 	cmp.w	r0, #16777216	@ 0x1000000
 8000dc2:	d306      	bcc.n	8000dd2 <__addsf3+0x92>
 8000dc4:	0840      	lsrs	r0, r0, #1
 8000dc6:	ea4f 0131 	mov.w	r1, r1, rrx
 8000dca:	f102 0201 	add.w	r2, r2, #1
 8000dce:	2afe      	cmp	r2, #254	@ 0xfe
 8000dd0:	d251      	bcs.n	8000e76 <__addsf3+0x136>
 8000dd2:	f1b1 4f00 	cmp.w	r1, #2147483648	@ 0x80000000
 8000dd6:	eb40 50c2 	adc.w	r0, r0, r2, lsl #23
 8000dda:	bf08      	it	eq
 8000ddc:	f020 0001 	biceq.w	r0, r0, #1
 8000de0:	ea40 0003 	orr.w	r0, r0, r3
 8000de4:	4770      	bx	lr
 8000de6:	0049      	lsls	r1, r1, #1
 8000de8:	eb40 0000 	adc.w	r0, r0, r0
 8000dec:	3a01      	subs	r2, #1
 8000dee:	bf28      	it	cs
 8000df0:	f5b0 0f00 	cmpcs.w	r0, #8388608	@ 0x800000
 8000df4:	d2ed      	bcs.n	8000dd2 <__addsf3+0x92>
 8000df6:	fab0 fc80 	clz	ip, r0
 8000dfa:	f1ac 0c08 	sub.w	ip, ip, #8
 8000dfe:	ebb2 020c 	subs.w	r2, r2, ip
 8000e02:	fa00 f00c 	lsl.w	r0, r0, ip
 8000e06:	bfaa      	itet	ge
 8000e08:	eb00 50c2 	addge.w	r0, r0, r2, lsl #23
 8000e0c:	4252      	neglt	r2, r2
 8000e0e:	4318      	orrge	r0, r3
 8000e10:	bfbc      	itt	lt
 8000e12:	40d0      	lsrlt	r0, r2
 8000e14:	4318      	orrlt	r0, r3
 8000e16:	4770      	bx	lr
 8000e18:	f092 0f00 	teq	r2, #0
 8000e1c:	f481 0100 	eor.w	r1, r1, #8388608	@ 0x800000
 8000e20:	bf06      	itte	eq
 8000e22:	f480 0000 	eoreq.w	r0, r0, #8388608	@ 0x800000
 8000e26:	3201      	addeq	r2, #1
 8000e28:	3b01      	subne	r3, #1
 8000e2a:	e7b5      	b.n	8000d98 <__addsf3+0x58>
 8000e2c:	ea4f 0341 	mov.w	r3, r1, lsl #1
 8000e30:	ea7f 6c22 	mvns.w	ip, r2, asr #24
 8000e34:	bf18      	it	ne
 8000e36:	ea7f 6c23 	mvnsne.w	ip, r3, asr #24
 8000e3a:	d021      	beq.n	8000e80 <__addsf3+0x140>
 8000e3c:	ea92 0f03 	teq	r2, r3
 8000e40:	d004      	beq.n	8000e4c <__addsf3+0x10c>
 8000e42:	f092 0f00 	teq	r2, #0
 8000e46:	bf08      	it	eq
 8000e48:	4608      	moveq	r0, r1
 8000e4a:	4770      	bx	lr
 8000e4c:	ea90 0f01 	teq	r0, r1
 8000e50:	bf1c      	itt	ne
 8000e52:	2000      	movne	r0, #0
 8000e54:	4770      	bxne	lr
 8000e56:	f012 4f7f 	tst.w	r2, #4278190080	@ 0xff000000
 8000e5a:	d104      	bne.n	8000e66 <__addsf3+0x126>
 8000e5c:	0040      	lsls	r0, r0, #1
 8000e5e:	bf28      	it	cs
 8000e60:	f040 4000 	orrcs.w	r0, r0, #2147483648	@ 0x80000000
 8000e64:	4770      	bx	lr
 8000e66:	f112 7200 	adds.w	r2, r2, #33554432	@ 0x2000000
 8000e6a:	bf3c      	itt	cc
 8000e6c:	f500 0000 	addcc.w	r0, r0, #8388608	@ 0x800000
 8000e70:	4770      	bxcc	lr
 8000e72:	f000 4300 	and.w	r3, r0, #2147483648	@ 0x80000000
 8000e76:	f043 40fe 	orr.w	r0, r3, #2130706432	@ 0x7f000000
 8000e7a:	f440 0000 	orr.w	r0, r0, #8388608	@ 0x800000
 8000e7e:	4770      	bx	lr
 8000e80:	ea7f 6222 	mvns.w	r2, r2, asr #24
 8000e84:	bf16      	itet	ne
 8000e86:	4608      	movne	r0, r1
 8000e88:	ea7f 6323 	mvnseq.w	r3, r3, asr #24
 8000e8c:	4601      	movne	r1, r0
 8000e8e:	0242      	lsls	r2, r0, #9
 8000e90:	bf06      	itte	eq
 8000e92:	ea5f 2341 	movseq.w	r3, r1, lsl #9
 8000e96:	ea90 0f01 	teqeq	r0, r1
 8000e9a:	f440 0080 	orrne.w	r0, r0, #4194304	@ 0x400000
 8000e9e:	4770      	bx	lr

08000ea0 <__aeabi_ui2f>:
 8000ea0:	f04f 0300 	mov.w	r3, #0
 8000ea4:	e004      	b.n	8000eb0 <__aeabi_i2f+0x8>
 8000ea6:	bf00      	nop

08000ea8 <__aeabi_i2f>:
 8000ea8:	f010 4300 	ands.w	r3, r0, #2147483648	@ 0x80000000
 8000eac:	bf48      	it	mi
 8000eae:	4240      	negmi	r0, r0
 8000eb0:	ea5f 0c00 	movs.w	ip, r0
 8000eb4:	bf08      	it	eq
 8000eb6:	4770      	bxeq	lr
 8000eb8:	f043 4396 	orr.w	r3, r3, #1258291200	@ 0x4b000000
 8000ebc:	4601      	mov	r1, r0
 8000ebe:	f04f 0000 	mov.w	r0, #0
 8000ec2:	e01c      	b.n	8000efe <__aeabi_l2f+0x2a>

08000ec4 <__aeabi_ul2f>:
 8000ec4:	ea50 0201 	orrs.w	r2, r0, r1
 8000ec8:	bf08      	it	eq
 8000eca:	4770      	bxeq	lr
 8000ecc:	f04f 0300 	mov.w	r3, #0
 8000ed0:	e00a      	b.n	8000ee8 <__aeabi_l2f+0x14>
 8000ed2:	bf00      	nop

08000ed4 <__aeabi_l2f>:
 8000ed4:	ea50 0201 	orrs.w	r2, r0, r1
 8000ed8:	bf08      	it	eq
 8000eda:	4770      	bxeq	lr
 8000edc:	f011 4300 	ands.w	r3, r1, #2147483648	@ 0x80000000
 8000ee0:	d502      	bpl.n	8000ee8 <__aeabi_l2f+0x14>
 8000ee2:	4240      	negs	r0, r0
 8000ee4:	eb61 0141 	sbc.w	r1, r1, r1, lsl #1
 8000ee8:	ea5f 0c01 	movs.w	ip, r1
 8000eec:	bf02      	ittt	eq
 8000eee:	4684      	moveq	ip, r0
 8000ef0:	4601      	moveq	r1, r0
 8000ef2:	2000      	moveq	r0, #0
 8000ef4:	f043 43b6 	orr.w	r3, r3, #1526726656	@ 0x5b000000
 8000ef8:	bf08      	it	eq
 8000efa:	f1a3 5380 	subeq.w	r3, r3, #268435456	@ 0x10000000
 8000efe:	f5a3 0300 	sub.w	r3, r3, #8388608	@ 0x800000
 8000f02:	fabc f28c 	clz	r2, ip
 8000f06:	3a08      	subs	r2, #8
 8000f08:	eba3 53c2 	sub.w	r3, r3, r2, lsl #23
 8000f0c:	db10      	blt.n	8000f30 <__aeabi_l2f+0x5c>
 8000f0e:	fa01 fc02 	lsl.w	ip, r1, r2
 8000f12:	4463      	add	r3, ip
 8000f14:	fa00 fc02 	lsl.w	ip, r0, r2
 8000f18:	f1c2 0220 	rsb	r2, r2, #32
 8000f1c:	f1bc 4f00 	cmp.w	ip, #2147483648	@ 0x80000000
 8000f20:	fa20 f202 	lsr.w	r2, r0, r2
 8000f24:	eb43 0002 	adc.w	r0, r3, r2
 8000f28:	bf08      	it	eq
 8000f2a:	f020 0001 	biceq.w	r0, r0, #1
 8000f2e:	4770      	bx	lr
 8000f30:	f102 0220 	add.w	r2, r2, #32
 8000f34:	fa01 fc02 	lsl.w	ip, r1, r2
 8000f38:	f1c2 0220 	rsb	r2, r2, #32
 8000f3c:	ea50 004c 	orrs.w	r0, r0, ip, lsl #1
 8000f40:	fa21 f202 	lsr.w	r2, r1, r2
 8000f44:	eb43 0002 	adc.w	r0, r3, r2
 8000f48:	bf08      	it	eq
 8000f4a:	ea20 70dc 	biceq.w	r0, r0, ip, lsr #31
 8000f4e:	4770      	bx	lr

08000f50 <finished_transmission>:
#endif



// Optional visual delay after transmission
void finished_transmission(uint32_t bytes_sent) {
 8000f50:	b480      	push	{r7}
 8000f52:	b085      	sub	sp, #20
 8000f54:	af00      	add	r7, sp, #0
 8000f56:	6078      	str	r0, [r7, #4]
    for (volatile uint32_t i = 0; i < 0x3fffff; i++) { }
 8000f58:	2300      	movs	r3, #0
 8000f5a:	60fb      	str	r3, [r7, #12]
 8000f5c:	e002      	b.n	8000f64 <finished_transmission+0x14>
 8000f5e:	68fb      	ldr	r3, [r7, #12]
 8000f60:	3301      	adds	r3, #1
 8000f62:	60fb      	str	r3, [r7, #12]
 8000f64:	68fb      	ldr	r3, [r7, #12]
 8000f66:	4a04      	ldr	r2, [pc, #16]	@ (8000f78 <finished_transmission+0x28>)
 8000f68:	4293      	cmp	r3, r2
 8000f6a:	d9f8      	bls.n	8000f5e <finished_transmission+0xe>
}
 8000f6c:	bf00      	nop
 8000f6e:	bf00      	nop
 8000f70:	3714      	adds	r7, #20
 8000f72:	46bd      	mov	sp, r7
 8000f74:	bc80      	pop	{r7}
 8000f76:	4770      	bx	lr
 8000f78:	003ffffe 	.word	0x003ffffe

08000f7c <main>:
void ShapeDemo();
int is_start_command(char *input);//  Function to check if input is the command "start"


int main(void)
{
 8000f7c:	b580      	push	{r7, lr}
 8000f7e:	af00      	add	r7, sp, #0
	SerialInitialise(BAUD_115200, &USART1_PORT, &finished_transmission);
 8000f80:	4a07      	ldr	r2, [pc, #28]	@ (8000fa0 <main+0x24>)
 8000f82:	4908      	ldr	r1, [pc, #32]	@ (8000fa4 <main+0x28>)
 8000f84:	2004      	movs	r0, #4
 8000f86:	f000 fa01 	bl	800138c <SerialInitialise>
	setupNVIC();
 8000f8a:	f000 fa99 	bl	80014c0 <setupNVIC>

//	/* Loop forever */
	while(1){
		__WFI();
 8000f8e:	bf30      	wfi
		if (start_flag == 1){
 8000f90:	4b05      	ldr	r3, [pc, #20]	@ (8000fa8 <main+0x2c>)
 8000f92:	781b      	ldrb	r3, [r3, #0]
 8000f94:	2b01      	cmp	r3, #1
 8000f96:	d1fa      	bne.n	8000f8e <main+0x12>
			ShapeDemo();
 8000f98:	f000 f808 	bl	8000fac <ShapeDemo>
		__WFI();
 8000f9c:	e7f7      	b.n	8000f8e <main+0x12>
 8000f9e:	bf00      	nop
 8000fa0:	08000f51 	.word	0x08000f51
 8000fa4:	20000004 	.word	0x20000004
 8000fa8:	200002a0 	.word	0x200002a0

08000fac <ShapeDemo>:
}




void ShapeDemo(void) {
 8000fac:	b5b0      	push	{r4, r5, r7, lr}
 8000fae:	b0f4      	sub	sp, #464	@ 0x1d0
 8000fb0:	af00      	add	r7, sp, #0

	struct shape shape_1 = generate_shape(SHAPE_SPHERE, 5, 5);
 8000fb2:	f507 70d6 	add.w	r0, r7, #428	@ 0x1ac
 8000fb6:	2305      	movs	r3, #5
 8000fb8:	2205      	movs	r2, #5
 8000fba:	2100      	movs	r1, #0
 8000fbc:	f000 fc1c 	bl	80017f8 <generate_shape>

	struct shape shape_array[16];

	uint8_t string_buffer[64];

	shape_string(&shape_1, &string_buffer[0]);
 8000fc0:	f107 0218 	add.w	r2, r7, #24
 8000fc4:	f507 73d6 	add.w	r3, r7, #428	@ 0x1ac
 8000fc8:	4611      	mov	r1, r2
 8000fca:	4618      	mov	r0, r3
 8000fcc:	f000 fc5a 	bl	8001884 <shape_string>
	SerialOutputStringDB(&string_buffer[0], &USART1_PORT);
 8000fd0:	f107 0318 	add.w	r3, r7, #24
 8000fd4:	498c      	ldr	r1, [pc, #560]	@ (8001208 <ShapeDemo+0x25c>)
 8000fd6:	4618      	mov	r0, r3
 8000fd8:	f000 fbb2 	bl	8001740 <SerialOutputStringDB>

	shape_string(&shape_2, &string_buffer[0]);
 8000fdc:	f107 0218 	add.w	r2, r7, #24
 8000fe0:	f507 73cc 	add.w	r3, r7, #408	@ 0x198
 8000fe4:	4611      	mov	r1, r2
 8000fe6:	4618      	mov	r0, r3
 8000fe8:	f000 fc4c 	bl	8001884 <shape_string>
	SerialOutputStringDB(&string_buffer[0], &USART1_PORT);
 8000fec:	f107 0318 	add.w	r3, r7, #24
 8000ff0:	4985      	ldr	r1, [pc, #532]	@ (8001208 <ShapeDemo+0x25c>)
 8000ff2:	4618      	mov	r0, r3
 8000ff4:	f000 fba4 	bl	8001740 <SerialOutputStringDB>

	shape_3 = (struct shape*)malloc(sizeof(struct shape));
 8000ff8:	2014      	movs	r0, #20
 8000ffa:	f001 f85d 	bl	80020b8 <malloc>
 8000ffe:	4603      	mov	r3, r0
 8001000:	f8c7 31c0 	str.w	r3, [r7, #448]	@ 0x1c0
	shape_string(shape_3, &string_buffer[0]);
 8001004:	f107 0318 	add.w	r3, r7, #24
 8001008:	4619      	mov	r1, r3
 800100a:	f8d7 01c0 	ldr.w	r0, [r7, #448]	@ 0x1c0
 800100e:	f000 fc39 	bl	8001884 <shape_string>
	SerialOutputStringDB(&string_buffer[0], &USART1_PORT);
 8001012:	f107 0318 	add.w	r3, r7, #24
 8001016:	497c      	ldr	r1, [pc, #496]	@ (8001208 <ShapeDemo+0x25c>)
 8001018:	4618      	mov	r0, r3
 800101a:	f000 fb91 	bl	8001740 <SerialOutputStringDB>

	*shape_3 = generate_shape(SHAPE_CONE, 6,3);
 800101e:	f8d7 41c0 	ldr.w	r4, [r7, #448]	@ 0x1c0
 8001022:	4638      	mov	r0, r7
 8001024:	2303      	movs	r3, #3
 8001026:	2206      	movs	r2, #6
 8001028:	2102      	movs	r1, #2
 800102a:	f000 fbe5 	bl	80017f8 <generate_shape>
 800102e:	f507 73e8 	add.w	r3, r7, #464	@ 0x1d0
 8001032:	f5a3 73e8 	sub.w	r3, r3, #464	@ 0x1d0
 8001036:	461d      	mov	r5, r3
 8001038:	cd0f      	ldmia	r5!, {r0, r1, r2, r3}
 800103a:	c40f      	stmia	r4!, {r0, r1, r2, r3}
 800103c:	682b      	ldr	r3, [r5, #0]
 800103e:	6023      	str	r3, [r4, #0]
	shape_string(shape_3, &string_buffer[0]);
 8001040:	f107 0318 	add.w	r3, r7, #24
 8001044:	4619      	mov	r1, r3
 8001046:	f8d7 01c0 	ldr.w	r0, [r7, #448]	@ 0x1c0
 800104a:	f000 fc1b 	bl	8001884 <shape_string>
	SerialOutputStringDB(&string_buffer[0], &USART1_PORT);
 800104e:	f107 0318 	add.w	r3, r7, #24
 8001052:	496d      	ldr	r1, [pc, #436]	@ (8001208 <ShapeDemo+0x25c>)
 8001054:	4618      	mov	r0, r3
 8001056:	f000 fb73 	bl	8001740 <SerialOutputStringDB>


	for (uint32_t counter = 0; counter < NUMBER_OF_SHAPES; counter++) {
 800105a:	2300      	movs	r3, #0
 800105c:	f8c7 31cc 	str.w	r3, [r7, #460]	@ 0x1cc
 8001060:	e049      	b.n	80010f6 <ShapeDemo+0x14a>
		if (initialise_shape(&shape_array[counter], counter % 3, 3, 4)) {
 8001062:	f107 0158 	add.w	r1, r7, #88	@ 0x58
 8001066:	f8d7 21cc 	ldr.w	r2, [r7, #460]	@ 0x1cc
 800106a:	4613      	mov	r3, r2
 800106c:	009b      	lsls	r3, r3, #2
 800106e:	4413      	add	r3, r2
 8001070:	009b      	lsls	r3, r3, #2
 8001072:	18c8      	adds	r0, r1, r3
 8001074:	f8d7 21cc 	ldr.w	r2, [r7, #460]	@ 0x1cc
 8001078:	4b64      	ldr	r3, [pc, #400]	@ (800120c <ShapeDemo+0x260>)
 800107a:	fba3 1302 	umull	r1, r3, r3, r2
 800107e:	0859      	lsrs	r1, r3, #1
 8001080:	460b      	mov	r3, r1
 8001082:	005b      	lsls	r3, r3, #1
 8001084:	440b      	add	r3, r1
 8001086:	1ad1      	subs	r1, r2, r3
 8001088:	2304      	movs	r3, #4
 800108a:	2203      	movs	r2, #3
 800108c:	f000 fbd4 	bl	8001838 <initialise_shape>
 8001090:	4603      	mov	r3, r0
 8001092:	2b00      	cmp	r3, #0
 8001094:	d015      	beq.n	80010c2 <ShapeDemo+0x116>
			shape_string(&shape_array[counter], &string_buffer[0]);
 8001096:	f107 0158 	add.w	r1, r7, #88	@ 0x58
 800109a:	f8d7 21cc 	ldr.w	r2, [r7, #460]	@ 0x1cc
 800109e:	4613      	mov	r3, r2
 80010a0:	009b      	lsls	r3, r3, #2
 80010a2:	4413      	add	r3, r2
 80010a4:	009b      	lsls	r3, r3, #2
 80010a6:	440b      	add	r3, r1
 80010a8:	f107 0218 	add.w	r2, r7, #24
 80010ac:	4611      	mov	r1, r2
 80010ae:	4618      	mov	r0, r3
 80010b0:	f000 fbe8 	bl	8001884 <shape_string>
			SerialOutputStringDB(&string_buffer[0], &USART1_PORT);
 80010b4:	f107 0318 	add.w	r3, r7, #24
 80010b8:	4953      	ldr	r1, [pc, #332]	@ (8001208 <ShapeDemo+0x25c>)
 80010ba:	4618      	mov	r0, r3
 80010bc:	f000 fb40 	bl	8001740 <SerialOutputStringDB>
 80010c0:	e014      	b.n	80010ec <ShapeDemo+0x140>
		} else {
			shape_string(&shape_array[counter], &string_buffer[0]);
 80010c2:	f107 0158 	add.w	r1, r7, #88	@ 0x58
 80010c6:	f8d7 21cc 	ldr.w	r2, [r7, #460]	@ 0x1cc
 80010ca:	4613      	mov	r3, r2
 80010cc:	009b      	lsls	r3, r3, #2
 80010ce:	4413      	add	r3, r2
 80010d0:	009b      	lsls	r3, r3, #2
 80010d2:	440b      	add	r3, r1
 80010d4:	f107 0218 	add.w	r2, r7, #24
 80010d8:	4611      	mov	r1, r2
 80010da:	4618      	mov	r0, r3
 80010dc:	f000 fbd2 	bl	8001884 <shape_string>
			SerialOutputStringDB(&string_buffer[0], &USART1_PORT);
 80010e0:	f107 0318 	add.w	r3, r7, #24
 80010e4:	4948      	ldr	r1, [pc, #288]	@ (8001208 <ShapeDemo+0x25c>)
 80010e6:	4618      	mov	r0, r3
 80010e8:	f000 fb2a 	bl	8001740 <SerialOutputStringDB>
	for (uint32_t counter = 0; counter < NUMBER_OF_SHAPES; counter++) {
 80010ec:	f8d7 31cc 	ldr.w	r3, [r7, #460]	@ 0x1cc
 80010f0:	3301      	adds	r3, #1
 80010f2:	f8c7 31cc 	str.w	r3, [r7, #460]	@ 0x1cc
 80010f6:	2310      	movs	r3, #16
 80010f8:	461a      	mov	r2, r3
 80010fa:	f8d7 31cc 	ldr.w	r3, [r7, #460]	@ 0x1cc
 80010fe:	4293      	cmp	r3, r2
 8001100:	d3af      	bcc.n	8001062 <ShapeDemo+0xb6>
		}
	}

	// slide the shapes
	sprintf(&string_buffer[0], "\nsliding the shapes by 1.5 units\r");
 8001102:	f107 0318 	add.w	r3, r7, #24
 8001106:	4942      	ldr	r1, [pc, #264]	@ (8001210 <ShapeDemo+0x264>)
 8001108:	4618      	mov	r0, r3
 800110a:	f001 fa19 	bl	8002540 <siprintf>
	SerialOutputStringDB(&string_buffer[0], &USART1_PORT);
 800110e:	f107 0318 	add.w	r3, r7, #24
 8001112:	493d      	ldr	r1, [pc, #244]	@ (8001208 <ShapeDemo+0x25c>)
 8001114:	4618      	mov	r0, r3
 8001116:	f000 fb13 	bl	8001740 <SerialOutputStringDB>

	for (uint32_t counter = 0; counter < NUMBER_OF_SHAPES; counter++) {
 800111a:	2300      	movs	r3, #0
 800111c:	f8c7 31c8 	str.w	r3, [r7, #456]	@ 0x1c8
 8001120:	e027      	b.n	8001172 <ShapeDemo+0x1c6>
		slide_shape(&shape_array[counter], 1.5);
 8001122:	f107 0158 	add.w	r1, r7, #88	@ 0x58
 8001126:	f8d7 21c8 	ldr.w	r2, [r7, #456]	@ 0x1c8
 800112a:	4613      	mov	r3, r2
 800112c:	009b      	lsls	r3, r3, #2
 800112e:	4413      	add	r3, r2
 8001130:	009b      	lsls	r3, r3, #2
 8001132:	440b      	add	r3, r1
 8001134:	f04f 517f 	mov.w	r1, #1069547520	@ 0x3fc00000
 8001138:	4618      	mov	r0, r3
 800113a:	f000 f8ce 	bl	80012da <slide_shape>
		shape_string(&shape_array[counter], &string_buffer[0]);
 800113e:	f107 0158 	add.w	r1, r7, #88	@ 0x58
 8001142:	f8d7 21c8 	ldr.w	r2, [r7, #456]	@ 0x1c8
 8001146:	4613      	mov	r3, r2
 8001148:	009b      	lsls	r3, r3, #2
 800114a:	4413      	add	r3, r2
 800114c:	009b      	lsls	r3, r3, #2
 800114e:	440b      	add	r3, r1
 8001150:	f107 0218 	add.w	r2, r7, #24
 8001154:	4611      	mov	r1, r2
 8001156:	4618      	mov	r0, r3
 8001158:	f000 fb94 	bl	8001884 <shape_string>
		SerialOutputStringDB(&string_buffer[0], &USART1_PORT);
 800115c:	f107 0318 	add.w	r3, r7, #24
 8001160:	4929      	ldr	r1, [pc, #164]	@ (8001208 <ShapeDemo+0x25c>)
 8001162:	4618      	mov	r0, r3
 8001164:	f000 faec 	bl	8001740 <SerialOutputStringDB>
	for (uint32_t counter = 0; counter < NUMBER_OF_SHAPES; counter++) {
 8001168:	f8d7 31c8 	ldr.w	r3, [r7, #456]	@ 0x1c8
 800116c:	3301      	adds	r3, #1
 800116e:	f8c7 31c8 	str.w	r3, [r7, #456]	@ 0x1c8
 8001172:	2310      	movs	r3, #16
 8001174:	461a      	mov	r2, r3
 8001176:	f8d7 31c8 	ldr.w	r3, [r7, #456]	@ 0x1c8
 800117a:	4293      	cmp	r3, r2
 800117c:	d3d1      	bcc.n	8001122 <ShapeDemo+0x176>
	}

	// roll the shapes
	sprintf(&string_buffer[0], "\nrolling the shapes by 2.5 units\n");
 800117e:	f107 0318 	add.w	r3, r7, #24
 8001182:	4924      	ldr	r1, [pc, #144]	@ (8001214 <ShapeDemo+0x268>)
 8001184:	4618      	mov	r0, r3
 8001186:	f001 f9db 	bl	8002540 <siprintf>
	SerialOutputStringDB(&string_buffer[0], &USART1_PORT);
 800118a:	f107 0318 	add.w	r3, r7, #24
 800118e:	491e      	ldr	r1, [pc, #120]	@ (8001208 <ShapeDemo+0x25c>)
 8001190:	4618      	mov	r0, r3
 8001192:	f000 fad5 	bl	8001740 <SerialOutputStringDB>
	for (uint32_t counter = 0; counter < NUMBER_OF_SHAPES; counter++) {
 8001196:	2300      	movs	r3, #0
 8001198:	f8c7 31c4 	str.w	r3, [r7, #452]	@ 0x1c4
 800119c:	e026      	b.n	80011ec <ShapeDemo+0x240>
		roll_shape(&shape_array[counter], 2.5);
 800119e:	f107 0158 	add.w	r1, r7, #88	@ 0x58
 80011a2:	f8d7 21c4 	ldr.w	r2, [r7, #452]	@ 0x1c4
 80011a6:	4613      	mov	r3, r2
 80011a8:	009b      	lsls	r3, r3, #2
 80011aa:	4413      	add	r3, r2
 80011ac:	009b      	lsls	r3, r3, #2
 80011ae:	440b      	add	r3, r1
 80011b0:	4919      	ldr	r1, [pc, #100]	@ (8001218 <ShapeDemo+0x26c>)
 80011b2:	4618      	mov	r0, r3
 80011b4:	f000 f874 	bl	80012a0 <roll_shape>
		shape_string(&shape_array[counter], &string_buffer[0]);
 80011b8:	f107 0158 	add.w	r1, r7, #88	@ 0x58
 80011bc:	f8d7 21c4 	ldr.w	r2, [r7, #452]	@ 0x1c4
 80011c0:	4613      	mov	r3, r2
 80011c2:	009b      	lsls	r3, r3, #2
 80011c4:	4413      	add	r3, r2
 80011c6:	009b      	lsls	r3, r3, #2
 80011c8:	440b      	add	r3, r1
 80011ca:	f107 0218 	add.w	r2, r7, #24
 80011ce:	4611      	mov	r1, r2
 80011d0:	4618      	mov	r0, r3
 80011d2:	f000 fb57 	bl	8001884 <shape_string>
		SerialOutputStringDB(&string_buffer[0], &USART1_PORT);
 80011d6:	f107 0318 	add.w	r3, r7, #24
 80011da:	490b      	ldr	r1, [pc, #44]	@ (8001208 <ShapeDemo+0x25c>)
 80011dc:	4618      	mov	r0, r3
 80011de:	f000 faaf 	bl	8001740 <SerialOutputStringDB>
	for (uint32_t counter = 0; counter < NUMBER_OF_SHAPES; counter++) {
 80011e2:	f8d7 31c4 	ldr.w	r3, [r7, #452]	@ 0x1c4
 80011e6:	3301      	adds	r3, #1
 80011e8:	f8c7 31c4 	str.w	r3, [r7, #452]	@ 0x1c4
 80011ec:	2310      	movs	r3, #16
 80011ee:	461a      	mov	r2, r3
 80011f0:	f8d7 31c4 	ldr.w	r3, [r7, #452]	@ 0x1c4
 80011f4:	4293      	cmp	r3, r2
 80011f6:	d3d2      	bcc.n	800119e <ShapeDemo+0x1f2>
	}

	for(;;) {
		SerialOutputStringDB(string_to_send, &USART1_PORT);
 80011f8:	4b08      	ldr	r3, [pc, #32]	@ (800121c <ShapeDemo+0x270>)
 80011fa:	681b      	ldr	r3, [r3, #0]
 80011fc:	4902      	ldr	r1, [pc, #8]	@ (8001208 <ShapeDemo+0x25c>)
 80011fe:	4618      	mov	r0, r3
 8001200:	f000 fa9e 	bl	8001740 <SerialOutputStringDB>
 8001204:	e7f8      	b.n	80011f8 <ShapeDemo+0x24c>
 8001206:	bf00      	nop
 8001208:	20000004 	.word	0x20000004
 800120c:	aaaaaaab 	.word	0xaaaaaaab
 8001210:	080047d4 	.word	0x080047d4
 8001214:	080047f8 	.word	0x080047f8
 8001218:	40200000 	.word	0x40200000
 800121c:	20000000 	.word	0x20000000

08001220 <roll_unit_distance>:
const float SHAPE_SPHERE_MULTIPLIER = 5;
const float SHAPE_CUBE_MULTIPLIER = 1.5;
const float SHAPE_CONE_MULTIPLIER = 0.5;


float roll_unit_distance(struct shape *_shape) {
 8001220:	b580      	push	{r7, lr}
 8001222:	b082      	sub	sp, #8
 8001224:	af00      	add	r7, sp, #0
 8001226:	6078      	str	r0, [r7, #4]

  if (_shape->type == SHAPE_SPHERE) {
 8001228:	687b      	ldr	r3, [r7, #4]
 800122a:	689b      	ldr	r3, [r3, #8]
 800122c:	2b00      	cmp	r3, #0
 800122e:	d10c      	bne.n	800124a <roll_unit_distance+0x2a>
    // calculations show that one unit of push moves the sphere 5 x the diameter
    return SHAPE_SPHERE_MULTIPLIER * (float)(_shape->dimension_1);
 8001230:	687b      	ldr	r3, [r7, #4]
 8001232:	681b      	ldr	r3, [r3, #0]
 8001234:	4618      	mov	r0, r3
 8001236:	f7ff fe33 	bl	8000ea0 <__aeabi_ui2f>
 800123a:	4603      	mov	r3, r0
 800123c:	4a17      	ldr	r2, [pc, #92]	@ (800129c <roll_unit_distance+0x7c>)
 800123e:	4611      	mov	r1, r2
 8001240:	4618      	mov	r0, r3
 8001242:	f7ff f82f 	bl	80002a4 <__aeabi_fmul>
 8001246:	4603      	mov	r3, r0
 8001248:	e023      	b.n	8001292 <roll_unit_distance+0x72>
  }
  else if (_shape->type == SHAPE_CUBE) {
 800124a:	687b      	ldr	r3, [r7, #4]
 800124c:	689b      	ldr	r3, [r3, #8]
 800124e:	2b01      	cmp	r3, #1
 8001250:	d10d      	bne.n	800126e <roll_unit_distance+0x4e>
    // calculations that one unit of push moves the cube 1.5 x the side length
    return SHAPE_CUBE_MULTIPLIER * (float)(_shape->dimension_1);
 8001252:	687b      	ldr	r3, [r7, #4]
 8001254:	681b      	ldr	r3, [r3, #0]
 8001256:	4618      	mov	r0, r3
 8001258:	f7ff fe22 	bl	8000ea0 <__aeabi_ui2f>
 800125c:	4603      	mov	r3, r0
 800125e:	f04f 527f 	mov.w	r2, #1069547520	@ 0x3fc00000
 8001262:	4611      	mov	r1, r2
 8001264:	4618      	mov	r0, r3
 8001266:	f7ff f81d 	bl	80002a4 <__aeabi_fmul>
 800126a:	4603      	mov	r3, r0
 800126c:	e011      	b.n	8001292 <roll_unit_distance+0x72>
  }
  else if (_shape->type == SHAPE_CONE) {
 800126e:	687b      	ldr	r3, [r7, #4]
 8001270:	689b      	ldr	r3, [r3, #8]
 8001272:	2b02      	cmp	r3, #2
 8001274:	d10d      	bne.n	8001292 <roll_unit_distance+0x72>
    // calculations that one unit of push moves the cube 1.5 x the side length
    return SHAPE_CONE_MULTIPLIER * (float)(_shape->dimension_1);
 8001276:	687b      	ldr	r3, [r7, #4]
 8001278:	681b      	ldr	r3, [r3, #0]
 800127a:	4618      	mov	r0, r3
 800127c:	f7ff fe10 	bl	8000ea0 <__aeabi_ui2f>
 8001280:	4603      	mov	r3, r0
 8001282:	f04f 527c 	mov.w	r2, #1056964608	@ 0x3f000000
 8001286:	4611      	mov	r1, r2
 8001288:	4618      	mov	r0, r3
 800128a:	f7ff f80b 	bl	80002a4 <__aeabi_fmul>
 800128e:	4603      	mov	r3, r0
 8001290:	e7ff      	b.n	8001292 <roll_unit_distance+0x72>
  }
}
 8001292:	4618      	mov	r0, r3
 8001294:	3708      	adds	r7, #8
 8001296:	46bd      	mov	sp, r7
 8001298:	bd80      	pop	{r7, pc}
 800129a:	bf00      	nop
 800129c:	40a00000 	.word	0x40a00000

080012a0 <roll_shape>:


void roll_shape(struct shape *_shape, float push_strength) {
 80012a0:	b580      	push	{r7, lr}
 80012a2:	b082      	sub	sp, #8
 80012a4:	af00      	add	r7, sp, #0
 80012a6:	6078      	str	r0, [r7, #4]
 80012a8:	6039      	str	r1, [r7, #0]
  _shape->location += push_strength * roll_unit_distance(_shape);
 80012aa:	6878      	ldr	r0, [r7, #4]
 80012ac:	f7ff ffb8 	bl	8001220 <roll_unit_distance>
 80012b0:	4603      	mov	r3, r0
 80012b2:	6839      	ldr	r1, [r7, #0]
 80012b4:	4618      	mov	r0, r3
 80012b6:	f7fe fff5 	bl	80002a4 <__aeabi_fmul>
 80012ba:	4603      	mov	r3, r0
 80012bc:	461a      	mov	r2, r3
 80012be:	687b      	ldr	r3, [r7, #4]
 80012c0:	68db      	ldr	r3, [r3, #12]
 80012c2:	4619      	mov	r1, r3
 80012c4:	4610      	mov	r0, r2
 80012c6:	f7ff fd3b 	bl	8000d40 <__addsf3>
 80012ca:	4603      	mov	r3, r0
 80012cc:	461a      	mov	r2, r3
 80012ce:	687b      	ldr	r3, [r7, #4]
 80012d0:	60da      	str	r2, [r3, #12]
}
 80012d2:	bf00      	nop
 80012d4:	3708      	adds	r7, #8
 80012d6:	46bd      	mov	sp, r7
 80012d8:	bd80      	pop	{r7, pc}

080012da <slide_shape>:


void slide_shape(struct shape *_shape, float push_strength) {
 80012da:	b580      	push	{r7, lr}
 80012dc:	b082      	sub	sp, #8
 80012de:	af00      	add	r7, sp, #0
 80012e0:	6078      	str	r0, [r7, #4]
 80012e2:	6039      	str	r1, [r7, #0]
  _shape->location += push_strength;
 80012e4:	687b      	ldr	r3, [r7, #4]
 80012e6:	68db      	ldr	r3, [r3, #12]
 80012e8:	6839      	ldr	r1, [r7, #0]
 80012ea:	4618      	mov	r0, r3
 80012ec:	f7ff fd28 	bl	8000d40 <__addsf3>
 80012f0:	4603      	mov	r3, r0
 80012f2:	461a      	mov	r2, r3
 80012f4:	687b      	ldr	r3, [r7, #4]
 80012f6:	60da      	str	r2, [r3, #12]
}
 80012f8:	bf00      	nop
 80012fa:	3708      	adds	r7, #8
 80012fc:	46bd      	mov	sp, r7
 80012fe:	bd80      	pop	{r7, pc}

08001300 <__NVIC_EnableIRQ>:
  \details Enables a device specific interrupt in the NVIC interrupt controller.
  \param [in]      IRQn  Device specific interrupt number.
  \note    IRQn must not be negative.
 */
__STATIC_INLINE void __NVIC_EnableIRQ(IRQn_Type IRQn)
{
 8001300:	b480      	push	{r7}
 8001302:	b083      	sub	sp, #12
 8001304:	af00      	add	r7, sp, #0
 8001306:	4603      	mov	r3, r0
 8001308:	71fb      	strb	r3, [r7, #7]
  if ((int32_t)(IRQn) >= 0)
 800130a:	f997 3007 	ldrsb.w	r3, [r7, #7]
 800130e:	2b00      	cmp	r3, #0
 8001310:	db0b      	blt.n	800132a <__NVIC_EnableIRQ+0x2a>
  {
    NVIC->ISER[(((uint32_t)IRQn) >> 5UL)] = (uint32_t)(1UL << (((uint32_t)IRQn) & 0x1FUL));
 8001312:	79fb      	ldrb	r3, [r7, #7]
 8001314:	f003 021f 	and.w	r2, r3, #31
 8001318:	4906      	ldr	r1, [pc, #24]	@ (8001334 <__NVIC_EnableIRQ+0x34>)
 800131a:	f997 3007 	ldrsb.w	r3, [r7, #7]
 800131e:	095b      	lsrs	r3, r3, #5
 8001320:	2001      	movs	r0, #1
 8001322:	fa00 f202 	lsl.w	r2, r0, r2
 8001326:	f841 2023 	str.w	r2, [r1, r3, lsl #2]
  }
}
 800132a:	bf00      	nop
 800132c:	370c      	adds	r7, #12
 800132e:	46bd      	mov	sp, r7
 8001330:	bc80      	pop	{r7}
 8001332:	4770      	bx	lr
 8001334:	e000e100 	.word	0xe000e100

08001338 <__NVIC_SetPriority>:
  \param [in]      IRQn  Interrupt number.
  \param [in]  priority  Priority to set.
  \note    The priority cannot be set for every processor exception.
 */
__STATIC_INLINE void __NVIC_SetPriority(IRQn_Type IRQn, uint32_t priority)
{
 8001338:	b480      	push	{r7}
 800133a:	b083      	sub	sp, #12
 800133c:	af00      	add	r7, sp, #0
 800133e:	4603      	mov	r3, r0
 8001340:	6039      	str	r1, [r7, #0]
 8001342:	71fb      	strb	r3, [r7, #7]
  if ((int32_t)(IRQn) >= 0)
 8001344:	f997 3007 	ldrsb.w	r3, [r7, #7]
 8001348:	2b00      	cmp	r3, #0
 800134a:	db0a      	blt.n	8001362 <__NVIC_SetPriority+0x2a>
  {
    NVIC->IP[((uint32_t)IRQn)]               = (uint8_t)((priority << (8U - __NVIC_PRIO_BITS)) & (uint32_t)0xFFUL);
 800134c:	683b      	ldr	r3, [r7, #0]
 800134e:	b2da      	uxtb	r2, r3
 8001350:	490c      	ldr	r1, [pc, #48]	@ (8001384 <__NVIC_SetPriority+0x4c>)
 8001352:	f997 3007 	ldrsb.w	r3, [r7, #7]
 8001356:	0112      	lsls	r2, r2, #4
 8001358:	b2d2      	uxtb	r2, r2
 800135a:	440b      	add	r3, r1
 800135c:	f883 2300 	strb.w	r2, [r3, #768]	@ 0x300
  }
  else
  {
    SCB->SHP[(((uint32_t)IRQn) & 0xFUL)-4UL] = (uint8_t)((priority << (8U - __NVIC_PRIO_BITS)) & (uint32_t)0xFFUL);
  }
}
 8001360:	e00a      	b.n	8001378 <__NVIC_SetPriority+0x40>
    SCB->SHP[(((uint32_t)IRQn) & 0xFUL)-4UL] = (uint8_t)((priority << (8U - __NVIC_PRIO_BITS)) & (uint32_t)0xFFUL);
 8001362:	683b      	ldr	r3, [r7, #0]
 8001364:	b2da      	uxtb	r2, r3
 8001366:	4908      	ldr	r1, [pc, #32]	@ (8001388 <__NVIC_SetPriority+0x50>)
 8001368:	79fb      	ldrb	r3, [r7, #7]
 800136a:	f003 030f 	and.w	r3, r3, #15
 800136e:	3b04      	subs	r3, #4
 8001370:	0112      	lsls	r2, r2, #4
 8001372:	b2d2      	uxtb	r2, r2
 8001374:	440b      	add	r3, r1
 8001376:	761a      	strb	r2, [r3, #24]
}
 8001378:	bf00      	nop
 800137a:	370c      	adds	r7, #12
 800137c:	46bd      	mov	sp, r7
 800137e:	bc80      	pop	{r7}
 8001380:	4770      	bx	lr
 8001382:	bf00      	nop
 8001384:	e000e100 	.word	0xe000e100
 8001388:	e000ed00 	.word	0xe000ed00

0800138c <SerialInitialise>:


// InitialiseSerial - Initialise the serial port
// Input: baudRate is from an enumerated set

void SerialInitialise(uint32_t baudRate, SerialPort *serial_port, void (*completion_function)(uint32_t)) {
 800138c:	b480      	push	{r7}
 800138e:	b087      	sub	sp, #28
 8001390:	af00      	add	r7, sp, #0
 8001392:	60f8      	str	r0, [r7, #12]
 8001394:	60b9      	str	r1, [r7, #8]
 8001396:	607a      	str	r2, [r7, #4]

	serial_port->completion_function = completion_function;
 8001398:	68bb      	ldr	r3, [r7, #8]
 800139a:	687a      	ldr	r2, [r7, #4]
 800139c:	625a      	str	r2, [r3, #36]	@ 0x24

	// enable clock power, system configuration clock and GPIOC
	// common to all UARTs
	RCC->APB1ENR |= RCC_APB1ENR_PWREN;
 800139e:	4b47      	ldr	r3, [pc, #284]	@ (80014bc <SerialInitialise+0x130>)
 80013a0:	69db      	ldr	r3, [r3, #28]
 80013a2:	4a46      	ldr	r2, [pc, #280]	@ (80014bc <SerialInitialise+0x130>)
 80013a4:	f043 5380 	orr.w	r3, r3, #268435456	@ 0x10000000
 80013a8:	61d3      	str	r3, [r2, #28]
	RCC->APB2ENR |= RCC_APB2ENR_SYSCFGEN;
 80013aa:	4b44      	ldr	r3, [pc, #272]	@ (80014bc <SerialInitialise+0x130>)
 80013ac:	699b      	ldr	r3, [r3, #24]
 80013ae:	4a43      	ldr	r2, [pc, #268]	@ (80014bc <SerialInitialise+0x130>)
 80013b0:	f043 0301 	orr.w	r3, r3, #1
 80013b4:	6193      	str	r3, [r2, #24]
    RCC->AHBENR  |= RCC_AHBENR_GPIOCEN;    // PC4/PC5
 80013b6:	4b41      	ldr	r3, [pc, #260]	@ (80014bc <SerialInitialise+0x130>)
 80013b8:	695b      	ldr	r3, [r3, #20]
 80013ba:	4a40      	ldr	r2, [pc, #256]	@ (80014bc <SerialInitialise+0x130>)
 80013bc:	f443 2300 	orr.w	r3, r3, #524288	@ 0x80000
 80013c0:	6153      	str	r3, [r2, #20]
    RCC->APB2ENR |= RCC_APB2ENR_USART1EN;  // USART1
 80013c2:	4b3e      	ldr	r3, [pc, #248]	@ (80014bc <SerialInitialise+0x130>)
 80013c4:	699b      	ldr	r3, [r3, #24]
 80013c6:	4a3d      	ldr	r2, [pc, #244]	@ (80014bc <SerialInitialise+0x130>)
 80013c8:	f443 4380 	orr.w	r3, r3, #16384	@ 0x4000
 80013cc:	6193      	str	r3, [r2, #24]

	// enable the GPIO which is on the AHB bus
	RCC->AHBENR |= serial_port->MaskAHBENR;
 80013ce:	68bb      	ldr	r3, [r7, #8]
 80013d0:	691a      	ldr	r2, [r3, #16]
 80013d2:	4b3a      	ldr	r3, [pc, #232]	@ (80014bc <SerialInitialise+0x130>)
 80013d4:	695b      	ldr	r3, [r3, #20]
 80013d6:	4939      	ldr	r1, [pc, #228]	@ (80014bc <SerialInitialise+0x130>)
 80013d8:	4313      	orrs	r3, r2
 80013da:	614b      	str	r3, [r1, #20]

	// set pin mode to alternate function for the specific GPIO pins
	serial_port->GPIO->MODER = serial_port->SerialPinModeValue;
 80013dc:	68bb      	ldr	r3, [r7, #8]
 80013de:	685b      	ldr	r3, [r3, #4]
 80013e0:	68ba      	ldr	r2, [r7, #8]
 80013e2:	6952      	ldr	r2, [r2, #20]
 80013e4:	601a      	str	r2, [r3, #0]

	// enable high speed clock for specific GPIO pins
	serial_port->GPIO->OSPEEDR = serial_port->SerialPinSpeedValue;
 80013e6:	68bb      	ldr	r3, [r7, #8]
 80013e8:	685b      	ldr	r3, [r3, #4]
 80013ea:	68ba      	ldr	r2, [r7, #8]
 80013ec:	6992      	ldr	r2, [r2, #24]
 80013ee:	609a      	str	r2, [r3, #8]

	// set alternate function to enable USART to external pins
	serial_port->GPIO->AFR[0] |= serial_port->SerialPinAlternatePinValueLow;
 80013f0:	68bb      	ldr	r3, [r7, #8]
 80013f2:	69d9      	ldr	r1, [r3, #28]
 80013f4:	68bb      	ldr	r3, [r7, #8]
 80013f6:	685b      	ldr	r3, [r3, #4]
 80013f8:	6a1a      	ldr	r2, [r3, #32]
 80013fa:	68bb      	ldr	r3, [r7, #8]
 80013fc:	685b      	ldr	r3, [r3, #4]
 80013fe:	430a      	orrs	r2, r1
 8001400:	621a      	str	r2, [r3, #32]
	serial_port->GPIO->AFR[1] |= serial_port->SerialPinAlternatePinValueHigh;
 8001402:	68bb      	ldr	r3, [r7, #8]
 8001404:	6a19      	ldr	r1, [r3, #32]
 8001406:	68bb      	ldr	r3, [r7, #8]
 8001408:	685b      	ldr	r3, [r3, #4]
 800140a:	6a5a      	ldr	r2, [r3, #36]	@ 0x24
 800140c:	68bb      	ldr	r3, [r7, #8]
 800140e:	685b      	ldr	r3, [r3, #4]
 8001410:	430a      	orrs	r2, r1
 8001412:	625a      	str	r2, [r3, #36]	@ 0x24

	serial_port->UART->CR1 |= USART_CR1_RXNEIE; // RX not empty interrupt
 8001414:	68bb      	ldr	r3, [r7, #8]
 8001416:	681b      	ldr	r3, [r3, #0]
 8001418:	681a      	ldr	r2, [r3, #0]
 800141a:	68bb      	ldr	r3, [r7, #8]
 800141c:	681b      	ldr	r3, [r3, #0]
 800141e:	f042 0220 	orr.w	r2, r2, #32
 8001422:	601a      	str	r2, [r3, #0]
	serial_port->UART->CR1 |= USART_CR1_TXEIE;  // TX empty interrupt (optional)
 8001424:	68bb      	ldr	r3, [r7, #8]
 8001426:	681b      	ldr	r3, [r3, #0]
 8001428:	681a      	ldr	r2, [r3, #0]
 800142a:	68bb      	ldr	r3, [r7, #8]
 800142c:	681b      	ldr	r3, [r3, #0]
 800142e:	f042 0280 	orr.w	r2, r2, #128	@ 0x80
 8001432:	601a      	str	r2, [r3, #0]

	// enable the device based on the bits defined in the serial port definition
	RCC->APB1ENR |= serial_port->MaskAPB1ENR;
 8001434:	68bb      	ldr	r3, [r7, #8]
 8001436:	68da      	ldr	r2, [r3, #12]
 8001438:	4b20      	ldr	r3, [pc, #128]	@ (80014bc <SerialInitialise+0x130>)
 800143a:	69db      	ldr	r3, [r3, #28]
 800143c:	491f      	ldr	r1, [pc, #124]	@ (80014bc <SerialInitialise+0x130>)
 800143e:	4313      	orrs	r3, r2
 8001440:	61cb      	str	r3, [r1, #28]
	RCC->APB2ENR |= serial_port->MaskAPB2ENR;
 8001442:	68bb      	ldr	r3, [r7, #8]
 8001444:	689a      	ldr	r2, [r3, #8]
 8001446:	4b1d      	ldr	r3, [pc, #116]	@ (80014bc <SerialInitialise+0x130>)
 8001448:	699b      	ldr	r3, [r3, #24]
 800144a:	491c      	ldr	r1, [pc, #112]	@ (80014bc <SerialInitialise+0x130>)
 800144c:	4313      	orrs	r3, r2
 800144e:	618b      	str	r3, [r1, #24]

	// Get a pointer to the 16 bits of the BRR register that we want to change
	uint16_t *baud_rate_config = (uint16_t*)&serial_port->UART->BRR; // only 16 bits used!
 8001450:	68bb      	ldr	r3, [r7, #8]
 8001452:	681b      	ldr	r3, [r3, #0]
 8001454:	330c      	adds	r3, #12
 8001456:	617b      	str	r3, [r7, #20]

	// Baud rate calculation from datasheet
	switch(baudRate){
 8001458:	68fb      	ldr	r3, [r7, #12]
 800145a:	2b04      	cmp	r3, #4
 800145c:	d820      	bhi.n	80014a0 <SerialInitialise+0x114>
 800145e:	a201      	add	r2, pc, #4	@ (adr r2, 8001464 <SerialInitialise+0xd8>)
 8001460:	f852 f023 	ldr.w	pc, [r2, r3, lsl #2]
 8001464:	08001479 	.word	0x08001479
 8001468:	08001481 	.word	0x08001481
 800146c:	08001489 	.word	0x08001489
 8001470:	08001491 	.word	0x08001491
 8001474:	08001499 	.word	0x08001499
	case BAUD_9600:
		// NEED TO FIX THIS !
		*baud_rate_config = 0x46;  // 115200 at 8MHz
 8001478:	697b      	ldr	r3, [r7, #20]
 800147a:	2246      	movs	r2, #70	@ 0x46
 800147c:	801a      	strh	r2, [r3, #0]
		break;
 800147e:	e00f      	b.n	80014a0 <SerialInitialise+0x114>
	case BAUD_19200:
		// NEED TO FIX THIS !
		*baud_rate_config = 0x46;  // 115200 at 8MHz
 8001480:	697b      	ldr	r3, [r7, #20]
 8001482:	2246      	movs	r2, #70	@ 0x46
 8001484:	801a      	strh	r2, [r3, #0]
		break;
 8001486:	e00b      	b.n	80014a0 <SerialInitialise+0x114>
	case BAUD_38400:
		// NEED TO FIX THIS !
		*baud_rate_config = 0x46;  // 115200 at 8MHz
 8001488:	697b      	ldr	r3, [r7, #20]
 800148a:	2246      	movs	r2, #70	@ 0x46
 800148c:	801a      	strh	r2, [r3, #0]
		break;
 800148e:	e007      	b.n	80014a0 <SerialInitialise+0x114>
	case BAUD_57600:
		// NEED TO FIX THIS !
		*baud_rate_config = 0x46;  // 115200 at 8MHz
 8001490:	697b      	ldr	r3, [r7, #20]
 8001492:	2246      	movs	r2, #70	@ 0x46
 8001494:	801a      	strh	r2, [r3, #0]
		break;
 8001496:	e003      	b.n	80014a0 <SerialInitialise+0x114>
	case BAUD_115200:
		*baud_rate_config = 0x46;  // 115200 at 8MHz
 8001498:	697b      	ldr	r3, [r7, #20]
 800149a:	2246      	movs	r2, #70	@ 0x46
 800149c:	801a      	strh	r2, [r3, #0]
		break;
 800149e:	bf00      	nop
	}


	// enable serial port for tx and rx
	serial_port->UART->CR1 |= USART_CR1_TE | USART_CR1_RE | USART_CR1_UE;
 80014a0:	68bb      	ldr	r3, [r7, #8]
 80014a2:	681b      	ldr	r3, [r3, #0]
 80014a4:	681a      	ldr	r2, [r3, #0]
 80014a6:	68bb      	ldr	r3, [r7, #8]
 80014a8:	681b      	ldr	r3, [r3, #0]
 80014aa:	f042 020d 	orr.w	r2, r2, #13
 80014ae:	601a      	str	r2, [r3, #0]
}
 80014b0:	bf00      	nop
 80014b2:	371c      	adds	r7, #28
 80014b4:	46bd      	mov	sp, r7
 80014b6:	bc80      	pop	{r7}
 80014b8:	4770      	bx	lr
 80014ba:	bf00      	nop
 80014bc:	40021000 	.word	0x40021000

080014c0 <setupNVIC>:

void setupNVIC(void)
{
 80014c0:	b580      	push	{r7, lr}
 80014c2:	af00      	add	r7, sp, #0
  \details Disables IRQ interrupts by setting the I-bit in the CPSR.
           Can only be executed in Privileged modes.
 */
__STATIC_FORCEINLINE void __disable_irq(void)
{
  __ASM volatile ("cpsid i" : : : "memory");
 80014c4:	b672      	cpsid	i
}
 80014c6:	bf00      	nop
    __disable_irq();
    NVIC_SetPriority(USART1_IRQn, 1);
 80014c8:	2101      	movs	r1, #1
 80014ca:	2025      	movs	r0, #37	@ 0x25
 80014cc:	f7ff ff34 	bl	8001338 <__NVIC_SetPriority>
    NVIC_EnableIRQ(USART1_IRQn);
 80014d0:	2025      	movs	r0, #37	@ 0x25
 80014d2:	f7ff ff15 	bl	8001300 <__NVIC_EnableIRQ>
  __ASM volatile ("cpsie i" : : : "memory");
 80014d6:	b662      	cpsie	i
}
 80014d8:	bf00      	nop
    __enable_irq();
}
 80014da:	bf00      	nop
 80014dc:	bd80      	pop	{r7, pc}

080014de <SerialInputAvailable>:
	}

	serial_port->UART->TDR = data;
}

int SerialInputAvailable(SerialPort *serial_port) {
 80014de:	b480      	push	{r7}
 80014e0:	b083      	sub	sp, #12
 80014e2:	af00      	add	r7, sp, #0
 80014e4:	6078      	str	r0, [r7, #4]
    return (serial_port->UART->ISR & USART_ISR_RXNE);
 80014e6:	687b      	ldr	r3, [r7, #4]
 80014e8:	681b      	ldr	r3, [r3, #0]
 80014ea:	69db      	ldr	r3, [r3, #28]
 80014ec:	f003 0320 	and.w	r3, r3, #32
}
 80014f0:	4618      	mov	r0, r3
 80014f2:	370c      	adds	r7, #12
 80014f4:	46bd      	mov	sp, r7
 80014f6:	bc80      	pop	{r7}
 80014f8:	4770      	bx	lr

080014fa <SerialReadChar>:

uint8_t SerialReadChar(SerialPort *serial_port) {
 80014fa:	b480      	push	{r7}
 80014fc:	b083      	sub	sp, #12
 80014fe:	af00      	add	r7, sp, #0
 8001500:	6078      	str	r0, [r7, #4]
    return serial_port->UART->RDR;
 8001502:	687b      	ldr	r3, [r7, #4]
 8001504:	681b      	ldr	r3, [r3, #0]
 8001506:	8c9b      	ldrh	r3, [r3, #36]	@ 0x24
 8001508:	b29b      	uxth	r3, r3
 800150a:	b2db      	uxtb	r3, r3
}
 800150c:	4618      	mov	r0, r3
 800150e:	370c      	adds	r7, #12
 8001510:	46bd      	mov	sp, r7
 8001512:	bc80      	pop	{r7}
 8001514:	4770      	bx	lr
	...

08001518 <is_start_command>:

//  Function to check if input is the command "start"
int is_start_command(const uint8_t *input) {
 8001518:	b580      	push	{r7, lr}
 800151a:	b082      	sub	sp, #8
 800151c:	af00      	add	r7, sp, #0
 800151e:	6078      	str	r0, [r7, #4]
    return strcmp((const char *)input, "start") == 0;
 8001520:	4906      	ldr	r1, [pc, #24]	@ (800153c <is_start_command+0x24>)
 8001522:	6878      	ldr	r0, [r7, #4]
 8001524:	f7fe feb4 	bl	8000290 <strcmp>
 8001528:	4603      	mov	r3, r0
 800152a:	2b00      	cmp	r3, #0
 800152c:	bf0c      	ite	eq
 800152e:	2301      	moveq	r3, #1
 8001530:	2300      	movne	r3, #0
 8001532:	b2db      	uxtb	r3, r3
}
 8001534:	4618      	mov	r0, r3
 8001536:	3708      	adds	r7, #8
 8001538:	46bd      	mov	sp, r7
 800153a:	bd80      	pop	{r7, pc}
 800153c:	0800481c 	.word	0x0800481c

08001540 <USART1_EXTI25_IRQHandler>:
// Flag indicating that a transmission is in progress
volatile uint8_t is_transmitting = 0;



void USART1_EXTI25_IRQHandler(void) {
 8001540:	b5b0      	push	{r4, r5, r7, lr}
 8001542:	b08e      	sub	sp, #56	@ 0x38
 8001544:	af00      	add	r7, sp, #0
    // === Error Check: Framing and Overrun ===
    if ((USART1->ISR & USART_ISR_FE_Msk) || (USART1->ISR & USART_ISR_ORE_Msk)) {
 8001546:	4b71      	ldr	r3, [pc, #452]	@ (800170c <USART1_EXTI25_IRQHandler+0x1cc>)
 8001548:	69db      	ldr	r3, [r3, #28]
 800154a:	f003 0302 	and.w	r3, r3, #2
 800154e:	2b00      	cmp	r3, #0
 8001550:	d105      	bne.n	800155e <USART1_EXTI25_IRQHandler+0x1e>
 8001552:	4b6e      	ldr	r3, [pc, #440]	@ (800170c <USART1_EXTI25_IRQHandler+0x1cc>)
 8001554:	69db      	ldr	r3, [r3, #28]
 8001556:	f003 0308 	and.w	r3, r3, #8
 800155a:	2b00      	cmp	r3, #0
 800155c:	d003      	beq.n	8001566 <USART1_EXTI25_IRQHandler+0x26>
    	USART1->ICR = USART_ICR_FECF | USART_ICR_ORECF;
 800155e:	4b6b      	ldr	r3, [pc, #428]	@ (800170c <USART1_EXTI25_IRQHandler+0x1cc>)
 8001560:	220a      	movs	r2, #10
 8001562:	621a      	str	r2, [r3, #32]
        return;
 8001564:	e0cf      	b.n	8001706 <USART1_EXTI25_IRQHandler+0x1c6>
    }

    // === RXNE: Receive register not empty ===
    if (USART1->ISR & USART_ISR_RXNE) {
 8001566:	4b69      	ldr	r3, [pc, #420]	@ (800170c <USART1_EXTI25_IRQHandler+0x1cc>)
 8001568:	69db      	ldr	r3, [r3, #28]
 800156a:	f003 0320 	and.w	r3, r3, #32
 800156e:	2b00      	cmp	r3, #0
 8001570:	d02e      	beq.n	80015d0 <USART1_EXTI25_IRQHandler+0x90>
        while (SerialInputAvailable(&USART1_PORT)) {
 8001572:	e027      	b.n	80015c4 <USART1_EXTI25_IRQHandler+0x84>
            uint8_t c = SerialReadChar(&USART1_PORT);
 8001574:	4866      	ldr	r0, [pc, #408]	@ (8001710 <USART1_EXTI25_IRQHandler+0x1d0>)
 8001576:	f7ff ffc0 	bl	80014fa <SerialReadChar>
 800157a:	4603      	mov	r3, r0
 800157c:	f887 3033 	strb.w	r3, [r7, #51]	@ 0x33
            if (string_index < MAX_BUFFER_LENGTH - 1) {
 8001580:	4b64      	ldr	r3, [pc, #400]	@ (8001714 <USART1_EXTI25_IRQHandler+0x1d4>)
 8001582:	681b      	ldr	r3, [r3, #0]
 8001584:	2b7e      	cmp	r3, #126	@ 0x7e
 8001586:	d81a      	bhi.n	80015be <USART1_EXTI25_IRQHandler+0x7e>
                received_string[string_index++] = c;
 8001588:	4b62      	ldr	r3, [pc, #392]	@ (8001714 <USART1_EXTI25_IRQHandler+0x1d4>)
 800158a:	681b      	ldr	r3, [r3, #0]
 800158c:	1c5a      	adds	r2, r3, #1
 800158e:	4961      	ldr	r1, [pc, #388]	@ (8001714 <USART1_EXTI25_IRQHandler+0x1d4>)
 8001590:	600a      	str	r2, [r1, #0]
 8001592:	4961      	ldr	r1, [pc, #388]	@ (8001718 <USART1_EXTI25_IRQHandler+0x1d8>)
 8001594:	f897 2033 	ldrb.w	r2, [r7, #51]	@ 0x33
 8001598:	54ca      	strb	r2, [r1, r3]
                if (c == '\n' || c == '\r') {
 800159a:	f897 3033 	ldrb.w	r3, [r7, #51]	@ 0x33
 800159e:	2b0a      	cmp	r3, #10
 80015a0:	d003      	beq.n	80015aa <USART1_EXTI25_IRQHandler+0x6a>
 80015a2:	f897 3033 	ldrb.w	r3, [r7, #51]	@ 0x33
 80015a6:	2b0d      	cmp	r3, #13
 80015a8:	d10c      	bne.n	80015c4 <USART1_EXTI25_IRQHandler+0x84>
                    received_string[string_index - 1] = '\0'; // null-terminate
 80015aa:	4b5a      	ldr	r3, [pc, #360]	@ (8001714 <USART1_EXTI25_IRQHandler+0x1d4>)
 80015ac:	681b      	ldr	r3, [r3, #0]
 80015ae:	3b01      	subs	r3, #1
 80015b0:	4a59      	ldr	r2, [pc, #356]	@ (8001718 <USART1_EXTI25_IRQHandler+0x1d8>)
 80015b2:	2100      	movs	r1, #0
 80015b4:	54d1      	strb	r1, [r2, r3]
                    input_received_flag = 1;
 80015b6:	4b59      	ldr	r3, [pc, #356]	@ (800171c <USART1_EXTI25_IRQHandler+0x1dc>)
 80015b8:	2201      	movs	r2, #1
 80015ba:	701a      	strb	r2, [r3, #0]
 80015bc:	e002      	b.n	80015c4 <USART1_EXTI25_IRQHandler+0x84>
                }
            } else {
                string_index = 0; // Overflow fallback
 80015be:	4b55      	ldr	r3, [pc, #340]	@ (8001714 <USART1_EXTI25_IRQHandler+0x1d4>)
 80015c0:	2200      	movs	r2, #0
 80015c2:	601a      	str	r2, [r3, #0]
        while (SerialInputAvailable(&USART1_PORT)) {
 80015c4:	4852      	ldr	r0, [pc, #328]	@ (8001710 <USART1_EXTI25_IRQHandler+0x1d0>)
 80015c6:	f7ff ff8a 	bl	80014de <SerialInputAvailable>
 80015ca:	4603      	mov	r3, r0
 80015cc:	2b00      	cmp	r3, #0
 80015ce:	d1d1      	bne.n	8001574 <USART1_EXTI25_IRQHandler+0x34>
            }
        }
    }

    // === TXE: Transmit register empty (double buffering logic) ===
    if (is_transmitting && transmit_length == 0) { // safety guard
 80015d0:	4b53      	ldr	r3, [pc, #332]	@ (8001720 <USART1_EXTI25_IRQHandler+0x1e0>)
 80015d2:	781b      	ldrb	r3, [r3, #0]
 80015d4:	b2db      	uxtb	r3, r3
 80015d6:	2b00      	cmp	r3, #0
 80015d8:	d00c      	beq.n	80015f4 <USART1_EXTI25_IRQHandler+0xb4>
 80015da:	4b52      	ldr	r3, [pc, #328]	@ (8001724 <USART1_EXTI25_IRQHandler+0x1e4>)
 80015dc:	681b      	ldr	r3, [r3, #0]
 80015de:	2b00      	cmp	r3, #0
 80015e0:	d108      	bne.n	80015f4 <USART1_EXTI25_IRQHandler+0xb4>
        USART1->CR1 &= ~USART_CR1_TXEIE;
 80015e2:	4b4a      	ldr	r3, [pc, #296]	@ (800170c <USART1_EXTI25_IRQHandler+0x1cc>)
 80015e4:	681b      	ldr	r3, [r3, #0]
 80015e6:	4a49      	ldr	r2, [pc, #292]	@ (800170c <USART1_EXTI25_IRQHandler+0x1cc>)
 80015e8:	f023 0380 	bic.w	r3, r3, #128	@ 0x80
 80015ec:	6013      	str	r3, [r2, #0]
        is_transmitting = 0;
 80015ee:	4b4c      	ldr	r3, [pc, #304]	@ (8001720 <USART1_EXTI25_IRQHandler+0x1e0>)
 80015f0:	2200      	movs	r2, #0
 80015f2:	701a      	strb	r2, [r3, #0]
    }


    if ((USART1->ISR & USART_ISR_TXE) && is_transmitting) {
 80015f4:	4b45      	ldr	r3, [pc, #276]	@ (800170c <USART1_EXTI25_IRQHandler+0x1cc>)
 80015f6:	69db      	ldr	r3, [r3, #28]
 80015f8:	f003 0380 	and.w	r3, r3, #128	@ 0x80
 80015fc:	2b00      	cmp	r3, #0
 80015fe:	d04b      	beq.n	8001698 <USART1_EXTI25_IRQHandler+0x158>
 8001600:	4b47      	ldr	r3, [pc, #284]	@ (8001720 <USART1_EXTI25_IRQHandler+0x1e0>)
 8001602:	781b      	ldrb	r3, [r3, #0]
 8001604:	b2db      	uxtb	r3, r3
 8001606:	2b00      	cmp	r3, #0
 8001608:	d046      	beq.n	8001698 <USART1_EXTI25_IRQHandler+0x158>
        if (transmit_index < transmit_length) {
 800160a:	4b47      	ldr	r3, [pc, #284]	@ (8001728 <USART1_EXTI25_IRQHandler+0x1e8>)
 800160c:	681a      	ldr	r2, [r3, #0]
 800160e:	4b45      	ldr	r3, [pc, #276]	@ (8001724 <USART1_EXTI25_IRQHandler+0x1e4>)
 8001610:	681b      	ldr	r3, [r3, #0]
 8001612:	429a      	cmp	r2, r3
 8001614:	d20c      	bcs.n	8001630 <USART1_EXTI25_IRQHandler+0xf0>
            USART1->TDR = transmit_buffer[transmit_index++];
 8001616:	4b45      	ldr	r3, [pc, #276]	@ (800172c <USART1_EXTI25_IRQHandler+0x1ec>)
 8001618:	681a      	ldr	r2, [r3, #0]
 800161a:	4b43      	ldr	r3, [pc, #268]	@ (8001728 <USART1_EXTI25_IRQHandler+0x1e8>)
 800161c:	681b      	ldr	r3, [r3, #0]
 800161e:	1c59      	adds	r1, r3, #1
 8001620:	4841      	ldr	r0, [pc, #260]	@ (8001728 <USART1_EXTI25_IRQHandler+0x1e8>)
 8001622:	6001      	str	r1, [r0, #0]
 8001624:	4413      	add	r3, r2
 8001626:	781b      	ldrb	r3, [r3, #0]
 8001628:	b2da      	uxtb	r2, r3
 800162a:	4b38      	ldr	r3, [pc, #224]	@ (800170c <USART1_EXTI25_IRQHandler+0x1cc>)
 800162c:	851a      	strh	r2, [r3, #40]	@ 0x28
 800162e:	e033      	b.n	8001698 <USART1_EXTI25_IRQHandler+0x158>
        } else {
            // End of transmission for current buffer
            USART1->CR1 &= ~USART_CR1_TXEIE;
 8001630:	4b36      	ldr	r3, [pc, #216]	@ (800170c <USART1_EXTI25_IRQHandler+0x1cc>)
 8001632:	681b      	ldr	r3, [r3, #0]
 8001634:	4a35      	ldr	r2, [pc, #212]	@ (800170c <USART1_EXTI25_IRQHandler+0x1cc>)
 8001636:	f023 0380 	bic.w	r3, r3, #128	@ 0x80
 800163a:	6013      	str	r3, [r2, #0]

            if (USART1_PORT.completion_function) {
 800163c:	4b34      	ldr	r3, [pc, #208]	@ (8001710 <USART1_EXTI25_IRQHandler+0x1d0>)
 800163e:	6a5b      	ldr	r3, [r3, #36]	@ 0x24
 8001640:	2b00      	cmp	r3, #0
 8001642:	d005      	beq.n	8001650 <USART1_EXTI25_IRQHandler+0x110>
                USART1_PORT.completion_function(transmit_length);
 8001644:	4b32      	ldr	r3, [pc, #200]	@ (8001710 <USART1_EXTI25_IRQHandler+0x1d0>)
 8001646:	6a5b      	ldr	r3, [r3, #36]	@ 0x24
 8001648:	4a36      	ldr	r2, [pc, #216]	@ (8001724 <USART1_EXTI25_IRQHandler+0x1e4>)
 800164a:	6812      	ldr	r2, [r2, #0]
 800164c:	4610      	mov	r0, r2
 800164e:	4798      	blx	r3
            }

            is_transmitting = 0;
 8001650:	4b33      	ldr	r3, [pc, #204]	@ (8001720 <USART1_EXTI25_IRQHandler+0x1e0>)
 8001652:	2200      	movs	r2, #0
 8001654:	701a      	strb	r2, [r3, #0]

            // If more data was filled during transmission, swap buffers and restart
            if (fill_index > 0) {
 8001656:	4b36      	ldr	r3, [pc, #216]	@ (8001730 <USART1_EXTI25_IRQHandler+0x1f0>)
 8001658:	681b      	ldr	r3, [r3, #0]
 800165a:	2b00      	cmp	r3, #0
 800165c:	d01c      	beq.n	8001698 <USART1_EXTI25_IRQHandler+0x158>
                uint8_t *temp = fill_buffer;
 800165e:	4b35      	ldr	r3, [pc, #212]	@ (8001734 <USART1_EXTI25_IRQHandler+0x1f4>)
 8001660:	681b      	ldr	r3, [r3, #0]
 8001662:	62fb      	str	r3, [r7, #44]	@ 0x2c
                fill_buffer = transmit_buffer;
 8001664:	4b31      	ldr	r3, [pc, #196]	@ (800172c <USART1_EXTI25_IRQHandler+0x1ec>)
 8001666:	681b      	ldr	r3, [r3, #0]
 8001668:	4a32      	ldr	r2, [pc, #200]	@ (8001734 <USART1_EXTI25_IRQHandler+0x1f4>)
 800166a:	6013      	str	r3, [r2, #0]
                transmit_buffer = temp;
 800166c:	4a2f      	ldr	r2, [pc, #188]	@ (800172c <USART1_EXTI25_IRQHandler+0x1ec>)
 800166e:	6afb      	ldr	r3, [r7, #44]	@ 0x2c
 8001670:	6013      	str	r3, [r2, #0]

                transmit_length = fill_index;
 8001672:	4b2f      	ldr	r3, [pc, #188]	@ (8001730 <USART1_EXTI25_IRQHandler+0x1f0>)
 8001674:	681b      	ldr	r3, [r3, #0]
 8001676:	4a2b      	ldr	r2, [pc, #172]	@ (8001724 <USART1_EXTI25_IRQHandler+0x1e4>)
 8001678:	6013      	str	r3, [r2, #0]
                fill_index = 0;
 800167a:	4b2d      	ldr	r3, [pc, #180]	@ (8001730 <USART1_EXTI25_IRQHandler+0x1f0>)
 800167c:	2200      	movs	r2, #0
 800167e:	601a      	str	r2, [r3, #0]
                transmit_index = 0;
 8001680:	4b29      	ldr	r3, [pc, #164]	@ (8001728 <USART1_EXTI25_IRQHandler+0x1e8>)
 8001682:	2200      	movs	r2, #0
 8001684:	601a      	str	r2, [r3, #0]

                is_transmitting = 1;
 8001686:	4b26      	ldr	r3, [pc, #152]	@ (8001720 <USART1_EXTI25_IRQHandler+0x1e0>)
 8001688:	2201      	movs	r2, #1
 800168a:	701a      	strb	r2, [r3, #0]
                USART1->CR1 |= USART_CR1_TXEIE;
 800168c:	4b1f      	ldr	r3, [pc, #124]	@ (800170c <USART1_EXTI25_IRQHandler+0x1cc>)
 800168e:	681b      	ldr	r3, [r3, #0]
 8001690:	4a1e      	ldr	r2, [pc, #120]	@ (800170c <USART1_EXTI25_IRQHandler+0x1cc>)
 8001692:	f043 0380 	orr.w	r3, r3, #128	@ 0x80
 8001696:	6013      	str	r3, [r2, #0]
            }
        }
    }

    // === Post-command processing ===
    if (input_received_flag == 1) {
 8001698:	4b20      	ldr	r3, [pc, #128]	@ (800171c <USART1_EXTI25_IRQHandler+0x1dc>)
 800169a:	781b      	ldrb	r3, [r3, #0]
 800169c:	b2db      	uxtb	r3, r3
 800169e:	2b01      	cmp	r3, #1
 80016a0:	d131      	bne.n	8001706 <USART1_EXTI25_IRQHandler+0x1c6>
        SerialOutputStringDB((uint8_t *)received_string, &USART1_PORT);  // <-- Use DB version here
 80016a2:	491b      	ldr	r1, [pc, #108]	@ (8001710 <USART1_EXTI25_IRQHandler+0x1d0>)
 80016a4:	481c      	ldr	r0, [pc, #112]	@ (8001718 <USART1_EXTI25_IRQHandler+0x1d8>)
 80016a6:	f000 f84b 	bl	8001740 <SerialOutputStringDB>

        if (is_start_command(received_string) == 1) {
 80016aa:	481b      	ldr	r0, [pc, #108]	@ (8001718 <USART1_EXTI25_IRQHandler+0x1d8>)
 80016ac:	f7ff ff34 	bl	8001518 <is_start_command>
 80016b0:	4603      	mov	r3, r0
 80016b2:	2b01      	cmp	r3, #1
 80016b4:	d113      	bne.n	80016de <USART1_EXTI25_IRQHandler+0x19e>
            uint8_t response[] = "\n--SECRET-- Command START received.\n";
 80016b6:	4b20      	ldr	r3, [pc, #128]	@ (8001738 <USART1_EXTI25_IRQHandler+0x1f8>)
 80016b8:	1d3c      	adds	r4, r7, #4
 80016ba:	461d      	mov	r5, r3
 80016bc:	cd0f      	ldmia	r5!, {r0, r1, r2, r3}
 80016be:	c40f      	stmia	r4!, {r0, r1, r2, r3}
 80016c0:	cd0f      	ldmia	r5!, {r0, r1, r2, r3}
 80016c2:	c40f      	stmia	r4!, {r0, r1, r2, r3}
 80016c4:	e895 0003 	ldmia.w	r5, {r0, r1}
 80016c8:	6020      	str	r0, [r4, #0]
 80016ca:	3404      	adds	r4, #4
 80016cc:	7021      	strb	r1, [r4, #0]
            SerialOutputStringDB(response, &USART1_PORT);  // <-- Use DB version here
 80016ce:	1d3b      	adds	r3, r7, #4
 80016d0:	490f      	ldr	r1, [pc, #60]	@ (8001710 <USART1_EXTI25_IRQHandler+0x1d0>)
 80016d2:	4618      	mov	r0, r3
 80016d4:	f000 f834 	bl	8001740 <SerialOutputStringDB>
            start_flag = 1;
 80016d8:	4b18      	ldr	r3, [pc, #96]	@ (800173c <USART1_EXTI25_IRQHandler+0x1fc>)
 80016da:	2201      	movs	r2, #1
 80016dc:	701a      	strb	r2, [r3, #0]
        }

        // Reset state
        string_index = 0;
 80016de:	4b0d      	ldr	r3, [pc, #52]	@ (8001714 <USART1_EXTI25_IRQHandler+0x1d4>)
 80016e0:	2200      	movs	r2, #0
 80016e2:	601a      	str	r2, [r3, #0]
        input_received_flag = 0;
 80016e4:	4b0d      	ldr	r3, [pc, #52]	@ (800171c <USART1_EXTI25_IRQHandler+0x1dc>)
 80016e6:	2200      	movs	r2, #0
 80016e8:	701a      	strb	r2, [r3, #0]

        for (uint32_t i = 0; i < MAX_BUFFER_LENGTH; i++) {
 80016ea:	2300      	movs	r3, #0
 80016ec:	637b      	str	r3, [r7, #52]	@ 0x34
 80016ee:	e007      	b.n	8001700 <USART1_EXTI25_IRQHandler+0x1c0>
            received_string[i] = 0;
 80016f0:	4a09      	ldr	r2, [pc, #36]	@ (8001718 <USART1_EXTI25_IRQHandler+0x1d8>)
 80016f2:	6b7b      	ldr	r3, [r7, #52]	@ 0x34
 80016f4:	4413      	add	r3, r2
 80016f6:	2200      	movs	r2, #0
 80016f8:	701a      	strb	r2, [r3, #0]
        for (uint32_t i = 0; i < MAX_BUFFER_LENGTH; i++) {
 80016fa:	6b7b      	ldr	r3, [r7, #52]	@ 0x34
 80016fc:	3301      	adds	r3, #1
 80016fe:	637b      	str	r3, [r7, #52]	@ 0x34
 8001700:	6b7b      	ldr	r3, [r7, #52]	@ 0x34
 8001702:	2b7f      	cmp	r3, #127	@ 0x7f
 8001704:	d9f4      	bls.n	80016f0 <USART1_EXTI25_IRQHandler+0x1b0>
        }
    }
}
 8001706:	3738      	adds	r7, #56	@ 0x38
 8001708:	46bd      	mov	sp, r7
 800170a:	bdb0      	pop	{r4, r5, r7, pc}
 800170c:	40013800 	.word	0x40013800
 8001710:	20000004 	.word	0x20000004
 8001714:	2000029c 	.word	0x2000029c
 8001718:	2000021c 	.word	0x2000021c
 800171c:	20000218 	.word	0x20000218
 8001720:	200004b0 	.word	0x200004b0
 8001724:	200004ac 	.word	0x200004ac
 8001728:	200004a8 	.word	0x200004a8
 800172c:	20000030 	.word	0x20000030
 8001730:	200004a4 	.word	0x200004a4
 8001734:	2000002c 	.word	0x2000002c
 8001738:	08004824 	.word	0x08004824
 800173c:	200002a0 	.word	0x200002a0

08001740 <SerialOutputStringDB>:

void SerialOutputStringDB(uint8_t *pt, SerialPort *serial_port) {
 8001740:	b490      	push	{r4, r7}
 8001742:	b084      	sub	sp, #16
 8001744:	af00      	add	r7, sp, #0
 8001746:	6078      	str	r0, [r7, #4]
 8001748:	6039      	str	r1, [r7, #0]
  __ASM volatile ("cpsid i" : : : "memory");
 800174a:	b672      	cpsid	i
}
 800174c:	bf00      	nop
    // Disable interrupts briefly if necessary for concurrency safety
    __disable_irq();

    // Append the string to the fill buffer until either the string ends or the fill buffer is nearly full
    while(*pt && fill_index < (DB_BUFFER_SIZE - 1)) {
 800174e:	e00c      	b.n	800176a <SerialOutputStringDB+0x2a>
        fill_buffer[fill_index++] = *pt++;
 8001750:	687b      	ldr	r3, [r7, #4]
 8001752:	1c5a      	adds	r2, r3, #1
 8001754:	607a      	str	r2, [r7, #4]
 8001756:	4a22      	ldr	r2, [pc, #136]	@ (80017e0 <SerialOutputStringDB+0xa0>)
 8001758:	6811      	ldr	r1, [r2, #0]
 800175a:	4a22      	ldr	r2, [pc, #136]	@ (80017e4 <SerialOutputStringDB+0xa4>)
 800175c:	6812      	ldr	r2, [r2, #0]
 800175e:	1c50      	adds	r0, r2, #1
 8001760:	4c20      	ldr	r4, [pc, #128]	@ (80017e4 <SerialOutputStringDB+0xa4>)
 8001762:	6020      	str	r0, [r4, #0]
 8001764:	440a      	add	r2, r1
 8001766:	781b      	ldrb	r3, [r3, #0]
 8001768:	7013      	strb	r3, [r2, #0]
    while(*pt && fill_index < (DB_BUFFER_SIZE - 1)) {
 800176a:	687b      	ldr	r3, [r7, #4]
 800176c:	781b      	ldrb	r3, [r3, #0]
 800176e:	2b00      	cmp	r3, #0
 8001770:	d003      	beq.n	800177a <SerialOutputStringDB+0x3a>
 8001772:	4b1c      	ldr	r3, [pc, #112]	@ (80017e4 <SerialOutputStringDB+0xa4>)
 8001774:	681b      	ldr	r3, [r3, #0]
 8001776:	2bfe      	cmp	r3, #254	@ 0xfe
 8001778:	d9ea      	bls.n	8001750 <SerialOutputStringDB+0x10>
    }
    // Null terminate the string (if needed, though the TX routine could use transmit_length)
    fill_buffer[fill_index] = '\0';
 800177a:	4b19      	ldr	r3, [pc, #100]	@ (80017e0 <SerialOutputStringDB+0xa0>)
 800177c:	681a      	ldr	r2, [r3, #0]
 800177e:	4b19      	ldr	r3, [pc, #100]	@ (80017e4 <SerialOutputStringDB+0xa4>)
 8001780:	681b      	ldr	r3, [r3, #0]
 8001782:	4413      	add	r3, r2
 8001784:	2200      	movs	r2, #0
 8001786:	701a      	strb	r2, [r3, #0]

    // If no transmission is active, swap the buffers and kick-off the sending process
    if (!is_transmitting) {
 8001788:	4b17      	ldr	r3, [pc, #92]	@ (80017e8 <SerialOutputStringDB+0xa8>)
 800178a:	781b      	ldrb	r3, [r3, #0]
 800178c:	b2db      	uxtb	r3, r3
 800178e:	2b00      	cmp	r3, #0
 8001790:	d11e      	bne.n	80017d0 <SerialOutputStringDB+0x90>
        // Swap the pointers: the current fill buffer becomes the transmit buffer.
        uint8_t *temp = fill_buffer;
 8001792:	4b13      	ldr	r3, [pc, #76]	@ (80017e0 <SerialOutputStringDB+0xa0>)
 8001794:	681b      	ldr	r3, [r3, #0]
 8001796:	60fb      	str	r3, [r7, #12]
        fill_buffer = transmit_buffer;
 8001798:	4b14      	ldr	r3, [pc, #80]	@ (80017ec <SerialOutputStringDB+0xac>)
 800179a:	681b      	ldr	r3, [r3, #0]
 800179c:	4a10      	ldr	r2, [pc, #64]	@ (80017e0 <SerialOutputStringDB+0xa0>)
 800179e:	6013      	str	r3, [r2, #0]
        transmit_buffer = temp;
 80017a0:	4a12      	ldr	r2, [pc, #72]	@ (80017ec <SerialOutputStringDB+0xac>)
 80017a2:	68fb      	ldr	r3, [r7, #12]
 80017a4:	6013      	str	r3, [r2, #0]

        // Set the transmit length equal to the number of bytes in the (old) fill buffer.
        transmit_length = fill_index;
 80017a6:	4b0f      	ldr	r3, [pc, #60]	@ (80017e4 <SerialOutputStringDB+0xa4>)
 80017a8:	681b      	ldr	r3, [r3, #0]
 80017aa:	4a11      	ldr	r2, [pc, #68]	@ (80017f0 <SerialOutputStringDB+0xb0>)
 80017ac:	6013      	str	r3, [r2, #0]

        // Reset the fill index (so the new fill buffer starts empty)
        fill_index = 0;
 80017ae:	4b0d      	ldr	r3, [pc, #52]	@ (80017e4 <SerialOutputStringDB+0xa4>)
 80017b0:	2200      	movs	r2, #0
 80017b2:	601a      	str	r2, [r3, #0]
        transmit_index = 0;
 80017b4:	4b0f      	ldr	r3, [pc, #60]	@ (80017f4 <SerialOutputStringDB+0xb4>)
 80017b6:	2200      	movs	r2, #0
 80017b8:	601a      	str	r2, [r3, #0]

        // Mark that we are transmitting and start the TX empty interrupt.
        is_transmitting = 1;
 80017ba:	4b0b      	ldr	r3, [pc, #44]	@ (80017e8 <SerialOutputStringDB+0xa8>)
 80017bc:	2201      	movs	r2, #1
 80017be:	701a      	strb	r2, [r3, #0]
        serial_port->UART->CR1 |= USART_CR1_TXEIE;
 80017c0:	683b      	ldr	r3, [r7, #0]
 80017c2:	681b      	ldr	r3, [r3, #0]
 80017c4:	681a      	ldr	r2, [r3, #0]
 80017c6:	683b      	ldr	r3, [r7, #0]
 80017c8:	681b      	ldr	r3, [r3, #0]
 80017ca:	f042 0280 	orr.w	r2, r2, #128	@ 0x80
 80017ce:	601a      	str	r2, [r3, #0]
  __ASM volatile ("cpsie i" : : : "memory");
 80017d0:	b662      	cpsie	i
}
 80017d2:	bf00      	nop
    }
    __enable_irq();
}
 80017d4:	bf00      	nop
 80017d6:	3710      	adds	r7, #16
 80017d8:	46bd      	mov	sp, r7
 80017da:	bc90      	pop	{r4, r7}
 80017dc:	4770      	bx	lr
 80017de:	bf00      	nop
 80017e0:	2000002c 	.word	0x2000002c
 80017e4:	200004a4 	.word	0x200004a4
 80017e8:	200004b0 	.word	0x200004b0
 80017ec:	20000030 	.word	0x20000030
 80017f0:	200004ac 	.word	0x200004ac
 80017f4:	200004a8 	.word	0x200004a8

080017f8 <generate_shape>:
#include "shape.h"

#include <stdio.h>


struct shape generate_shape(uint32_t type, uint32_t dimension_1, uint32_t dimension_2) {
 80017f8:	b4b0      	push	{r4, r5, r7}
 80017fa:	b08b      	sub	sp, #44	@ 0x2c
 80017fc:	af00      	add	r7, sp, #0
 80017fe:	60f8      	str	r0, [r7, #12]
 8001800:	60b9      	str	r1, [r7, #8]
 8001802:	607a      	str	r2, [r7, #4]
 8001804:	603b      	str	r3, [r7, #0]

  struct shape new_shape;

  new_shape.type = type;
 8001806:	68bb      	ldr	r3, [r7, #8]
 8001808:	61fb      	str	r3, [r7, #28]
  new_shape.dimension_1 = dimension_1;
 800180a:	687b      	ldr	r3, [r7, #4]
 800180c:	617b      	str	r3, [r7, #20]
  new_shape.dimension_2 = dimension_2;
 800180e:	683b      	ldr	r3, [r7, #0]
 8001810:	61bb      	str	r3, [r7, #24]
  new_shape.location = 0.;
 8001812:	f04f 0300 	mov.w	r3, #0
 8001816:	623b      	str	r3, [r7, #32]
  new_shape.is_initialised = true;
 8001818:	2301      	movs	r3, #1
 800181a:	f887 3024 	strb.w	r3, [r7, #36]	@ 0x24

  return new_shape;
 800181e:	68fb      	ldr	r3, [r7, #12]
 8001820:	461d      	mov	r5, r3
 8001822:	f107 0414 	add.w	r4, r7, #20
 8001826:	cc0f      	ldmia	r4!, {r0, r1, r2, r3}
 8001828:	c50f      	stmia	r5!, {r0, r1, r2, r3}
 800182a:	6823      	ldr	r3, [r4, #0]
 800182c:	602b      	str	r3, [r5, #0]
}
 800182e:	68f8      	ldr	r0, [r7, #12]
 8001830:	372c      	adds	r7, #44	@ 0x2c
 8001832:	46bd      	mov	sp, r7
 8001834:	bcb0      	pop	{r4, r5, r7}
 8001836:	4770      	bx	lr

08001838 <initialise_shape>:


// returns true for success, false for failure
int initialise_shape(struct shape *_shape, uint32_t type, uint32_t dimension_1, uint32_t dimension_2) {
 8001838:	b480      	push	{r7}
 800183a:	b085      	sub	sp, #20
 800183c:	af00      	add	r7, sp, #0
 800183e:	60f8      	str	r0, [r7, #12]
 8001840:	60b9      	str	r1, [r7, #8]
 8001842:	607a      	str	r2, [r7, #4]
 8001844:	603b      	str	r3, [r7, #0]

  if (dimension_1 <= 0 || dimension_2 <= 0)
 8001846:	687b      	ldr	r3, [r7, #4]
 8001848:	2b00      	cmp	r3, #0
 800184a:	d002      	beq.n	8001852 <initialise_shape+0x1a>
 800184c:	683b      	ldr	r3, [r7, #0]
 800184e:	2b00      	cmp	r3, #0
 8001850:	d101      	bne.n	8001856 <initialise_shape+0x1e>
    return false;
 8001852:	2300      	movs	r3, #0
 8001854:	e010      	b.n	8001878 <initialise_shape+0x40>

  _shape->type = type;
 8001856:	68fb      	ldr	r3, [r7, #12]
 8001858:	68ba      	ldr	r2, [r7, #8]
 800185a:	609a      	str	r2, [r3, #8]
  _shape->dimension_1 = dimension_1;
 800185c:	68fb      	ldr	r3, [r7, #12]
 800185e:	687a      	ldr	r2, [r7, #4]
 8001860:	601a      	str	r2, [r3, #0]
  _shape->dimension_2 = dimension_2;
 8001862:	68fb      	ldr	r3, [r7, #12]
 8001864:	683a      	ldr	r2, [r7, #0]
 8001866:	605a      	str	r2, [r3, #4]
  _shape->location = 0.;
 8001868:	68fb      	ldr	r3, [r7, #12]
 800186a:	f04f 0200 	mov.w	r2, #0
 800186e:	60da      	str	r2, [r3, #12]
  _shape->is_initialised = true;
 8001870:	68fb      	ldr	r3, [r7, #12]
 8001872:	2201      	movs	r2, #1
 8001874:	741a      	strb	r2, [r3, #16]

  return true;
 8001876:	2301      	movs	r3, #1
}
 8001878:	4618      	mov	r0, r3
 800187a:	3714      	adds	r7, #20
 800187c:	46bd      	mov	sp, r7
 800187e:	bc80      	pop	{r7}
 8001880:	4770      	bx	lr
	...

08001884 <shape_string>:


void shape_string(struct shape *_shape, uint8_t *string) {
 8001884:	b5b0      	push	{r4, r5, r7, lr}
 8001886:	b084      	sub	sp, #16
 8001888:	af02      	add	r7, sp, #8
 800188a:	6078      	str	r0, [r7, #4]
 800188c:	6039      	str	r1, [r7, #0]
  
  switch(_shape->type) {
 800188e:	687b      	ldr	r3, [r7, #4]
 8001890:	689b      	ldr	r3, [r3, #8]
 8001892:	2b02      	cmp	r3, #2
 8001894:	d017      	beq.n	80018c6 <shape_string+0x42>
 8001896:	2b02      	cmp	r3, #2
 8001898:	d83a      	bhi.n	8001910 <shape_string+0x8c>
 800189a:	2b00      	cmp	r3, #0
 800189c:	d002      	beq.n	80018a4 <shape_string+0x20>
 800189e:	2b01      	cmp	r3, #1
 80018a0:	d025      	beq.n	80018ee <shape_string+0x6a>
 80018a2:	e035      	b.n	8001910 <shape_string+0x8c>
    case SHAPE_SPHERE:
      sprintf((int8_t*)string, "\nShape is a SPHERE, radius is %lu, location is %.2f \r", _shape->dimension_1, _shape->location);
 80018a4:	687b      	ldr	r3, [r7, #4]
 80018a6:	681c      	ldr	r4, [r3, #0]
 80018a8:	687b      	ldr	r3, [r7, #4]
 80018aa:	68db      	ldr	r3, [r3, #12]
 80018ac:	4618      	mov	r0, r3
 80018ae:	f7fe ff11 	bl	80006d4 <__aeabi_f2d>
 80018b2:	4602      	mov	r2, r0
 80018b4:	460b      	mov	r3, r1
 80018b6:	e9cd 2300 	strd	r2, r3, [sp]
 80018ba:	4622      	mov	r2, r4
 80018bc:	491f      	ldr	r1, [pc, #124]	@ (800193c <shape_string+0xb8>)
 80018be:	6838      	ldr	r0, [r7, #0]
 80018c0:	f000 fe3e 	bl	8002540 <siprintf>
      break;
 80018c4:	e035      	b.n	8001932 <shape_string+0xae>
    case SHAPE_CONE:
      sprintf((int8_t*)string, "\nShape is a CONE, radius is %lu, height is %lu, location is %.2f \r", _shape->dimension_1, _shape->dimension_2, _shape->location);
 80018c6:	687b      	ldr	r3, [r7, #4]
 80018c8:	681c      	ldr	r4, [r3, #0]
 80018ca:	687b      	ldr	r3, [r7, #4]
 80018cc:	685d      	ldr	r5, [r3, #4]
 80018ce:	687b      	ldr	r3, [r7, #4]
 80018d0:	68db      	ldr	r3, [r3, #12]
 80018d2:	4618      	mov	r0, r3
 80018d4:	f7fe fefe 	bl	80006d4 <__aeabi_f2d>
 80018d8:	4602      	mov	r2, r0
 80018da:	460b      	mov	r3, r1
 80018dc:	e9cd 2300 	strd	r2, r3, [sp]
 80018e0:	462b      	mov	r3, r5
 80018e2:	4622      	mov	r2, r4
 80018e4:	4916      	ldr	r1, [pc, #88]	@ (8001940 <shape_string+0xbc>)
 80018e6:	6838      	ldr	r0, [r7, #0]
 80018e8:	f000 fe2a 	bl	8002540 <siprintf>
      break;
 80018ec:	e021      	b.n	8001932 <shape_string+0xae>
    case SHAPE_CUBE:
      sprintf((int8_t*)string, "\nShape is a CUBE, side length is %lu, location is %.2f \r", _shape->dimension_1, _shape->location);
 80018ee:	687b      	ldr	r3, [r7, #4]
 80018f0:	681c      	ldr	r4, [r3, #0]
 80018f2:	687b      	ldr	r3, [r7, #4]
 80018f4:	68db      	ldr	r3, [r3, #12]
 80018f6:	4618      	mov	r0, r3
 80018f8:	f7fe feec 	bl	80006d4 <__aeabi_f2d>
 80018fc:	4602      	mov	r2, r0
 80018fe:	460b      	mov	r3, r1
 8001900:	e9cd 2300 	strd	r2, r3, [sp]
 8001904:	4622      	mov	r2, r4
 8001906:	490f      	ldr	r1, [pc, #60]	@ (8001944 <shape_string+0xc0>)
 8001908:	6838      	ldr	r0, [r7, #0]
 800190a:	f000 fe19 	bl	8002540 <siprintf>
      break;
 800190e:	e010      	b.n	8001932 <shape_string+0xae>
    default:
      sprintf((int8_t*)string, "\nShape is a UNKNOWN, type is %lu, location is %.2f \r", _shape->type, _shape->location);
 8001910:	687b      	ldr	r3, [r7, #4]
 8001912:	689c      	ldr	r4, [r3, #8]
 8001914:	687b      	ldr	r3, [r7, #4]
 8001916:	68db      	ldr	r3, [r3, #12]
 8001918:	4618      	mov	r0, r3
 800191a:	f7fe fedb 	bl	80006d4 <__aeabi_f2d>
 800191e:	4602      	mov	r2, r0
 8001920:	460b      	mov	r3, r1
 8001922:	e9cd 2300 	strd	r2, r3, [sp]
 8001926:	4622      	mov	r2, r4
 8001928:	4907      	ldr	r1, [pc, #28]	@ (8001948 <shape_string+0xc4>)
 800192a:	6838      	ldr	r0, [r7, #0]
 800192c:	f000 fe08 	bl	8002540 <siprintf>
      break;
 8001930:	bf00      	nop
    
  }
}
 8001932:	bf00      	nop
 8001934:	3708      	adds	r7, #8
 8001936:	46bd      	mov	sp, r7
 8001938:	bdb0      	pop	{r4, r5, r7, pc}
 800193a:	bf00      	nop
 800193c:	0800484c 	.word	0x0800484c
 8001940:	08004884 	.word	0x08004884
 8001944:	080048c8 	.word	0x080048c8
 8001948:	08004904 	.word	0x08004904

0800194c <_getpid>:
void initialise_monitor_handles()
{
}

int _getpid(void)
{
 800194c:	b480      	push	{r7}
 800194e:	af00      	add	r7, sp, #0
	return 1;
 8001950:	2301      	movs	r3, #1
}
 8001952:	4618      	mov	r0, r3
 8001954:	46bd      	mov	sp, r7
 8001956:	bc80      	pop	{r7}
 8001958:	4770      	bx	lr

0800195a <_kill>:

int _kill(int pid, int sig)
{
 800195a:	b580      	push	{r7, lr}
 800195c:	b082      	sub	sp, #8
 800195e:	af00      	add	r7, sp, #0
 8001960:	6078      	str	r0, [r7, #4]
 8001962:	6039      	str	r1, [r7, #0]
	errno = EINVAL;
 8001964:	f000 feea 	bl	800273c <__errno>
 8001968:	4603      	mov	r3, r0
 800196a:	2216      	movs	r2, #22
 800196c:	601a      	str	r2, [r3, #0]
	return -1;
 800196e:	f04f 33ff 	mov.w	r3, #4294967295	@ 0xffffffff
}
 8001972:	4618      	mov	r0, r3
 8001974:	3708      	adds	r7, #8
 8001976:	46bd      	mov	sp, r7
 8001978:	bd80      	pop	{r7, pc}

0800197a <_exit>:

void _exit (int status)
{
 800197a:	b580      	push	{r7, lr}
 800197c:	b082      	sub	sp, #8
 800197e:	af00      	add	r7, sp, #0
 8001980:	6078      	str	r0, [r7, #4]
	_kill(status, -1);
 8001982:	f04f 31ff 	mov.w	r1, #4294967295	@ 0xffffffff
 8001986:	6878      	ldr	r0, [r7, #4]
 8001988:	f7ff ffe7 	bl	800195a <_kill>
	while (1) {}		/* Make sure we hang here */
 800198c:	bf00      	nop
 800198e:	e7fd      	b.n	800198c <_exit+0x12>

08001990 <_read>:
}

__attribute__((weak)) int _read(int file, char *ptr, int len)
{
 8001990:	b580      	push	{r7, lr}
 8001992:	b086      	sub	sp, #24
 8001994:	af00      	add	r7, sp, #0
 8001996:	60f8      	str	r0, [r7, #12]
 8001998:	60b9      	str	r1, [r7, #8]
 800199a:	607a      	str	r2, [r7, #4]
	int DataIdx;

	for (DataIdx = 0; DataIdx < len; DataIdx++)
 800199c:	2300      	movs	r3, #0
 800199e:	617b      	str	r3, [r7, #20]
 80019a0:	e00a      	b.n	80019b8 <_read+0x28>
	{
		*ptr++ = __io_getchar();
 80019a2:	f3af 8000 	nop.w
 80019a6:	4601      	mov	r1, r0
 80019a8:	68bb      	ldr	r3, [r7, #8]
 80019aa:	1c5a      	adds	r2, r3, #1
 80019ac:	60ba      	str	r2, [r7, #8]
 80019ae:	b2ca      	uxtb	r2, r1
 80019b0:	701a      	strb	r2, [r3, #0]
	for (DataIdx = 0; DataIdx < len; DataIdx++)
 80019b2:	697b      	ldr	r3, [r7, #20]
 80019b4:	3301      	adds	r3, #1
 80019b6:	617b      	str	r3, [r7, #20]
 80019b8:	697a      	ldr	r2, [r7, #20]
 80019ba:	687b      	ldr	r3, [r7, #4]
 80019bc:	429a      	cmp	r2, r3
 80019be:	dbf0      	blt.n	80019a2 <_read+0x12>
	}

return len;
 80019c0:	687b      	ldr	r3, [r7, #4]
}
 80019c2:	4618      	mov	r0, r3
 80019c4:	3718      	adds	r7, #24
 80019c6:	46bd      	mov	sp, r7
 80019c8:	bd80      	pop	{r7, pc}

080019ca <_write>:

__attribute__((weak)) int _write(int file, char *ptr, int len)
{
 80019ca:	b580      	push	{r7, lr}
 80019cc:	b086      	sub	sp, #24
 80019ce:	af00      	add	r7, sp, #0
 80019d0:	60f8      	str	r0, [r7, #12]
 80019d2:	60b9      	str	r1, [r7, #8]
 80019d4:	607a      	str	r2, [r7, #4]
	int DataIdx;

	for (DataIdx = 0; DataIdx < len; DataIdx++)
 80019d6:	2300      	movs	r3, #0
 80019d8:	617b      	str	r3, [r7, #20]
 80019da:	e009      	b.n	80019f0 <_write+0x26>
	{
		__io_putchar(*ptr++);
 80019dc:	68bb      	ldr	r3, [r7, #8]
 80019de:	1c5a      	adds	r2, r3, #1
 80019e0:	60ba      	str	r2, [r7, #8]
 80019e2:	781b      	ldrb	r3, [r3, #0]
 80019e4:	4618      	mov	r0, r3
 80019e6:	f3af 8000 	nop.w
	for (DataIdx = 0; DataIdx < len; DataIdx++)
 80019ea:	697b      	ldr	r3, [r7, #20]
 80019ec:	3301      	adds	r3, #1
 80019ee:	617b      	str	r3, [r7, #20]
 80019f0:	697a      	ldr	r2, [r7, #20]
 80019f2:	687b      	ldr	r3, [r7, #4]
 80019f4:	429a      	cmp	r2, r3
 80019f6:	dbf1      	blt.n	80019dc <_write+0x12>
	}
	return len;
 80019f8:	687b      	ldr	r3, [r7, #4]
}
 80019fa:	4618      	mov	r0, r3
 80019fc:	3718      	adds	r7, #24
 80019fe:	46bd      	mov	sp, r7
 8001a00:	bd80      	pop	{r7, pc}

08001a02 <_close>:

int _close(int file)
{
 8001a02:	b480      	push	{r7}
 8001a04:	b083      	sub	sp, #12
 8001a06:	af00      	add	r7, sp, #0
 8001a08:	6078      	str	r0, [r7, #4]
	return -1;
 8001a0a:	f04f 33ff 	mov.w	r3, #4294967295	@ 0xffffffff
}
 8001a0e:	4618      	mov	r0, r3
 8001a10:	370c      	adds	r7, #12
 8001a12:	46bd      	mov	sp, r7
 8001a14:	bc80      	pop	{r7}
 8001a16:	4770      	bx	lr

08001a18 <_fstat>:


int _fstat(int file, struct stat *st)
{
 8001a18:	b480      	push	{r7}
 8001a1a:	b083      	sub	sp, #12
 8001a1c:	af00      	add	r7, sp, #0
 8001a1e:	6078      	str	r0, [r7, #4]
 8001a20:	6039      	str	r1, [r7, #0]
	st->st_mode = S_IFCHR;
 8001a22:	683b      	ldr	r3, [r7, #0]
 8001a24:	f44f 5200 	mov.w	r2, #8192	@ 0x2000
 8001a28:	605a      	str	r2, [r3, #4]
	return 0;
 8001a2a:	2300      	movs	r3, #0
}
 8001a2c:	4618      	mov	r0, r3
 8001a2e:	370c      	adds	r7, #12
 8001a30:	46bd      	mov	sp, r7
 8001a32:	bc80      	pop	{r7}
 8001a34:	4770      	bx	lr

08001a36 <_isatty>:

int _isatty(int file)
{
 8001a36:	b480      	push	{r7}
 8001a38:	b083      	sub	sp, #12
 8001a3a:	af00      	add	r7, sp, #0
 8001a3c:	6078      	str	r0, [r7, #4]
	return 1;
 8001a3e:	2301      	movs	r3, #1
}
 8001a40:	4618      	mov	r0, r3
 8001a42:	370c      	adds	r7, #12
 8001a44:	46bd      	mov	sp, r7
 8001a46:	bc80      	pop	{r7}
 8001a48:	4770      	bx	lr

08001a4a <_lseek>:

int _lseek(int file, int ptr, int dir)
{
 8001a4a:	b480      	push	{r7}
 8001a4c:	b085      	sub	sp, #20
 8001a4e:	af00      	add	r7, sp, #0
 8001a50:	60f8      	str	r0, [r7, #12]
 8001a52:	60b9      	str	r1, [r7, #8]
 8001a54:	607a      	str	r2, [r7, #4]
	return 0;
 8001a56:	2300      	movs	r3, #0
}
 8001a58:	4618      	mov	r0, r3
 8001a5a:	3714      	adds	r7, #20
 8001a5c:	46bd      	mov	sp, r7
 8001a5e:	bc80      	pop	{r7}
 8001a60:	4770      	bx	lr
	...

08001a64 <_sbrk>:
 *
 * @param incr Memory size
 * @return Pointer to allocated memory
 */
void *_sbrk(ptrdiff_t incr)
{
 8001a64:	b580      	push	{r7, lr}
 8001a66:	b086      	sub	sp, #24
 8001a68:	af00      	add	r7, sp, #0
 8001a6a:	6078      	str	r0, [r7, #4]
  extern uint8_t _end; /* Symbol defined in the linker script */
  extern uint8_t _estack; /* Symbol defined in the linker script */
  extern uint32_t _Min_Stack_Size; /* Symbol defined in the linker script */
  const uint32_t stack_limit = (uint32_t)&_estack - (uint32_t)&_Min_Stack_Size;
 8001a6c:	4a14      	ldr	r2, [pc, #80]	@ (8001ac0 <_sbrk+0x5c>)
 8001a6e:	4b15      	ldr	r3, [pc, #84]	@ (8001ac4 <_sbrk+0x60>)
 8001a70:	1ad3      	subs	r3, r2, r3
 8001a72:	617b      	str	r3, [r7, #20]
  const uint8_t *max_heap = (uint8_t *)stack_limit;
 8001a74:	697b      	ldr	r3, [r7, #20]
 8001a76:	613b      	str	r3, [r7, #16]
  uint8_t *prev_heap_end;

  /* Initialize heap end at first call */
  if (NULL == __sbrk_heap_end)
 8001a78:	4b13      	ldr	r3, [pc, #76]	@ (8001ac8 <_sbrk+0x64>)
 8001a7a:	681b      	ldr	r3, [r3, #0]
 8001a7c:	2b00      	cmp	r3, #0
 8001a7e:	d102      	bne.n	8001a86 <_sbrk+0x22>
  {
    __sbrk_heap_end = &_end;
 8001a80:	4b11      	ldr	r3, [pc, #68]	@ (8001ac8 <_sbrk+0x64>)
 8001a82:	4a12      	ldr	r2, [pc, #72]	@ (8001acc <_sbrk+0x68>)
 8001a84:	601a      	str	r2, [r3, #0]
  }

  /* Protect heap from growing into the reserved MSP stack */
  if (__sbrk_heap_end + incr > max_heap)
 8001a86:	4b10      	ldr	r3, [pc, #64]	@ (8001ac8 <_sbrk+0x64>)
 8001a88:	681a      	ldr	r2, [r3, #0]
 8001a8a:	687b      	ldr	r3, [r7, #4]
 8001a8c:	4413      	add	r3, r2
 8001a8e:	693a      	ldr	r2, [r7, #16]
 8001a90:	429a      	cmp	r2, r3
 8001a92:	d207      	bcs.n	8001aa4 <_sbrk+0x40>
  {
    errno = ENOMEM;
 8001a94:	f000 fe52 	bl	800273c <__errno>
 8001a98:	4603      	mov	r3, r0
 8001a9a:	220c      	movs	r2, #12
 8001a9c:	601a      	str	r2, [r3, #0]
    return (void *)-1;
 8001a9e:	f04f 33ff 	mov.w	r3, #4294967295	@ 0xffffffff
 8001aa2:	e009      	b.n	8001ab8 <_sbrk+0x54>
  }

  prev_heap_end = __sbrk_heap_end;
 8001aa4:	4b08      	ldr	r3, [pc, #32]	@ (8001ac8 <_sbrk+0x64>)
 8001aa6:	681b      	ldr	r3, [r3, #0]
 8001aa8:	60fb      	str	r3, [r7, #12]
  __sbrk_heap_end += incr;
 8001aaa:	4b07      	ldr	r3, [pc, #28]	@ (8001ac8 <_sbrk+0x64>)
 8001aac:	681a      	ldr	r2, [r3, #0]
 8001aae:	687b      	ldr	r3, [r7, #4]
 8001ab0:	4413      	add	r3, r2
 8001ab2:	4a05      	ldr	r2, [pc, #20]	@ (8001ac8 <_sbrk+0x64>)
 8001ab4:	6013      	str	r3, [r2, #0]

  return (void *)prev_heap_end;
 8001ab6:	68fb      	ldr	r3, [r7, #12]
}
 8001ab8:	4618      	mov	r0, r3
 8001aba:	3718      	adds	r7, #24
 8001abc:	46bd      	mov	sp, r7
 8001abe:	bd80      	pop	{r7, pc}
 8001ac0:	2000a000 	.word	0x2000a000
 8001ac4:	00000400 	.word	0x00000400
 8001ac8:	200004b4 	.word	0x200004b4
 8001acc:	20000608 	.word	0x20000608

08001ad0 <Reset_Handler>:

  .section .text.Reset_Handler
  .weak Reset_Handler
  .type Reset_Handler, %function
Reset_Handler:
  ldr   r0, =_estack
 8001ad0:	480d      	ldr	r0, [pc, #52]	@ (8001b08 <LoopForever+0x2>)
  mov   sp, r0          /* set stack pointer */
 8001ad2:	4685      	mov	sp, r0
/* Call the clock system initialization function.*/
  bl  SystemInit
 8001ad4:	f3af 8000 	nop.w

/* Copy the data segment initializers from flash to SRAM */
  ldr r0, =_sdata
 8001ad8:	480c      	ldr	r0, [pc, #48]	@ (8001b0c <LoopForever+0x6>)
  ldr r1, =_edata
 8001ada:	490d      	ldr	r1, [pc, #52]	@ (8001b10 <LoopForever+0xa>)
  ldr r2, =_sidata
 8001adc:	4a0d      	ldr	r2, [pc, #52]	@ (8001b14 <LoopForever+0xe>)
  movs r3, #0
 8001ade:	2300      	movs	r3, #0
  b LoopCopyDataInit
 8001ae0:	e002      	b.n	8001ae8 <LoopCopyDataInit>

08001ae2 <CopyDataInit>:

CopyDataInit:
  ldr r4, [r2, r3]
 8001ae2:	58d4      	ldr	r4, [r2, r3]
  str r4, [r0, r3]
 8001ae4:	50c4      	str	r4, [r0, r3]
  adds r3, r3, #4
 8001ae6:	3304      	adds	r3, #4

08001ae8 <LoopCopyDataInit>:

LoopCopyDataInit:
  adds r4, r0, r3
 8001ae8:	18c4      	adds	r4, r0, r3
  cmp r4, r1
 8001aea:	428c      	cmp	r4, r1
  bcc CopyDataInit
 8001aec:	d3f9      	bcc.n	8001ae2 <CopyDataInit>

/* Zero fill the bss segment. */
  ldr r2, =_sbss
 8001aee:	4a0a      	ldr	r2, [pc, #40]	@ (8001b18 <LoopForever+0x12>)
  ldr r4, =_ebss
 8001af0:	4c0a      	ldr	r4, [pc, #40]	@ (8001b1c <LoopForever+0x16>)
  movs r3, #0
 8001af2:	2300      	movs	r3, #0
  b LoopFillZerobss
 8001af4:	e001      	b.n	8001afa <LoopFillZerobss>

08001af6 <FillZerobss>:

FillZerobss:
  str  r3, [r2]
 8001af6:	6013      	str	r3, [r2, #0]
  adds r2, r2, #4
 8001af8:	3204      	adds	r2, #4

08001afa <LoopFillZerobss>:

LoopFillZerobss:
  cmp r2, r4
 8001afa:	42a2      	cmp	r2, r4
  bcc FillZerobss
 8001afc:	d3fb      	bcc.n	8001af6 <FillZerobss>

/* Call static constructors */
  bl __libc_init_array
 8001afe:	f000 fe23 	bl	8002748 <__libc_init_array>
/* Call the application's entry point.*/
  bl main
 8001b02:	f7ff fa3b 	bl	8000f7c <main>

08001b06 <LoopForever>:

LoopForever:
    b LoopForever
 8001b06:	e7fe      	b.n	8001b06 <LoopForever>
  ldr   r0, =_estack
 8001b08:	2000a000 	.word	0x2000a000
  ldr r0, =_sdata
 8001b0c:	20000000 	.word	0x20000000
  ldr r1, =_edata
 8001b10:	200001fc 	.word	0x200001fc
  ldr r2, =_sidata
 8001b14:	08004cb8 	.word	0x08004cb8
  ldr r2, =_sbss
 8001b18:	200001fc 	.word	0x200001fc
  ldr r4, =_ebss
 8001b1c:	20000604 	.word	0x20000604

08001b20 <ADC1_2_IRQHandler>:
 * @retval : None
*/
  .section .text.Default_Handler,"ax",%progbits
Default_Handler:
Infinite_Loop:
  b Infinite_Loop
 8001b20:	e7fe      	b.n	8001b20 <ADC1_2_IRQHandler>

08001b22 <__cvt>:
 8001b22:	e92d 47f0 	stmdb	sp!, {r4, r5, r6, r7, r8, r9, sl, lr}
 8001b26:	b088      	sub	sp, #32
 8001b28:	2b00      	cmp	r3, #0
 8001b2a:	461d      	mov	r5, r3
 8001b2c:	4614      	mov	r4, r2
 8001b2e:	bfbc      	itt	lt
 8001b30:	f103 4300 	addlt.w	r3, r3, #2147483648	@ 0x80000000
 8001b34:	4614      	movlt	r4, r2
 8001b36:	9a12      	ldr	r2, [sp, #72]	@ 0x48
 8001b38:	9e10      	ldr	r6, [sp, #64]	@ 0x40
 8001b3a:	f8dd a04c 	ldr.w	sl, [sp, #76]	@ 0x4c
 8001b3e:	bfb6      	itet	lt
 8001b40:	461d      	movlt	r5, r3
 8001b42:	2300      	movge	r3, #0
 8001b44:	232d      	movlt	r3, #45	@ 0x2d
 8001b46:	7013      	strb	r3, [r2, #0]
 8001b48:	9b14      	ldr	r3, [sp, #80]	@ 0x50
 8001b4a:	f023 0820 	bic.w	r8, r3, #32
 8001b4e:	f1b8 0f46 	cmp.w	r8, #70	@ 0x46
 8001b52:	d005      	beq.n	8001b60 <__cvt+0x3e>
 8001b54:	f1b8 0f45 	cmp.w	r8, #69	@ 0x45
 8001b58:	d100      	bne.n	8001b5c <__cvt+0x3a>
 8001b5a:	3601      	adds	r6, #1
 8001b5c:	2302      	movs	r3, #2
 8001b5e:	e000      	b.n	8001b62 <__cvt+0x40>
 8001b60:	2303      	movs	r3, #3
 8001b62:	aa07      	add	r2, sp, #28
 8001b64:	9204      	str	r2, [sp, #16]
 8001b66:	aa06      	add	r2, sp, #24
 8001b68:	e9cd a202 	strd	sl, r2, [sp, #8]
 8001b6c:	e9cd 3600 	strd	r3, r6, [sp]
 8001b70:	4622      	mov	r2, r4
 8001b72:	462b      	mov	r3, r5
 8001b74:	f000 fe98 	bl	80028a8 <_dtoa_r>
 8001b78:	f1b8 0f47 	cmp.w	r8, #71	@ 0x47
 8001b7c:	4607      	mov	r7, r0
 8001b7e:	d119      	bne.n	8001bb4 <__cvt+0x92>
 8001b80:	9b11      	ldr	r3, [sp, #68]	@ 0x44
 8001b82:	07db      	lsls	r3, r3, #31
 8001b84:	d50e      	bpl.n	8001ba4 <__cvt+0x82>
 8001b86:	eb00 0906 	add.w	r9, r0, r6
 8001b8a:	2200      	movs	r2, #0
 8001b8c:	2300      	movs	r3, #0
 8001b8e:	4620      	mov	r0, r4
 8001b90:	4629      	mov	r1, r5
 8001b92:	f7ff f85f 	bl	8000c54 <__aeabi_dcmpeq>
 8001b96:	b108      	cbz	r0, 8001b9c <__cvt+0x7a>
 8001b98:	f8cd 901c 	str.w	r9, [sp, #28]
 8001b9c:	2230      	movs	r2, #48	@ 0x30
 8001b9e:	9b07      	ldr	r3, [sp, #28]
 8001ba0:	454b      	cmp	r3, r9
 8001ba2:	d31e      	bcc.n	8001be2 <__cvt+0xc0>
 8001ba4:	9b07      	ldr	r3, [sp, #28]
 8001ba6:	9a15      	ldr	r2, [sp, #84]	@ 0x54
 8001ba8:	1bdb      	subs	r3, r3, r7
 8001baa:	4638      	mov	r0, r7
 8001bac:	6013      	str	r3, [r2, #0]
 8001bae:	b008      	add	sp, #32
 8001bb0:	e8bd 87f0 	ldmia.w	sp!, {r4, r5, r6, r7, r8, r9, sl, pc}
 8001bb4:	f1b8 0f46 	cmp.w	r8, #70	@ 0x46
 8001bb8:	eb00 0906 	add.w	r9, r0, r6
 8001bbc:	d1e5      	bne.n	8001b8a <__cvt+0x68>
 8001bbe:	7803      	ldrb	r3, [r0, #0]
 8001bc0:	2b30      	cmp	r3, #48	@ 0x30
 8001bc2:	d10a      	bne.n	8001bda <__cvt+0xb8>
 8001bc4:	2200      	movs	r2, #0
 8001bc6:	2300      	movs	r3, #0
 8001bc8:	4620      	mov	r0, r4
 8001bca:	4629      	mov	r1, r5
 8001bcc:	f7ff f842 	bl	8000c54 <__aeabi_dcmpeq>
 8001bd0:	b918      	cbnz	r0, 8001bda <__cvt+0xb8>
 8001bd2:	f1c6 0601 	rsb	r6, r6, #1
 8001bd6:	f8ca 6000 	str.w	r6, [sl]
 8001bda:	f8da 3000 	ldr.w	r3, [sl]
 8001bde:	4499      	add	r9, r3
 8001be0:	e7d3      	b.n	8001b8a <__cvt+0x68>
 8001be2:	1c59      	adds	r1, r3, #1
 8001be4:	9107      	str	r1, [sp, #28]
 8001be6:	701a      	strb	r2, [r3, #0]
 8001be8:	e7d9      	b.n	8001b9e <__cvt+0x7c>

08001bea <__exponent>:
 8001bea:	b5f7      	push	{r0, r1, r2, r4, r5, r6, r7, lr}
 8001bec:	2900      	cmp	r1, #0
 8001bee:	bfba      	itte	lt
 8001bf0:	4249      	neglt	r1, r1
 8001bf2:	232d      	movlt	r3, #45	@ 0x2d
 8001bf4:	232b      	movge	r3, #43	@ 0x2b
 8001bf6:	2909      	cmp	r1, #9
 8001bf8:	7002      	strb	r2, [r0, #0]
 8001bfa:	7043      	strb	r3, [r0, #1]
 8001bfc:	dd29      	ble.n	8001c52 <__exponent+0x68>
 8001bfe:	f10d 0307 	add.w	r3, sp, #7
 8001c02:	461d      	mov	r5, r3
 8001c04:	270a      	movs	r7, #10
 8001c06:	461a      	mov	r2, r3
 8001c08:	fbb1 f6f7 	udiv	r6, r1, r7
 8001c0c:	fb07 1416 	mls	r4, r7, r6, r1
 8001c10:	3430      	adds	r4, #48	@ 0x30
 8001c12:	f802 4c01 	strb.w	r4, [r2, #-1]
 8001c16:	460c      	mov	r4, r1
 8001c18:	2c63      	cmp	r4, #99	@ 0x63
 8001c1a:	f103 33ff 	add.w	r3, r3, #4294967295	@ 0xffffffff
 8001c1e:	4631      	mov	r1, r6
 8001c20:	dcf1      	bgt.n	8001c06 <__exponent+0x1c>
 8001c22:	3130      	adds	r1, #48	@ 0x30
 8001c24:	1e94      	subs	r4, r2, #2
 8001c26:	f803 1c01 	strb.w	r1, [r3, #-1]
 8001c2a:	1c41      	adds	r1, r0, #1
 8001c2c:	4623      	mov	r3, r4
 8001c2e:	42ab      	cmp	r3, r5
 8001c30:	d30a      	bcc.n	8001c48 <__exponent+0x5e>
 8001c32:	f10d 0309 	add.w	r3, sp, #9
 8001c36:	1a9b      	subs	r3, r3, r2
 8001c38:	42ac      	cmp	r4, r5
 8001c3a:	bf88      	it	hi
 8001c3c:	2300      	movhi	r3, #0
 8001c3e:	3302      	adds	r3, #2
 8001c40:	4403      	add	r3, r0
 8001c42:	1a18      	subs	r0, r3, r0
 8001c44:	b003      	add	sp, #12
 8001c46:	bdf0      	pop	{r4, r5, r6, r7, pc}
 8001c48:	f813 6b01 	ldrb.w	r6, [r3], #1
 8001c4c:	f801 6f01 	strb.w	r6, [r1, #1]!
 8001c50:	e7ed      	b.n	8001c2e <__exponent+0x44>
 8001c52:	2330      	movs	r3, #48	@ 0x30
 8001c54:	3130      	adds	r1, #48	@ 0x30
 8001c56:	7083      	strb	r3, [r0, #2]
 8001c58:	70c1      	strb	r1, [r0, #3]
 8001c5a:	1d03      	adds	r3, r0, #4
 8001c5c:	e7f1      	b.n	8001c42 <__exponent+0x58>
	...

08001c60 <_printf_float>:
 8001c60:	e92d 4ff0 	stmdb	sp!, {r4, r5, r6, r7, r8, r9, sl, fp, lr}
 8001c64:	b091      	sub	sp, #68	@ 0x44
 8001c66:	460c      	mov	r4, r1
 8001c68:	f8dd 8068 	ldr.w	r8, [sp, #104]	@ 0x68
 8001c6c:	4616      	mov	r6, r2
 8001c6e:	461f      	mov	r7, r3
 8001c70:	4605      	mov	r5, r0
 8001c72:	f000 fd4f 	bl	8002714 <_localeconv_r>
 8001c76:	6803      	ldr	r3, [r0, #0]
 8001c78:	9308      	str	r3, [sp, #32]
 8001c7a:	4618      	mov	r0, r3
 8001c7c:	f7fe fb00 	bl	8000280 <strlen>
 8001c80:	2300      	movs	r3, #0
 8001c82:	930e      	str	r3, [sp, #56]	@ 0x38
 8001c84:	f8d8 3000 	ldr.w	r3, [r8]
 8001c88:	9009      	str	r0, [sp, #36]	@ 0x24
 8001c8a:	3307      	adds	r3, #7
 8001c8c:	f023 0307 	bic.w	r3, r3, #7
 8001c90:	f103 0208 	add.w	r2, r3, #8
 8001c94:	f894 a018 	ldrb.w	sl, [r4, #24]
 8001c98:	f8d4 b000 	ldr.w	fp, [r4]
 8001c9c:	f8c8 2000 	str.w	r2, [r8]
 8001ca0:	e9d3 8900 	ldrd	r8, r9, [r3]
 8001ca4:	f029 4300 	bic.w	r3, r9, #2147483648	@ 0x80000000
 8001ca8:	930b      	str	r3, [sp, #44]	@ 0x2c
 8001caa:	f8cd 8028 	str.w	r8, [sp, #40]	@ 0x28
 8001cae:	e9c4 8912 	strd	r8, r9, [r4, #72]	@ 0x48
 8001cb2:	e9dd 010a 	ldrd	r0, r1, [sp, #40]	@ 0x28
 8001cb6:	4b9d      	ldr	r3, [pc, #628]	@ (8001f2c <_printf_float+0x2cc>)
 8001cb8:	f04f 32ff 	mov.w	r2, #4294967295	@ 0xffffffff
 8001cbc:	f7fe fffc 	bl	8000cb8 <__aeabi_dcmpun>
 8001cc0:	bb70      	cbnz	r0, 8001d20 <_printf_float+0xc0>
 8001cc2:	e9dd 010a 	ldrd	r0, r1, [sp, #40]	@ 0x28
 8001cc6:	4b99      	ldr	r3, [pc, #612]	@ (8001f2c <_printf_float+0x2cc>)
 8001cc8:	f04f 32ff 	mov.w	r2, #4294967295	@ 0xffffffff
 8001ccc:	f7fe ffd6 	bl	8000c7c <__aeabi_dcmple>
 8001cd0:	bb30      	cbnz	r0, 8001d20 <_printf_float+0xc0>
 8001cd2:	2200      	movs	r2, #0
 8001cd4:	2300      	movs	r3, #0
 8001cd6:	4640      	mov	r0, r8
 8001cd8:	4649      	mov	r1, r9
 8001cda:	f7fe ffc5 	bl	8000c68 <__aeabi_dcmplt>
 8001cde:	b110      	cbz	r0, 8001ce6 <_printf_float+0x86>
 8001ce0:	232d      	movs	r3, #45	@ 0x2d
 8001ce2:	f884 3043 	strb.w	r3, [r4, #67]	@ 0x43
 8001ce6:	4a92      	ldr	r2, [pc, #584]	@ (8001f30 <_printf_float+0x2d0>)
 8001ce8:	4b92      	ldr	r3, [pc, #584]	@ (8001f34 <_printf_float+0x2d4>)
 8001cea:	f1ba 0f47 	cmp.w	sl, #71	@ 0x47
 8001cee:	bf94      	ite	ls
 8001cf0:	4690      	movls	r8, r2
 8001cf2:	4698      	movhi	r8, r3
 8001cf4:	2303      	movs	r3, #3
 8001cf6:	6123      	str	r3, [r4, #16]
 8001cf8:	f02b 0304 	bic.w	r3, fp, #4
 8001cfc:	6023      	str	r3, [r4, #0]
 8001cfe:	f04f 0900 	mov.w	r9, #0
 8001d02:	9700      	str	r7, [sp, #0]
 8001d04:	4633      	mov	r3, r6
 8001d06:	aa0f      	add	r2, sp, #60	@ 0x3c
 8001d08:	4621      	mov	r1, r4
 8001d0a:	4628      	mov	r0, r5
 8001d0c:	f000 fa7e 	bl	800220c <_printf_common>
 8001d10:	3001      	adds	r0, #1
 8001d12:	f040 808f 	bne.w	8001e34 <_printf_float+0x1d4>
 8001d16:	f04f 30ff 	mov.w	r0, #4294967295	@ 0xffffffff
 8001d1a:	b011      	add	sp, #68	@ 0x44
 8001d1c:	e8bd 8ff0 	ldmia.w	sp!, {r4, r5, r6, r7, r8, r9, sl, fp, pc}
 8001d20:	4642      	mov	r2, r8
 8001d22:	464b      	mov	r3, r9
 8001d24:	4640      	mov	r0, r8
 8001d26:	4649      	mov	r1, r9
 8001d28:	f7fe ffc6 	bl	8000cb8 <__aeabi_dcmpun>
 8001d2c:	b140      	cbz	r0, 8001d40 <_printf_float+0xe0>
 8001d2e:	464b      	mov	r3, r9
 8001d30:	2b00      	cmp	r3, #0
 8001d32:	bfbc      	itt	lt
 8001d34:	232d      	movlt	r3, #45	@ 0x2d
 8001d36:	f884 3043 	strblt.w	r3, [r4, #67]	@ 0x43
 8001d3a:	4a7f      	ldr	r2, [pc, #508]	@ (8001f38 <_printf_float+0x2d8>)
 8001d3c:	4b7f      	ldr	r3, [pc, #508]	@ (8001f3c <_printf_float+0x2dc>)
 8001d3e:	e7d4      	b.n	8001cea <_printf_float+0x8a>
 8001d40:	6863      	ldr	r3, [r4, #4]
 8001d42:	1c5a      	adds	r2, r3, #1
 8001d44:	f00a 01df 	and.w	r1, sl, #223	@ 0xdf
 8001d48:	d13f      	bne.n	8001dca <_printf_float+0x16a>
 8001d4a:	2306      	movs	r3, #6
 8001d4c:	6063      	str	r3, [r4, #4]
 8001d4e:	f44b 6380 	orr.w	r3, fp, #1024	@ 0x400
 8001d52:	2200      	movs	r2, #0
 8001d54:	6023      	str	r3, [r4, #0]
 8001d56:	9206      	str	r2, [sp, #24]
 8001d58:	aa0e      	add	r2, sp, #56	@ 0x38
 8001d5a:	e9cd a204 	strd	sl, r2, [sp, #16]
 8001d5e:	aa0d      	add	r2, sp, #52	@ 0x34
 8001d60:	9203      	str	r2, [sp, #12]
 8001d62:	f10d 0233 	add.w	r2, sp, #51	@ 0x33
 8001d66:	e9cd 3201 	strd	r3, r2, [sp, #4]
 8001d6a:	6863      	ldr	r3, [r4, #4]
 8001d6c:	9300      	str	r3, [sp, #0]
 8001d6e:	4642      	mov	r2, r8
 8001d70:	464b      	mov	r3, r9
 8001d72:	4628      	mov	r0, r5
 8001d74:	910a      	str	r1, [sp, #40]	@ 0x28
 8001d76:	f7ff fed4 	bl	8001b22 <__cvt>
 8001d7a:	990a      	ldr	r1, [sp, #40]	@ 0x28
 8001d7c:	2947      	cmp	r1, #71	@ 0x47
 8001d7e:	4680      	mov	r8, r0
 8001d80:	990d      	ldr	r1, [sp, #52]	@ 0x34
 8001d82:	d128      	bne.n	8001dd6 <_printf_float+0x176>
 8001d84:	1cc8      	adds	r0, r1, #3
 8001d86:	db02      	blt.n	8001d8e <_printf_float+0x12e>
 8001d88:	6863      	ldr	r3, [r4, #4]
 8001d8a:	4299      	cmp	r1, r3
 8001d8c:	dd40      	ble.n	8001e10 <_printf_float+0x1b0>
 8001d8e:	f1aa 0a02 	sub.w	sl, sl, #2
 8001d92:	fa5f fa8a 	uxtb.w	sl, sl
 8001d96:	3901      	subs	r1, #1
 8001d98:	4652      	mov	r2, sl
 8001d9a:	f104 0050 	add.w	r0, r4, #80	@ 0x50
 8001d9e:	910d      	str	r1, [sp, #52]	@ 0x34
 8001da0:	f7ff ff23 	bl	8001bea <__exponent>
 8001da4:	9a0e      	ldr	r2, [sp, #56]	@ 0x38
 8001da6:	1813      	adds	r3, r2, r0
 8001da8:	2a01      	cmp	r2, #1
 8001daa:	4681      	mov	r9, r0
 8001dac:	6123      	str	r3, [r4, #16]
 8001dae:	dc02      	bgt.n	8001db6 <_printf_float+0x156>
 8001db0:	6822      	ldr	r2, [r4, #0]
 8001db2:	07d2      	lsls	r2, r2, #31
 8001db4:	d501      	bpl.n	8001dba <_printf_float+0x15a>
 8001db6:	3301      	adds	r3, #1
 8001db8:	6123      	str	r3, [r4, #16]
 8001dba:	f89d 3033 	ldrb.w	r3, [sp, #51]	@ 0x33
 8001dbe:	2b00      	cmp	r3, #0
 8001dc0:	d09f      	beq.n	8001d02 <_printf_float+0xa2>
 8001dc2:	232d      	movs	r3, #45	@ 0x2d
 8001dc4:	f884 3043 	strb.w	r3, [r4, #67]	@ 0x43
 8001dc8:	e79b      	b.n	8001d02 <_printf_float+0xa2>
 8001dca:	2947      	cmp	r1, #71	@ 0x47
 8001dcc:	d1bf      	bne.n	8001d4e <_printf_float+0xee>
 8001dce:	2b00      	cmp	r3, #0
 8001dd0:	d1bd      	bne.n	8001d4e <_printf_float+0xee>
 8001dd2:	2301      	movs	r3, #1
 8001dd4:	e7ba      	b.n	8001d4c <_printf_float+0xec>
 8001dd6:	f1ba 0f65 	cmp.w	sl, #101	@ 0x65
 8001dda:	d9dc      	bls.n	8001d96 <_printf_float+0x136>
 8001ddc:	f1ba 0f66 	cmp.w	sl, #102	@ 0x66
 8001de0:	d118      	bne.n	8001e14 <_printf_float+0x1b4>
 8001de2:	2900      	cmp	r1, #0
 8001de4:	6863      	ldr	r3, [r4, #4]
 8001de6:	dd0b      	ble.n	8001e00 <_printf_float+0x1a0>
 8001de8:	6121      	str	r1, [r4, #16]
 8001dea:	b913      	cbnz	r3, 8001df2 <_printf_float+0x192>
 8001dec:	6822      	ldr	r2, [r4, #0]
 8001dee:	07d0      	lsls	r0, r2, #31
 8001df0:	d502      	bpl.n	8001df8 <_printf_float+0x198>
 8001df2:	3301      	adds	r3, #1
 8001df4:	440b      	add	r3, r1
 8001df6:	6123      	str	r3, [r4, #16]
 8001df8:	65a1      	str	r1, [r4, #88]	@ 0x58
 8001dfa:	f04f 0900 	mov.w	r9, #0
 8001dfe:	e7dc      	b.n	8001dba <_printf_float+0x15a>
 8001e00:	b913      	cbnz	r3, 8001e08 <_printf_float+0x1a8>
 8001e02:	6822      	ldr	r2, [r4, #0]
 8001e04:	07d2      	lsls	r2, r2, #31
 8001e06:	d501      	bpl.n	8001e0c <_printf_float+0x1ac>
 8001e08:	3302      	adds	r3, #2
 8001e0a:	e7f4      	b.n	8001df6 <_printf_float+0x196>
 8001e0c:	2301      	movs	r3, #1
 8001e0e:	e7f2      	b.n	8001df6 <_printf_float+0x196>
 8001e10:	f04f 0a67 	mov.w	sl, #103	@ 0x67
 8001e14:	9b0e      	ldr	r3, [sp, #56]	@ 0x38
 8001e16:	4299      	cmp	r1, r3
 8001e18:	db05      	blt.n	8001e26 <_printf_float+0x1c6>
 8001e1a:	6823      	ldr	r3, [r4, #0]
 8001e1c:	6121      	str	r1, [r4, #16]
 8001e1e:	07d8      	lsls	r0, r3, #31
 8001e20:	d5ea      	bpl.n	8001df8 <_printf_float+0x198>
 8001e22:	1c4b      	adds	r3, r1, #1
 8001e24:	e7e7      	b.n	8001df6 <_printf_float+0x196>
 8001e26:	2900      	cmp	r1, #0
 8001e28:	bfd4      	ite	le
 8001e2a:	f1c1 0202 	rsble	r2, r1, #2
 8001e2e:	2201      	movgt	r2, #1
 8001e30:	4413      	add	r3, r2
 8001e32:	e7e0      	b.n	8001df6 <_printf_float+0x196>
 8001e34:	6823      	ldr	r3, [r4, #0]
 8001e36:	055a      	lsls	r2, r3, #21
 8001e38:	d407      	bmi.n	8001e4a <_printf_float+0x1ea>
 8001e3a:	6923      	ldr	r3, [r4, #16]
 8001e3c:	4642      	mov	r2, r8
 8001e3e:	4631      	mov	r1, r6
 8001e40:	4628      	mov	r0, r5
 8001e42:	47b8      	blx	r7
 8001e44:	3001      	adds	r0, #1
 8001e46:	d12b      	bne.n	8001ea0 <_printf_float+0x240>
 8001e48:	e765      	b.n	8001d16 <_printf_float+0xb6>
 8001e4a:	f1ba 0f65 	cmp.w	sl, #101	@ 0x65
 8001e4e:	f240 80dd 	bls.w	800200c <_printf_float+0x3ac>
 8001e52:	e9d4 0112 	ldrd	r0, r1, [r4, #72]	@ 0x48
 8001e56:	2200      	movs	r2, #0
 8001e58:	2300      	movs	r3, #0
 8001e5a:	f7fe fefb 	bl	8000c54 <__aeabi_dcmpeq>
 8001e5e:	2800      	cmp	r0, #0
 8001e60:	d033      	beq.n	8001eca <_printf_float+0x26a>
 8001e62:	4a37      	ldr	r2, [pc, #220]	@ (8001f40 <_printf_float+0x2e0>)
 8001e64:	2301      	movs	r3, #1
 8001e66:	4631      	mov	r1, r6
 8001e68:	4628      	mov	r0, r5
 8001e6a:	47b8      	blx	r7
 8001e6c:	3001      	adds	r0, #1
 8001e6e:	f43f af52 	beq.w	8001d16 <_printf_float+0xb6>
 8001e72:	e9dd 380d 	ldrd	r3, r8, [sp, #52]	@ 0x34
 8001e76:	4543      	cmp	r3, r8
 8001e78:	db02      	blt.n	8001e80 <_printf_float+0x220>
 8001e7a:	6823      	ldr	r3, [r4, #0]
 8001e7c:	07d8      	lsls	r0, r3, #31
 8001e7e:	d50f      	bpl.n	8001ea0 <_printf_float+0x240>
 8001e80:	e9dd 2308 	ldrd	r2, r3, [sp, #32]
 8001e84:	4631      	mov	r1, r6
 8001e86:	4628      	mov	r0, r5
 8001e88:	47b8      	blx	r7
 8001e8a:	3001      	adds	r0, #1
 8001e8c:	f43f af43 	beq.w	8001d16 <_printf_float+0xb6>
 8001e90:	f04f 0900 	mov.w	r9, #0
 8001e94:	f108 38ff 	add.w	r8, r8, #4294967295	@ 0xffffffff
 8001e98:	f104 0a1a 	add.w	sl, r4, #26
 8001e9c:	45c8      	cmp	r8, r9
 8001e9e:	dc09      	bgt.n	8001eb4 <_printf_float+0x254>
 8001ea0:	6823      	ldr	r3, [r4, #0]
 8001ea2:	079b      	lsls	r3, r3, #30
 8001ea4:	f100 8103 	bmi.w	80020ae <_printf_float+0x44e>
 8001ea8:	68e0      	ldr	r0, [r4, #12]
 8001eaa:	9b0f      	ldr	r3, [sp, #60]	@ 0x3c
 8001eac:	4298      	cmp	r0, r3
 8001eae:	bfb8      	it	lt
 8001eb0:	4618      	movlt	r0, r3
 8001eb2:	e732      	b.n	8001d1a <_printf_float+0xba>
 8001eb4:	2301      	movs	r3, #1
 8001eb6:	4652      	mov	r2, sl
 8001eb8:	4631      	mov	r1, r6
 8001eba:	4628      	mov	r0, r5
 8001ebc:	47b8      	blx	r7
 8001ebe:	3001      	adds	r0, #1
 8001ec0:	f43f af29 	beq.w	8001d16 <_printf_float+0xb6>
 8001ec4:	f109 0901 	add.w	r9, r9, #1
 8001ec8:	e7e8      	b.n	8001e9c <_printf_float+0x23c>
 8001eca:	9b0d      	ldr	r3, [sp, #52]	@ 0x34
 8001ecc:	2b00      	cmp	r3, #0
 8001ece:	dc39      	bgt.n	8001f44 <_printf_float+0x2e4>
 8001ed0:	4a1b      	ldr	r2, [pc, #108]	@ (8001f40 <_printf_float+0x2e0>)
 8001ed2:	2301      	movs	r3, #1
 8001ed4:	4631      	mov	r1, r6
 8001ed6:	4628      	mov	r0, r5
 8001ed8:	47b8      	blx	r7
 8001eda:	3001      	adds	r0, #1
 8001edc:	f43f af1b 	beq.w	8001d16 <_printf_float+0xb6>
 8001ee0:	e9dd 390d 	ldrd	r3, r9, [sp, #52]	@ 0x34
 8001ee4:	ea59 0303 	orrs.w	r3, r9, r3
 8001ee8:	d102      	bne.n	8001ef0 <_printf_float+0x290>
 8001eea:	6823      	ldr	r3, [r4, #0]
 8001eec:	07d9      	lsls	r1, r3, #31
 8001eee:	d5d7      	bpl.n	8001ea0 <_printf_float+0x240>
 8001ef0:	e9dd 2308 	ldrd	r2, r3, [sp, #32]
 8001ef4:	4631      	mov	r1, r6
 8001ef6:	4628      	mov	r0, r5
 8001ef8:	47b8      	blx	r7
 8001efa:	3001      	adds	r0, #1
 8001efc:	f43f af0b 	beq.w	8001d16 <_printf_float+0xb6>
 8001f00:	f04f 0a00 	mov.w	sl, #0
 8001f04:	f104 0b1a 	add.w	fp, r4, #26
 8001f08:	9b0d      	ldr	r3, [sp, #52]	@ 0x34
 8001f0a:	425b      	negs	r3, r3
 8001f0c:	4553      	cmp	r3, sl
 8001f0e:	dc01      	bgt.n	8001f14 <_printf_float+0x2b4>
 8001f10:	464b      	mov	r3, r9
 8001f12:	e793      	b.n	8001e3c <_printf_float+0x1dc>
 8001f14:	2301      	movs	r3, #1
 8001f16:	465a      	mov	r2, fp
 8001f18:	4631      	mov	r1, r6
 8001f1a:	4628      	mov	r0, r5
 8001f1c:	47b8      	blx	r7
 8001f1e:	3001      	adds	r0, #1
 8001f20:	f43f aef9 	beq.w	8001d16 <_printf_float+0xb6>
 8001f24:	f10a 0a01 	add.w	sl, sl, #1
 8001f28:	e7ee      	b.n	8001f08 <_printf_float+0x2a8>
 8001f2a:	bf00      	nop
 8001f2c:	7fefffff 	.word	0x7fefffff
 8001f30:	08004939 	.word	0x08004939
 8001f34:	0800493d 	.word	0x0800493d
 8001f38:	08004941 	.word	0x08004941
 8001f3c:	08004945 	.word	0x08004945
 8001f40:	08004949 	.word	0x08004949
 8001f44:	6da3      	ldr	r3, [r4, #88]	@ 0x58
 8001f46:	f8dd a038 	ldr.w	sl, [sp, #56]	@ 0x38
 8001f4a:	4553      	cmp	r3, sl
 8001f4c:	bfa8      	it	ge
 8001f4e:	4653      	movge	r3, sl
 8001f50:	2b00      	cmp	r3, #0
 8001f52:	4699      	mov	r9, r3
 8001f54:	dc36      	bgt.n	8001fc4 <_printf_float+0x364>
 8001f56:	f04f 0b00 	mov.w	fp, #0
 8001f5a:	ea29 79e9 	bic.w	r9, r9, r9, asr #31
 8001f5e:	f104 021a 	add.w	r2, r4, #26
 8001f62:	6da3      	ldr	r3, [r4, #88]	@ 0x58
 8001f64:	930a      	str	r3, [sp, #40]	@ 0x28
 8001f66:	eba3 0309 	sub.w	r3, r3, r9
 8001f6a:	455b      	cmp	r3, fp
 8001f6c:	dc31      	bgt.n	8001fd2 <_printf_float+0x372>
 8001f6e:	9b0d      	ldr	r3, [sp, #52]	@ 0x34
 8001f70:	459a      	cmp	sl, r3
 8001f72:	dc3a      	bgt.n	8001fea <_printf_float+0x38a>
 8001f74:	6823      	ldr	r3, [r4, #0]
 8001f76:	07da      	lsls	r2, r3, #31
 8001f78:	d437      	bmi.n	8001fea <_printf_float+0x38a>
 8001f7a:	9b0d      	ldr	r3, [sp, #52]	@ 0x34
 8001f7c:	ebaa 0903 	sub.w	r9, sl, r3
 8001f80:	9b0a      	ldr	r3, [sp, #40]	@ 0x28
 8001f82:	ebaa 0303 	sub.w	r3, sl, r3
 8001f86:	4599      	cmp	r9, r3
 8001f88:	bfa8      	it	ge
 8001f8a:	4699      	movge	r9, r3
 8001f8c:	f1b9 0f00 	cmp.w	r9, #0
 8001f90:	dc33      	bgt.n	8001ffa <_printf_float+0x39a>
 8001f92:	f04f 0800 	mov.w	r8, #0
 8001f96:	ea29 79e9 	bic.w	r9, r9, r9, asr #31
 8001f9a:	f104 0b1a 	add.w	fp, r4, #26
 8001f9e:	9b0d      	ldr	r3, [sp, #52]	@ 0x34
 8001fa0:	ebaa 0303 	sub.w	r3, sl, r3
 8001fa4:	eba3 0309 	sub.w	r3, r3, r9
 8001fa8:	4543      	cmp	r3, r8
 8001faa:	f77f af79 	ble.w	8001ea0 <_printf_float+0x240>
 8001fae:	2301      	movs	r3, #1
 8001fb0:	465a      	mov	r2, fp
 8001fb2:	4631      	mov	r1, r6
 8001fb4:	4628      	mov	r0, r5
 8001fb6:	47b8      	blx	r7
 8001fb8:	3001      	adds	r0, #1
 8001fba:	f43f aeac 	beq.w	8001d16 <_printf_float+0xb6>
 8001fbe:	f108 0801 	add.w	r8, r8, #1
 8001fc2:	e7ec      	b.n	8001f9e <_printf_float+0x33e>
 8001fc4:	4642      	mov	r2, r8
 8001fc6:	4631      	mov	r1, r6
 8001fc8:	4628      	mov	r0, r5
 8001fca:	47b8      	blx	r7
 8001fcc:	3001      	adds	r0, #1
 8001fce:	d1c2      	bne.n	8001f56 <_printf_float+0x2f6>
 8001fd0:	e6a1      	b.n	8001d16 <_printf_float+0xb6>
 8001fd2:	2301      	movs	r3, #1
 8001fd4:	4631      	mov	r1, r6
 8001fd6:	4628      	mov	r0, r5
 8001fd8:	920a      	str	r2, [sp, #40]	@ 0x28
 8001fda:	47b8      	blx	r7
 8001fdc:	3001      	adds	r0, #1
 8001fde:	f43f ae9a 	beq.w	8001d16 <_printf_float+0xb6>
 8001fe2:	9a0a      	ldr	r2, [sp, #40]	@ 0x28
 8001fe4:	f10b 0b01 	add.w	fp, fp, #1
 8001fe8:	e7bb      	b.n	8001f62 <_printf_float+0x302>
 8001fea:	e9dd 2308 	ldrd	r2, r3, [sp, #32]
 8001fee:	4631      	mov	r1, r6
 8001ff0:	4628      	mov	r0, r5
 8001ff2:	47b8      	blx	r7
 8001ff4:	3001      	adds	r0, #1
 8001ff6:	d1c0      	bne.n	8001f7a <_printf_float+0x31a>
 8001ff8:	e68d      	b.n	8001d16 <_printf_float+0xb6>
 8001ffa:	9a0a      	ldr	r2, [sp, #40]	@ 0x28
 8001ffc:	464b      	mov	r3, r9
 8001ffe:	4442      	add	r2, r8
 8002000:	4631      	mov	r1, r6
 8002002:	4628      	mov	r0, r5
 8002004:	47b8      	blx	r7
 8002006:	3001      	adds	r0, #1
 8002008:	d1c3      	bne.n	8001f92 <_printf_float+0x332>
 800200a:	e684      	b.n	8001d16 <_printf_float+0xb6>
 800200c:	f8dd a038 	ldr.w	sl, [sp, #56]	@ 0x38
 8002010:	f1ba 0f01 	cmp.w	sl, #1
 8002014:	dc01      	bgt.n	800201a <_printf_float+0x3ba>
 8002016:	07db      	lsls	r3, r3, #31
 8002018:	d536      	bpl.n	8002088 <_printf_float+0x428>
 800201a:	2301      	movs	r3, #1
 800201c:	4642      	mov	r2, r8
 800201e:	4631      	mov	r1, r6
 8002020:	4628      	mov	r0, r5
 8002022:	47b8      	blx	r7
 8002024:	3001      	adds	r0, #1
 8002026:	f43f ae76 	beq.w	8001d16 <_printf_float+0xb6>
 800202a:	e9dd 2308 	ldrd	r2, r3, [sp, #32]
 800202e:	4631      	mov	r1, r6
 8002030:	4628      	mov	r0, r5
 8002032:	47b8      	blx	r7
 8002034:	3001      	adds	r0, #1
 8002036:	f43f ae6e 	beq.w	8001d16 <_printf_float+0xb6>
 800203a:	e9d4 0112 	ldrd	r0, r1, [r4, #72]	@ 0x48
 800203e:	2200      	movs	r2, #0
 8002040:	2300      	movs	r3, #0
 8002042:	f10a 3aff 	add.w	sl, sl, #4294967295	@ 0xffffffff
 8002046:	f7fe fe05 	bl	8000c54 <__aeabi_dcmpeq>
 800204a:	b9c0      	cbnz	r0, 800207e <_printf_float+0x41e>
 800204c:	4653      	mov	r3, sl
 800204e:	f108 0201 	add.w	r2, r8, #1
 8002052:	4631      	mov	r1, r6
 8002054:	4628      	mov	r0, r5
 8002056:	47b8      	blx	r7
 8002058:	3001      	adds	r0, #1
 800205a:	d10c      	bne.n	8002076 <_printf_float+0x416>
 800205c:	e65b      	b.n	8001d16 <_printf_float+0xb6>
 800205e:	2301      	movs	r3, #1
 8002060:	465a      	mov	r2, fp
 8002062:	4631      	mov	r1, r6
 8002064:	4628      	mov	r0, r5
 8002066:	47b8      	blx	r7
 8002068:	3001      	adds	r0, #1
 800206a:	f43f ae54 	beq.w	8001d16 <_printf_float+0xb6>
 800206e:	f108 0801 	add.w	r8, r8, #1
 8002072:	45d0      	cmp	r8, sl
 8002074:	dbf3      	blt.n	800205e <_printf_float+0x3fe>
 8002076:	464b      	mov	r3, r9
 8002078:	f104 0250 	add.w	r2, r4, #80	@ 0x50
 800207c:	e6df      	b.n	8001e3e <_printf_float+0x1de>
 800207e:	f04f 0800 	mov.w	r8, #0
 8002082:	f104 0b1a 	add.w	fp, r4, #26
 8002086:	e7f4      	b.n	8002072 <_printf_float+0x412>
 8002088:	2301      	movs	r3, #1
 800208a:	4642      	mov	r2, r8
 800208c:	e7e1      	b.n	8002052 <_printf_float+0x3f2>
 800208e:	2301      	movs	r3, #1
 8002090:	464a      	mov	r2, r9
 8002092:	4631      	mov	r1, r6
 8002094:	4628      	mov	r0, r5
 8002096:	47b8      	blx	r7
 8002098:	3001      	adds	r0, #1
 800209a:	f43f ae3c 	beq.w	8001d16 <_printf_float+0xb6>
 800209e:	f108 0801 	add.w	r8, r8, #1
 80020a2:	68e3      	ldr	r3, [r4, #12]
 80020a4:	990f      	ldr	r1, [sp, #60]	@ 0x3c
 80020a6:	1a5b      	subs	r3, r3, r1
 80020a8:	4543      	cmp	r3, r8
 80020aa:	dcf0      	bgt.n	800208e <_printf_float+0x42e>
 80020ac:	e6fc      	b.n	8001ea8 <_printf_float+0x248>
 80020ae:	f04f 0800 	mov.w	r8, #0
 80020b2:	f104 0919 	add.w	r9, r4, #25
 80020b6:	e7f4      	b.n	80020a2 <_printf_float+0x442>

080020b8 <malloc>:
 80020b8:	4b02      	ldr	r3, [pc, #8]	@ (80020c4 <malloc+0xc>)
 80020ba:	4601      	mov	r1, r0
 80020bc:	6818      	ldr	r0, [r3, #0]
 80020be:	f000 b825 	b.w	800210c <_malloc_r>
 80020c2:	bf00      	nop
 80020c4:	20000040 	.word	0x20000040

080020c8 <sbrk_aligned>:
 80020c8:	b570      	push	{r4, r5, r6, lr}
 80020ca:	4e0f      	ldr	r6, [pc, #60]	@ (8002108 <sbrk_aligned+0x40>)
 80020cc:	460c      	mov	r4, r1
 80020ce:	6831      	ldr	r1, [r6, #0]
 80020d0:	4605      	mov	r5, r0
 80020d2:	b911      	cbnz	r1, 80020da <sbrk_aligned+0x12>
 80020d4:	f000 fb22 	bl	800271c <_sbrk_r>
 80020d8:	6030      	str	r0, [r6, #0]
 80020da:	4621      	mov	r1, r4
 80020dc:	4628      	mov	r0, r5
 80020de:	f000 fb1d 	bl	800271c <_sbrk_r>
 80020e2:	1c43      	adds	r3, r0, #1
 80020e4:	d103      	bne.n	80020ee <sbrk_aligned+0x26>
 80020e6:	f04f 34ff 	mov.w	r4, #4294967295	@ 0xffffffff
 80020ea:	4620      	mov	r0, r4
 80020ec:	bd70      	pop	{r4, r5, r6, pc}
 80020ee:	1cc4      	adds	r4, r0, #3
 80020f0:	f024 0403 	bic.w	r4, r4, #3
 80020f4:	42a0      	cmp	r0, r4
 80020f6:	d0f8      	beq.n	80020ea <sbrk_aligned+0x22>
 80020f8:	1a21      	subs	r1, r4, r0
 80020fa:	4628      	mov	r0, r5
 80020fc:	f000 fb0e 	bl	800271c <_sbrk_r>
 8002100:	3001      	adds	r0, #1
 8002102:	d1f2      	bne.n	80020ea <sbrk_aligned+0x22>
 8002104:	e7ef      	b.n	80020e6 <sbrk_aligned+0x1e>
 8002106:	bf00      	nop
 8002108:	200004b8 	.word	0x200004b8

0800210c <_malloc_r>:
 800210c:	e92d 43f8 	stmdb	sp!, {r3, r4, r5, r6, r7, r8, r9, lr}
 8002110:	1ccd      	adds	r5, r1, #3
 8002112:	f025 0503 	bic.w	r5, r5, #3
 8002116:	3508      	adds	r5, #8
 8002118:	2d0c      	cmp	r5, #12
 800211a:	bf38      	it	cc
 800211c:	250c      	movcc	r5, #12
 800211e:	2d00      	cmp	r5, #0
 8002120:	4606      	mov	r6, r0
 8002122:	db01      	blt.n	8002128 <_malloc_r+0x1c>
 8002124:	42a9      	cmp	r1, r5
 8002126:	d904      	bls.n	8002132 <_malloc_r+0x26>
 8002128:	230c      	movs	r3, #12
 800212a:	6033      	str	r3, [r6, #0]
 800212c:	2000      	movs	r0, #0
 800212e:	e8bd 83f8 	ldmia.w	sp!, {r3, r4, r5, r6, r7, r8, r9, pc}
 8002132:	f8df 80d4 	ldr.w	r8, [pc, #212]	@ 8002208 <_malloc_r+0xfc>
 8002136:	f000 f9f7 	bl	8002528 <__malloc_lock>
 800213a:	f8d8 3000 	ldr.w	r3, [r8]
 800213e:	461c      	mov	r4, r3
 8002140:	bb44      	cbnz	r4, 8002194 <_malloc_r+0x88>
 8002142:	4629      	mov	r1, r5
 8002144:	4630      	mov	r0, r6
 8002146:	f7ff ffbf 	bl	80020c8 <sbrk_aligned>
 800214a:	1c43      	adds	r3, r0, #1
 800214c:	4604      	mov	r4, r0
 800214e:	d158      	bne.n	8002202 <_malloc_r+0xf6>
 8002150:	f8d8 4000 	ldr.w	r4, [r8]
 8002154:	4627      	mov	r7, r4
 8002156:	2f00      	cmp	r7, #0
 8002158:	d143      	bne.n	80021e2 <_malloc_r+0xd6>
 800215a:	2c00      	cmp	r4, #0
 800215c:	d04b      	beq.n	80021f6 <_malloc_r+0xea>
 800215e:	6823      	ldr	r3, [r4, #0]
 8002160:	4639      	mov	r1, r7
 8002162:	4630      	mov	r0, r6
 8002164:	eb04 0903 	add.w	r9, r4, r3
 8002168:	f000 fad8 	bl	800271c <_sbrk_r>
 800216c:	4581      	cmp	r9, r0
 800216e:	d142      	bne.n	80021f6 <_malloc_r+0xea>
 8002170:	6821      	ldr	r1, [r4, #0]
 8002172:	1a6d      	subs	r5, r5, r1
 8002174:	4629      	mov	r1, r5
 8002176:	4630      	mov	r0, r6
 8002178:	f7ff ffa6 	bl	80020c8 <sbrk_aligned>
 800217c:	3001      	adds	r0, #1
 800217e:	d03a      	beq.n	80021f6 <_malloc_r+0xea>
 8002180:	6823      	ldr	r3, [r4, #0]
 8002182:	442b      	add	r3, r5
 8002184:	6023      	str	r3, [r4, #0]
 8002186:	f8d8 3000 	ldr.w	r3, [r8]
 800218a:	685a      	ldr	r2, [r3, #4]
 800218c:	bb62      	cbnz	r2, 80021e8 <_malloc_r+0xdc>
 800218e:	f8c8 7000 	str.w	r7, [r8]
 8002192:	e00f      	b.n	80021b4 <_malloc_r+0xa8>
 8002194:	6822      	ldr	r2, [r4, #0]
 8002196:	1b52      	subs	r2, r2, r5
 8002198:	d420      	bmi.n	80021dc <_malloc_r+0xd0>
 800219a:	2a0b      	cmp	r2, #11
 800219c:	d917      	bls.n	80021ce <_malloc_r+0xc2>
 800219e:	1961      	adds	r1, r4, r5
 80021a0:	42a3      	cmp	r3, r4
 80021a2:	6025      	str	r5, [r4, #0]
 80021a4:	bf18      	it	ne
 80021a6:	6059      	strne	r1, [r3, #4]
 80021a8:	6863      	ldr	r3, [r4, #4]
 80021aa:	bf08      	it	eq
 80021ac:	f8c8 1000 	streq.w	r1, [r8]
 80021b0:	5162      	str	r2, [r4, r5]
 80021b2:	604b      	str	r3, [r1, #4]
 80021b4:	4630      	mov	r0, r6
 80021b6:	f000 f9bd 	bl	8002534 <__malloc_unlock>
 80021ba:	f104 000b 	add.w	r0, r4, #11
 80021be:	1d23      	adds	r3, r4, #4
 80021c0:	f020 0007 	bic.w	r0, r0, #7
 80021c4:	1ac2      	subs	r2, r0, r3
 80021c6:	bf1c      	itt	ne
 80021c8:	1a1b      	subne	r3, r3, r0
 80021ca:	50a3      	strne	r3, [r4, r2]
 80021cc:	e7af      	b.n	800212e <_malloc_r+0x22>
 80021ce:	6862      	ldr	r2, [r4, #4]
 80021d0:	42a3      	cmp	r3, r4
 80021d2:	bf0c      	ite	eq
 80021d4:	f8c8 2000 	streq.w	r2, [r8]
 80021d8:	605a      	strne	r2, [r3, #4]
 80021da:	e7eb      	b.n	80021b4 <_malloc_r+0xa8>
 80021dc:	4623      	mov	r3, r4
 80021de:	6864      	ldr	r4, [r4, #4]
 80021e0:	e7ae      	b.n	8002140 <_malloc_r+0x34>
 80021e2:	463c      	mov	r4, r7
 80021e4:	687f      	ldr	r7, [r7, #4]
 80021e6:	e7b6      	b.n	8002156 <_malloc_r+0x4a>
 80021e8:	461a      	mov	r2, r3
 80021ea:	685b      	ldr	r3, [r3, #4]
 80021ec:	42a3      	cmp	r3, r4
 80021ee:	d1fb      	bne.n	80021e8 <_malloc_r+0xdc>
 80021f0:	2300      	movs	r3, #0
 80021f2:	6053      	str	r3, [r2, #4]
 80021f4:	e7de      	b.n	80021b4 <_malloc_r+0xa8>
 80021f6:	230c      	movs	r3, #12
 80021f8:	6033      	str	r3, [r6, #0]
 80021fa:	4630      	mov	r0, r6
 80021fc:	f000 f99a 	bl	8002534 <__malloc_unlock>
 8002200:	e794      	b.n	800212c <_malloc_r+0x20>
 8002202:	6005      	str	r5, [r0, #0]
 8002204:	e7d6      	b.n	80021b4 <_malloc_r+0xa8>
 8002206:	bf00      	nop
 8002208:	200004bc 	.word	0x200004bc

0800220c <_printf_common>:
 800220c:	e92d 47f0 	stmdb	sp!, {r4, r5, r6, r7, r8, r9, sl, lr}
 8002210:	4616      	mov	r6, r2
 8002212:	4698      	mov	r8, r3
 8002214:	688a      	ldr	r2, [r1, #8]
 8002216:	690b      	ldr	r3, [r1, #16]
 8002218:	f8dd 9020 	ldr.w	r9, [sp, #32]
 800221c:	4293      	cmp	r3, r2
 800221e:	bfb8      	it	lt
 8002220:	4613      	movlt	r3, r2
 8002222:	6033      	str	r3, [r6, #0]
 8002224:	f891 2043 	ldrb.w	r2, [r1, #67]	@ 0x43
 8002228:	4607      	mov	r7, r0
 800222a:	460c      	mov	r4, r1
 800222c:	b10a      	cbz	r2, 8002232 <_printf_common+0x26>
 800222e:	3301      	adds	r3, #1
 8002230:	6033      	str	r3, [r6, #0]
 8002232:	6823      	ldr	r3, [r4, #0]
 8002234:	0699      	lsls	r1, r3, #26
 8002236:	bf42      	ittt	mi
 8002238:	6833      	ldrmi	r3, [r6, #0]
 800223a:	3302      	addmi	r3, #2
 800223c:	6033      	strmi	r3, [r6, #0]
 800223e:	6825      	ldr	r5, [r4, #0]
 8002240:	f015 0506 	ands.w	r5, r5, #6
 8002244:	d106      	bne.n	8002254 <_printf_common+0x48>
 8002246:	f104 0a19 	add.w	sl, r4, #25
 800224a:	68e3      	ldr	r3, [r4, #12]
 800224c:	6832      	ldr	r2, [r6, #0]
 800224e:	1a9b      	subs	r3, r3, r2
 8002250:	42ab      	cmp	r3, r5
 8002252:	dc26      	bgt.n	80022a2 <_printf_common+0x96>
 8002254:	f894 3043 	ldrb.w	r3, [r4, #67]	@ 0x43
 8002258:	6822      	ldr	r2, [r4, #0]
 800225a:	3b00      	subs	r3, #0
 800225c:	bf18      	it	ne
 800225e:	2301      	movne	r3, #1
 8002260:	0692      	lsls	r2, r2, #26
 8002262:	d42b      	bmi.n	80022bc <_printf_common+0xb0>
 8002264:	f104 0243 	add.w	r2, r4, #67	@ 0x43
 8002268:	4641      	mov	r1, r8
 800226a:	4638      	mov	r0, r7
 800226c:	47c8      	blx	r9
 800226e:	3001      	adds	r0, #1
 8002270:	d01e      	beq.n	80022b0 <_printf_common+0xa4>
 8002272:	6823      	ldr	r3, [r4, #0]
 8002274:	6922      	ldr	r2, [r4, #16]
 8002276:	f003 0306 	and.w	r3, r3, #6
 800227a:	2b04      	cmp	r3, #4
 800227c:	bf02      	ittt	eq
 800227e:	68e5      	ldreq	r5, [r4, #12]
 8002280:	6833      	ldreq	r3, [r6, #0]
 8002282:	1aed      	subeq	r5, r5, r3
 8002284:	68a3      	ldr	r3, [r4, #8]
 8002286:	bf0c      	ite	eq
 8002288:	ea25 75e5 	biceq.w	r5, r5, r5, asr #31
 800228c:	2500      	movne	r5, #0
 800228e:	4293      	cmp	r3, r2
 8002290:	bfc4      	itt	gt
 8002292:	1a9b      	subgt	r3, r3, r2
 8002294:	18ed      	addgt	r5, r5, r3
 8002296:	2600      	movs	r6, #0
 8002298:	341a      	adds	r4, #26
 800229a:	42b5      	cmp	r5, r6
 800229c:	d11a      	bne.n	80022d4 <_printf_common+0xc8>
 800229e:	2000      	movs	r0, #0
 80022a0:	e008      	b.n	80022b4 <_printf_common+0xa8>
 80022a2:	2301      	movs	r3, #1
 80022a4:	4652      	mov	r2, sl
 80022a6:	4641      	mov	r1, r8
 80022a8:	4638      	mov	r0, r7
 80022aa:	47c8      	blx	r9
 80022ac:	3001      	adds	r0, #1
 80022ae:	d103      	bne.n	80022b8 <_printf_common+0xac>
 80022b0:	f04f 30ff 	mov.w	r0, #4294967295	@ 0xffffffff
 80022b4:	e8bd 87f0 	ldmia.w	sp!, {r4, r5, r6, r7, r8, r9, sl, pc}
 80022b8:	3501      	adds	r5, #1
 80022ba:	e7c6      	b.n	800224a <_printf_common+0x3e>
 80022bc:	18e1      	adds	r1, r4, r3
 80022be:	1c5a      	adds	r2, r3, #1
 80022c0:	2030      	movs	r0, #48	@ 0x30
 80022c2:	f881 0043 	strb.w	r0, [r1, #67]	@ 0x43
 80022c6:	4422      	add	r2, r4
 80022c8:	f894 1045 	ldrb.w	r1, [r4, #69]	@ 0x45
 80022cc:	f882 1043 	strb.w	r1, [r2, #67]	@ 0x43
 80022d0:	3302      	adds	r3, #2
 80022d2:	e7c7      	b.n	8002264 <_printf_common+0x58>
 80022d4:	2301      	movs	r3, #1
 80022d6:	4622      	mov	r2, r4
 80022d8:	4641      	mov	r1, r8
 80022da:	4638      	mov	r0, r7
 80022dc:	47c8      	blx	r9
 80022de:	3001      	adds	r0, #1
 80022e0:	d0e6      	beq.n	80022b0 <_printf_common+0xa4>
 80022e2:	3601      	adds	r6, #1
 80022e4:	e7d9      	b.n	800229a <_printf_common+0x8e>
	...

080022e8 <_printf_i>:
 80022e8:	e92d 47ff 	stmdb	sp!, {r0, r1, r2, r3, r4, r5, r6, r7, r8, r9, sl, lr}
 80022ec:	7e0f      	ldrb	r7, [r1, #24]
 80022ee:	9e0c      	ldr	r6, [sp, #48]	@ 0x30
 80022f0:	2f78      	cmp	r7, #120	@ 0x78
 80022f2:	4691      	mov	r9, r2
 80022f4:	4680      	mov	r8, r0
 80022f6:	460c      	mov	r4, r1
 80022f8:	469a      	mov	sl, r3
 80022fa:	f101 0243 	add.w	r2, r1, #67	@ 0x43
 80022fe:	d807      	bhi.n	8002310 <_printf_i+0x28>
 8002300:	2f62      	cmp	r7, #98	@ 0x62
 8002302:	d80a      	bhi.n	800231a <_printf_i+0x32>
 8002304:	2f00      	cmp	r7, #0
 8002306:	f000 80d2 	beq.w	80024ae <_printf_i+0x1c6>
 800230a:	2f58      	cmp	r7, #88	@ 0x58
 800230c:	f000 80b9 	beq.w	8002482 <_printf_i+0x19a>
 8002310:	f104 0642 	add.w	r6, r4, #66	@ 0x42
 8002314:	f884 7042 	strb.w	r7, [r4, #66]	@ 0x42
 8002318:	e03a      	b.n	8002390 <_printf_i+0xa8>
 800231a:	f1a7 0363 	sub.w	r3, r7, #99	@ 0x63
 800231e:	2b15      	cmp	r3, #21
 8002320:	d8f6      	bhi.n	8002310 <_printf_i+0x28>
 8002322:	a101      	add	r1, pc, #4	@ (adr r1, 8002328 <_printf_i+0x40>)
 8002324:	f851 f023 	ldr.w	pc, [r1, r3, lsl #2]
 8002328:	08002381 	.word	0x08002381
 800232c:	08002395 	.word	0x08002395
 8002330:	08002311 	.word	0x08002311
 8002334:	08002311 	.word	0x08002311
 8002338:	08002311 	.word	0x08002311
 800233c:	08002311 	.word	0x08002311
 8002340:	08002395 	.word	0x08002395
 8002344:	08002311 	.word	0x08002311
 8002348:	08002311 	.word	0x08002311
 800234c:	08002311 	.word	0x08002311
 8002350:	08002311 	.word	0x08002311
 8002354:	08002495 	.word	0x08002495
 8002358:	080023bf 	.word	0x080023bf
 800235c:	0800244f 	.word	0x0800244f
 8002360:	08002311 	.word	0x08002311
 8002364:	08002311 	.word	0x08002311
 8002368:	080024b7 	.word	0x080024b7
 800236c:	08002311 	.word	0x08002311
 8002370:	080023bf 	.word	0x080023bf
 8002374:	08002311 	.word	0x08002311
 8002378:	08002311 	.word	0x08002311
 800237c:	08002457 	.word	0x08002457
 8002380:	6833      	ldr	r3, [r6, #0]
 8002382:	1d1a      	adds	r2, r3, #4
 8002384:	681b      	ldr	r3, [r3, #0]
 8002386:	6032      	str	r2, [r6, #0]
 8002388:	f104 0642 	add.w	r6, r4, #66	@ 0x42
 800238c:	f884 3042 	strb.w	r3, [r4, #66]	@ 0x42
 8002390:	2301      	movs	r3, #1
 8002392:	e09d      	b.n	80024d0 <_printf_i+0x1e8>
 8002394:	6833      	ldr	r3, [r6, #0]
 8002396:	6820      	ldr	r0, [r4, #0]
 8002398:	1d19      	adds	r1, r3, #4
 800239a:	6031      	str	r1, [r6, #0]
 800239c:	0606      	lsls	r6, r0, #24
 800239e:	d501      	bpl.n	80023a4 <_printf_i+0xbc>
 80023a0:	681d      	ldr	r5, [r3, #0]
 80023a2:	e003      	b.n	80023ac <_printf_i+0xc4>
 80023a4:	0645      	lsls	r5, r0, #25
 80023a6:	d5fb      	bpl.n	80023a0 <_printf_i+0xb8>
 80023a8:	f9b3 5000 	ldrsh.w	r5, [r3]
 80023ac:	2d00      	cmp	r5, #0
 80023ae:	da03      	bge.n	80023b8 <_printf_i+0xd0>
 80023b0:	232d      	movs	r3, #45	@ 0x2d
 80023b2:	426d      	negs	r5, r5
 80023b4:	f884 3043 	strb.w	r3, [r4, #67]	@ 0x43
 80023b8:	4859      	ldr	r0, [pc, #356]	@ (8002520 <_printf_i+0x238>)
 80023ba:	230a      	movs	r3, #10
 80023bc:	e011      	b.n	80023e2 <_printf_i+0xfa>
 80023be:	6821      	ldr	r1, [r4, #0]
 80023c0:	6833      	ldr	r3, [r6, #0]
 80023c2:	0608      	lsls	r0, r1, #24
 80023c4:	f853 5b04 	ldr.w	r5, [r3], #4
 80023c8:	d402      	bmi.n	80023d0 <_printf_i+0xe8>
 80023ca:	0649      	lsls	r1, r1, #25
 80023cc:	bf48      	it	mi
 80023ce:	b2ad      	uxthmi	r5, r5
 80023d0:	2f6f      	cmp	r7, #111	@ 0x6f
 80023d2:	4853      	ldr	r0, [pc, #332]	@ (8002520 <_printf_i+0x238>)
 80023d4:	6033      	str	r3, [r6, #0]
 80023d6:	bf14      	ite	ne
 80023d8:	230a      	movne	r3, #10
 80023da:	2308      	moveq	r3, #8
 80023dc:	2100      	movs	r1, #0
 80023de:	f884 1043 	strb.w	r1, [r4, #67]	@ 0x43
 80023e2:	6866      	ldr	r6, [r4, #4]
 80023e4:	60a6      	str	r6, [r4, #8]
 80023e6:	2e00      	cmp	r6, #0
 80023e8:	bfa2      	ittt	ge
 80023ea:	6821      	ldrge	r1, [r4, #0]
 80023ec:	f021 0104 	bicge.w	r1, r1, #4
 80023f0:	6021      	strge	r1, [r4, #0]
 80023f2:	b90d      	cbnz	r5, 80023f8 <_printf_i+0x110>
 80023f4:	2e00      	cmp	r6, #0
 80023f6:	d04b      	beq.n	8002490 <_printf_i+0x1a8>
 80023f8:	4616      	mov	r6, r2
 80023fa:	fbb5 f1f3 	udiv	r1, r5, r3
 80023fe:	fb03 5711 	mls	r7, r3, r1, r5
 8002402:	5dc7      	ldrb	r7, [r0, r7]
 8002404:	f806 7d01 	strb.w	r7, [r6, #-1]!
 8002408:	462f      	mov	r7, r5
 800240a:	42bb      	cmp	r3, r7
 800240c:	460d      	mov	r5, r1
 800240e:	d9f4      	bls.n	80023fa <_printf_i+0x112>
 8002410:	2b08      	cmp	r3, #8
 8002412:	d10b      	bne.n	800242c <_printf_i+0x144>
 8002414:	6823      	ldr	r3, [r4, #0]
 8002416:	07df      	lsls	r7, r3, #31
 8002418:	d508      	bpl.n	800242c <_printf_i+0x144>
 800241a:	6923      	ldr	r3, [r4, #16]
 800241c:	6861      	ldr	r1, [r4, #4]
 800241e:	4299      	cmp	r1, r3
 8002420:	bfde      	ittt	le
 8002422:	2330      	movle	r3, #48	@ 0x30
 8002424:	f806 3c01 	strble.w	r3, [r6, #-1]
 8002428:	f106 36ff 	addle.w	r6, r6, #4294967295	@ 0xffffffff
 800242c:	1b92      	subs	r2, r2, r6
 800242e:	6122      	str	r2, [r4, #16]
 8002430:	f8cd a000 	str.w	sl, [sp]
 8002434:	464b      	mov	r3, r9
 8002436:	aa03      	add	r2, sp, #12
 8002438:	4621      	mov	r1, r4
 800243a:	4640      	mov	r0, r8
 800243c:	f7ff fee6 	bl	800220c <_printf_common>
 8002440:	3001      	adds	r0, #1
 8002442:	d14a      	bne.n	80024da <_printf_i+0x1f2>
 8002444:	f04f 30ff 	mov.w	r0, #4294967295	@ 0xffffffff
 8002448:	b004      	add	sp, #16
 800244a:	e8bd 87f0 	ldmia.w	sp!, {r4, r5, r6, r7, r8, r9, sl, pc}
 800244e:	6823      	ldr	r3, [r4, #0]
 8002450:	f043 0320 	orr.w	r3, r3, #32
 8002454:	6023      	str	r3, [r4, #0]
 8002456:	4833      	ldr	r0, [pc, #204]	@ (8002524 <_printf_i+0x23c>)
 8002458:	2778      	movs	r7, #120	@ 0x78
 800245a:	f884 7045 	strb.w	r7, [r4, #69]	@ 0x45
 800245e:	6823      	ldr	r3, [r4, #0]
 8002460:	6831      	ldr	r1, [r6, #0]
 8002462:	061f      	lsls	r7, r3, #24
 8002464:	f851 5b04 	ldr.w	r5, [r1], #4
 8002468:	d402      	bmi.n	8002470 <_printf_i+0x188>
 800246a:	065f      	lsls	r7, r3, #25
 800246c:	bf48      	it	mi
 800246e:	b2ad      	uxthmi	r5, r5
 8002470:	6031      	str	r1, [r6, #0]
 8002472:	07d9      	lsls	r1, r3, #31
 8002474:	bf44      	itt	mi
 8002476:	f043 0320 	orrmi.w	r3, r3, #32
 800247a:	6023      	strmi	r3, [r4, #0]
 800247c:	b11d      	cbz	r5, 8002486 <_printf_i+0x19e>
 800247e:	2310      	movs	r3, #16
 8002480:	e7ac      	b.n	80023dc <_printf_i+0xf4>
 8002482:	4827      	ldr	r0, [pc, #156]	@ (8002520 <_printf_i+0x238>)
 8002484:	e7e9      	b.n	800245a <_printf_i+0x172>
 8002486:	6823      	ldr	r3, [r4, #0]
 8002488:	f023 0320 	bic.w	r3, r3, #32
 800248c:	6023      	str	r3, [r4, #0]
 800248e:	e7f6      	b.n	800247e <_printf_i+0x196>
 8002490:	4616      	mov	r6, r2
 8002492:	e7bd      	b.n	8002410 <_printf_i+0x128>
 8002494:	6833      	ldr	r3, [r6, #0]
 8002496:	6825      	ldr	r5, [r4, #0]
 8002498:	6961      	ldr	r1, [r4, #20]
 800249a:	1d18      	adds	r0, r3, #4
 800249c:	6030      	str	r0, [r6, #0]
 800249e:	062e      	lsls	r6, r5, #24
 80024a0:	681b      	ldr	r3, [r3, #0]
 80024a2:	d501      	bpl.n	80024a8 <_printf_i+0x1c0>
 80024a4:	6019      	str	r1, [r3, #0]
 80024a6:	e002      	b.n	80024ae <_printf_i+0x1c6>
 80024a8:	0668      	lsls	r0, r5, #25
 80024aa:	d5fb      	bpl.n	80024a4 <_printf_i+0x1bc>
 80024ac:	8019      	strh	r1, [r3, #0]
 80024ae:	2300      	movs	r3, #0
 80024b0:	6123      	str	r3, [r4, #16]
 80024b2:	4616      	mov	r6, r2
 80024b4:	e7bc      	b.n	8002430 <_printf_i+0x148>
 80024b6:	6833      	ldr	r3, [r6, #0]
 80024b8:	1d1a      	adds	r2, r3, #4
 80024ba:	6032      	str	r2, [r6, #0]
 80024bc:	681e      	ldr	r6, [r3, #0]
 80024be:	6862      	ldr	r2, [r4, #4]
 80024c0:	2100      	movs	r1, #0
 80024c2:	4630      	mov	r0, r6
 80024c4:	f7fd fe8c 	bl	80001e0 <memchr>
 80024c8:	b108      	cbz	r0, 80024ce <_printf_i+0x1e6>
 80024ca:	1b80      	subs	r0, r0, r6
 80024cc:	6060      	str	r0, [r4, #4]
 80024ce:	6863      	ldr	r3, [r4, #4]
 80024d0:	6123      	str	r3, [r4, #16]
 80024d2:	2300      	movs	r3, #0
 80024d4:	f884 3043 	strb.w	r3, [r4, #67]	@ 0x43
 80024d8:	e7aa      	b.n	8002430 <_printf_i+0x148>
 80024da:	6923      	ldr	r3, [r4, #16]
 80024dc:	4632      	mov	r2, r6
 80024de:	4649      	mov	r1, r9
 80024e0:	4640      	mov	r0, r8
 80024e2:	47d0      	blx	sl
 80024e4:	3001      	adds	r0, #1
 80024e6:	d0ad      	beq.n	8002444 <_printf_i+0x15c>
 80024e8:	6823      	ldr	r3, [r4, #0]
 80024ea:	079b      	lsls	r3, r3, #30
 80024ec:	d413      	bmi.n	8002516 <_printf_i+0x22e>
 80024ee:	68e0      	ldr	r0, [r4, #12]
 80024f0:	9b03      	ldr	r3, [sp, #12]
 80024f2:	4298      	cmp	r0, r3
 80024f4:	bfb8      	it	lt
 80024f6:	4618      	movlt	r0, r3
 80024f8:	e7a6      	b.n	8002448 <_printf_i+0x160>
 80024fa:	2301      	movs	r3, #1
 80024fc:	4632      	mov	r2, r6
 80024fe:	4649      	mov	r1, r9
 8002500:	4640      	mov	r0, r8
 8002502:	47d0      	blx	sl
 8002504:	3001      	adds	r0, #1
 8002506:	d09d      	beq.n	8002444 <_printf_i+0x15c>
 8002508:	3501      	adds	r5, #1
 800250a:	68e3      	ldr	r3, [r4, #12]
 800250c:	9903      	ldr	r1, [sp, #12]
 800250e:	1a5b      	subs	r3, r3, r1
 8002510:	42ab      	cmp	r3, r5
 8002512:	dcf2      	bgt.n	80024fa <_printf_i+0x212>
 8002514:	e7eb      	b.n	80024ee <_printf_i+0x206>
 8002516:	2500      	movs	r5, #0
 8002518:	f104 0619 	add.w	r6, r4, #25
 800251c:	e7f5      	b.n	800250a <_printf_i+0x222>
 800251e:	bf00      	nop
 8002520:	0800494b 	.word	0x0800494b
 8002524:	0800495c 	.word	0x0800495c

08002528 <__malloc_lock>:
 8002528:	4801      	ldr	r0, [pc, #4]	@ (8002530 <__malloc_lock+0x8>)
 800252a:	f000 b932 	b.w	8002792 <__retarget_lock_acquire_recursive>
 800252e:	bf00      	nop
 8002530:	200005fc 	.word	0x200005fc

08002534 <__malloc_unlock>:
 8002534:	4801      	ldr	r0, [pc, #4]	@ (800253c <__malloc_unlock+0x8>)
 8002536:	f000 b92d 	b.w	8002794 <__retarget_lock_release_recursive>
 800253a:	bf00      	nop
 800253c:	200005fc 	.word	0x200005fc

08002540 <siprintf>:
 8002540:	b40e      	push	{r1, r2, r3}
 8002542:	b500      	push	{lr}
 8002544:	b09c      	sub	sp, #112	@ 0x70
 8002546:	ab1d      	add	r3, sp, #116	@ 0x74
 8002548:	9002      	str	r0, [sp, #8]
 800254a:	9006      	str	r0, [sp, #24]
 800254c:	f06f 4100 	mvn.w	r1, #2147483648	@ 0x80000000
 8002550:	4809      	ldr	r0, [pc, #36]	@ (8002578 <siprintf+0x38>)
 8002552:	9107      	str	r1, [sp, #28]
 8002554:	9104      	str	r1, [sp, #16]
 8002556:	4909      	ldr	r1, [pc, #36]	@ (800257c <siprintf+0x3c>)
 8002558:	f853 2b04 	ldr.w	r2, [r3], #4
 800255c:	9105      	str	r1, [sp, #20]
 800255e:	6800      	ldr	r0, [r0, #0]
 8002560:	9301      	str	r3, [sp, #4]
 8002562:	a902      	add	r1, sp, #8
 8002564:	f001 f80e 	bl	8003584 <_svfiprintf_r>
 8002568:	9b02      	ldr	r3, [sp, #8]
 800256a:	2200      	movs	r2, #0
 800256c:	701a      	strb	r2, [r3, #0]
 800256e:	b01c      	add	sp, #112	@ 0x70
 8002570:	f85d eb04 	ldr.w	lr, [sp], #4
 8002574:	b003      	add	sp, #12
 8002576:	4770      	bx	lr
 8002578:	20000040 	.word	0x20000040
 800257c:	ffff0208 	.word	0xffff0208

08002580 <std>:
 8002580:	2300      	movs	r3, #0
 8002582:	b510      	push	{r4, lr}
 8002584:	4604      	mov	r4, r0
 8002586:	e9c0 3300 	strd	r3, r3, [r0]
 800258a:	e9c0 3304 	strd	r3, r3, [r0, #16]
 800258e:	6083      	str	r3, [r0, #8]
 8002590:	8181      	strh	r1, [r0, #12]
 8002592:	6643      	str	r3, [r0, #100]	@ 0x64
 8002594:	81c2      	strh	r2, [r0, #14]
 8002596:	6183      	str	r3, [r0, #24]
 8002598:	4619      	mov	r1, r3
 800259a:	2208      	movs	r2, #8
 800259c:	305c      	adds	r0, #92	@ 0x5c
 800259e:	f000 f8b1 	bl	8002704 <memset>
 80025a2:	4b0d      	ldr	r3, [pc, #52]	@ (80025d8 <std+0x58>)
 80025a4:	6263      	str	r3, [r4, #36]	@ 0x24
 80025a6:	4b0d      	ldr	r3, [pc, #52]	@ (80025dc <std+0x5c>)
 80025a8:	62a3      	str	r3, [r4, #40]	@ 0x28
 80025aa:	4b0d      	ldr	r3, [pc, #52]	@ (80025e0 <std+0x60>)
 80025ac:	62e3      	str	r3, [r4, #44]	@ 0x2c
 80025ae:	4b0d      	ldr	r3, [pc, #52]	@ (80025e4 <std+0x64>)
 80025b0:	6323      	str	r3, [r4, #48]	@ 0x30
 80025b2:	4b0d      	ldr	r3, [pc, #52]	@ (80025e8 <std+0x68>)
 80025b4:	6224      	str	r4, [r4, #32]
 80025b6:	429c      	cmp	r4, r3
 80025b8:	d006      	beq.n	80025c8 <std+0x48>
 80025ba:	f103 0268 	add.w	r2, r3, #104	@ 0x68
 80025be:	4294      	cmp	r4, r2
 80025c0:	d002      	beq.n	80025c8 <std+0x48>
 80025c2:	33d0      	adds	r3, #208	@ 0xd0
 80025c4:	429c      	cmp	r4, r3
 80025c6:	d105      	bne.n	80025d4 <std+0x54>
 80025c8:	f104 0058 	add.w	r0, r4, #88	@ 0x58
 80025cc:	e8bd 4010 	ldmia.w	sp!, {r4, lr}
 80025d0:	f000 b8de 	b.w	8002790 <__retarget_lock_init_recursive>
 80025d4:	bd10      	pop	{r4, pc}
 80025d6:	bf00      	nop
 80025d8:	08003fcd 	.word	0x08003fcd
 80025dc:	08003fef 	.word	0x08003fef
 80025e0:	08004027 	.word	0x08004027
 80025e4:	0800404b 	.word	0x0800404b
 80025e8:	200004c0 	.word	0x200004c0

080025ec <stdio_exit_handler>:
 80025ec:	4a02      	ldr	r2, [pc, #8]	@ (80025f8 <stdio_exit_handler+0xc>)
 80025ee:	4903      	ldr	r1, [pc, #12]	@ (80025fc <stdio_exit_handler+0x10>)
 80025f0:	4803      	ldr	r0, [pc, #12]	@ (8002600 <stdio_exit_handler+0x14>)
 80025f2:	f000 b869 	b.w	80026c8 <_fwalk_sglue>
 80025f6:	bf00      	nop
 80025f8:	20000034 	.word	0x20000034
 80025fc:	0800387d 	.word	0x0800387d
 8002600:	20000044 	.word	0x20000044

08002604 <cleanup_stdio>:
 8002604:	6841      	ldr	r1, [r0, #4]
 8002606:	4b0c      	ldr	r3, [pc, #48]	@ (8002638 <cleanup_stdio+0x34>)
 8002608:	4299      	cmp	r1, r3
 800260a:	b510      	push	{r4, lr}
 800260c:	4604      	mov	r4, r0
 800260e:	d001      	beq.n	8002614 <cleanup_stdio+0x10>
 8002610:	f001 f934 	bl	800387c <_fflush_r>
 8002614:	68a1      	ldr	r1, [r4, #8]
 8002616:	4b09      	ldr	r3, [pc, #36]	@ (800263c <cleanup_stdio+0x38>)
 8002618:	4299      	cmp	r1, r3
 800261a:	d002      	beq.n	8002622 <cleanup_stdio+0x1e>
 800261c:	4620      	mov	r0, r4
 800261e:	f001 f92d 	bl	800387c <_fflush_r>
 8002622:	68e1      	ldr	r1, [r4, #12]
 8002624:	4b06      	ldr	r3, [pc, #24]	@ (8002640 <cleanup_stdio+0x3c>)
 8002626:	4299      	cmp	r1, r3
 8002628:	d004      	beq.n	8002634 <cleanup_stdio+0x30>
 800262a:	4620      	mov	r0, r4
 800262c:	e8bd 4010 	ldmia.w	sp!, {r4, lr}
 8002630:	f001 b924 	b.w	800387c <_fflush_r>
 8002634:	bd10      	pop	{r4, pc}
 8002636:	bf00      	nop
 8002638:	200004c0 	.word	0x200004c0
 800263c:	20000528 	.word	0x20000528
 8002640:	20000590 	.word	0x20000590

08002644 <global_stdio_init.part.0>:
 8002644:	b510      	push	{r4, lr}
 8002646:	4b0b      	ldr	r3, [pc, #44]	@ (8002674 <global_stdio_init.part.0+0x30>)
 8002648:	4c0b      	ldr	r4, [pc, #44]	@ (8002678 <global_stdio_init.part.0+0x34>)
 800264a:	4a0c      	ldr	r2, [pc, #48]	@ (800267c <global_stdio_init.part.0+0x38>)
 800264c:	601a      	str	r2, [r3, #0]
 800264e:	4620      	mov	r0, r4
 8002650:	2200      	movs	r2, #0
 8002652:	2104      	movs	r1, #4
 8002654:	f7ff ff94 	bl	8002580 <std>
 8002658:	f104 0068 	add.w	r0, r4, #104	@ 0x68
 800265c:	2201      	movs	r2, #1
 800265e:	2109      	movs	r1, #9
 8002660:	f7ff ff8e 	bl	8002580 <std>
 8002664:	f104 00d0 	add.w	r0, r4, #208	@ 0xd0
 8002668:	2202      	movs	r2, #2
 800266a:	e8bd 4010 	ldmia.w	sp!, {r4, lr}
 800266e:	2112      	movs	r1, #18
 8002670:	f7ff bf86 	b.w	8002580 <std>
 8002674:	200005f8 	.word	0x200005f8
 8002678:	200004c0 	.word	0x200004c0
 800267c:	080025ed 	.word	0x080025ed

08002680 <__sfp_lock_acquire>:
 8002680:	4801      	ldr	r0, [pc, #4]	@ (8002688 <__sfp_lock_acquire+0x8>)
 8002682:	f000 b886 	b.w	8002792 <__retarget_lock_acquire_recursive>
 8002686:	bf00      	nop
 8002688:	200005fd 	.word	0x200005fd

0800268c <__sfp_lock_release>:
 800268c:	4801      	ldr	r0, [pc, #4]	@ (8002694 <__sfp_lock_release+0x8>)
 800268e:	f000 b881 	b.w	8002794 <__retarget_lock_release_recursive>
 8002692:	bf00      	nop
 8002694:	200005fd 	.word	0x200005fd

08002698 <__sinit>:
 8002698:	b510      	push	{r4, lr}
 800269a:	4604      	mov	r4, r0
 800269c:	f7ff fff0 	bl	8002680 <__sfp_lock_acquire>
 80026a0:	6a23      	ldr	r3, [r4, #32]
 80026a2:	b11b      	cbz	r3, 80026ac <__sinit+0x14>
 80026a4:	e8bd 4010 	ldmia.w	sp!, {r4, lr}
 80026a8:	f7ff bff0 	b.w	800268c <__sfp_lock_release>
 80026ac:	4b04      	ldr	r3, [pc, #16]	@ (80026c0 <__sinit+0x28>)
 80026ae:	6223      	str	r3, [r4, #32]
 80026b0:	4b04      	ldr	r3, [pc, #16]	@ (80026c4 <__sinit+0x2c>)
 80026b2:	681b      	ldr	r3, [r3, #0]
 80026b4:	2b00      	cmp	r3, #0
 80026b6:	d1f5      	bne.n	80026a4 <__sinit+0xc>
 80026b8:	f7ff ffc4 	bl	8002644 <global_stdio_init.part.0>
 80026bc:	e7f2      	b.n	80026a4 <__sinit+0xc>
 80026be:	bf00      	nop
 80026c0:	08002605 	.word	0x08002605
 80026c4:	200005f8 	.word	0x200005f8

080026c8 <_fwalk_sglue>:
 80026c8:	e92d 43f8 	stmdb	sp!, {r3, r4, r5, r6, r7, r8, r9, lr}
 80026cc:	4607      	mov	r7, r0
 80026ce:	4688      	mov	r8, r1
 80026d0:	4614      	mov	r4, r2
 80026d2:	2600      	movs	r6, #0
 80026d4:	e9d4 9501 	ldrd	r9, r5, [r4, #4]
 80026d8:	f1b9 0901 	subs.w	r9, r9, #1
 80026dc:	d505      	bpl.n	80026ea <_fwalk_sglue+0x22>
 80026de:	6824      	ldr	r4, [r4, #0]
 80026e0:	2c00      	cmp	r4, #0
 80026e2:	d1f7      	bne.n	80026d4 <_fwalk_sglue+0xc>
 80026e4:	4630      	mov	r0, r6
 80026e6:	e8bd 83f8 	ldmia.w	sp!, {r3, r4, r5, r6, r7, r8, r9, pc}
 80026ea:	89ab      	ldrh	r3, [r5, #12]
 80026ec:	2b01      	cmp	r3, #1
 80026ee:	d907      	bls.n	8002700 <_fwalk_sglue+0x38>
 80026f0:	f9b5 300e 	ldrsh.w	r3, [r5, #14]
 80026f4:	3301      	adds	r3, #1
 80026f6:	d003      	beq.n	8002700 <_fwalk_sglue+0x38>
 80026f8:	4629      	mov	r1, r5
 80026fa:	4638      	mov	r0, r7
 80026fc:	47c0      	blx	r8
 80026fe:	4306      	orrs	r6, r0
 8002700:	3568      	adds	r5, #104	@ 0x68
 8002702:	e7e9      	b.n	80026d8 <_fwalk_sglue+0x10>

08002704 <memset>:
 8002704:	4402      	add	r2, r0
 8002706:	4603      	mov	r3, r0
 8002708:	4293      	cmp	r3, r2
 800270a:	d100      	bne.n	800270e <memset+0xa>
 800270c:	4770      	bx	lr
 800270e:	f803 1b01 	strb.w	r1, [r3], #1
 8002712:	e7f9      	b.n	8002708 <memset+0x4>

08002714 <_localeconv_r>:
 8002714:	4800      	ldr	r0, [pc, #0]	@ (8002718 <_localeconv_r+0x4>)
 8002716:	4770      	bx	lr
 8002718:	20000180 	.word	0x20000180

0800271c <_sbrk_r>:
 800271c:	b538      	push	{r3, r4, r5, lr}
 800271e:	4d06      	ldr	r5, [pc, #24]	@ (8002738 <_sbrk_r+0x1c>)
 8002720:	2300      	movs	r3, #0
 8002722:	4604      	mov	r4, r0
 8002724:	4608      	mov	r0, r1
 8002726:	602b      	str	r3, [r5, #0]
 8002728:	f7ff f99c 	bl	8001a64 <_sbrk>
 800272c:	1c43      	adds	r3, r0, #1
 800272e:	d102      	bne.n	8002736 <_sbrk_r+0x1a>
 8002730:	682b      	ldr	r3, [r5, #0]
 8002732:	b103      	cbz	r3, 8002736 <_sbrk_r+0x1a>
 8002734:	6023      	str	r3, [r4, #0]
 8002736:	bd38      	pop	{r3, r4, r5, pc}
 8002738:	20000600 	.word	0x20000600

0800273c <__errno>:
 800273c:	4b01      	ldr	r3, [pc, #4]	@ (8002744 <__errno+0x8>)
 800273e:	6818      	ldr	r0, [r3, #0]
 8002740:	4770      	bx	lr
 8002742:	bf00      	nop
 8002744:	20000040 	.word	0x20000040

08002748 <__libc_init_array>:
 8002748:	b570      	push	{r4, r5, r6, lr}
 800274a:	4d0d      	ldr	r5, [pc, #52]	@ (8002780 <__libc_init_array+0x38>)
 800274c:	4c0d      	ldr	r4, [pc, #52]	@ (8002784 <__libc_init_array+0x3c>)
 800274e:	1b64      	subs	r4, r4, r5
 8002750:	10a4      	asrs	r4, r4, #2
 8002752:	2600      	movs	r6, #0
 8002754:	42a6      	cmp	r6, r4
 8002756:	d109      	bne.n	800276c <__libc_init_array+0x24>
 8002758:	4d0b      	ldr	r5, [pc, #44]	@ (8002788 <__libc_init_array+0x40>)
 800275a:	4c0c      	ldr	r4, [pc, #48]	@ (800278c <__libc_init_array+0x44>)
 800275c:	f002 f824 	bl	80047a8 <_init>
 8002760:	1b64      	subs	r4, r4, r5
 8002762:	10a4      	asrs	r4, r4, #2
 8002764:	2600      	movs	r6, #0
 8002766:	42a6      	cmp	r6, r4
 8002768:	d105      	bne.n	8002776 <__libc_init_array+0x2e>
 800276a:	bd70      	pop	{r4, r5, r6, pc}
 800276c:	f855 3b04 	ldr.w	r3, [r5], #4
 8002770:	4798      	blx	r3
 8002772:	3601      	adds	r6, #1
 8002774:	e7ee      	b.n	8002754 <__libc_init_array+0xc>
 8002776:	f855 3b04 	ldr.w	r3, [r5], #4
 800277a:	4798      	blx	r3
 800277c:	3601      	adds	r6, #1
 800277e:	e7f2      	b.n	8002766 <__libc_init_array+0x1e>
 8002780:	08004cb0 	.word	0x08004cb0
 8002784:	08004cb0 	.word	0x08004cb0
 8002788:	08004cb0 	.word	0x08004cb0
 800278c:	08004cb4 	.word	0x08004cb4

08002790 <__retarget_lock_init_recursive>:
 8002790:	4770      	bx	lr

08002792 <__retarget_lock_acquire_recursive>:
 8002792:	4770      	bx	lr

08002794 <__retarget_lock_release_recursive>:
 8002794:	4770      	bx	lr

08002796 <quorem>:
 8002796:	e92d 4ff7 	stmdb	sp!, {r0, r1, r2, r4, r5, r6, r7, r8, r9, sl, fp, lr}
 800279a:	6903      	ldr	r3, [r0, #16]
 800279c:	690c      	ldr	r4, [r1, #16]
 800279e:	42a3      	cmp	r3, r4
 80027a0:	4607      	mov	r7, r0
 80027a2:	db7e      	blt.n	80028a2 <quorem+0x10c>
 80027a4:	3c01      	subs	r4, #1
 80027a6:	f101 0814 	add.w	r8, r1, #20
 80027aa:	00a3      	lsls	r3, r4, #2
 80027ac:	f100 0514 	add.w	r5, r0, #20
 80027b0:	9300      	str	r3, [sp, #0]
 80027b2:	eb05 0384 	add.w	r3, r5, r4, lsl #2
 80027b6:	9301      	str	r3, [sp, #4]
 80027b8:	f858 3024 	ldr.w	r3, [r8, r4, lsl #2]
 80027bc:	f855 2024 	ldr.w	r2, [r5, r4, lsl #2]
 80027c0:	3301      	adds	r3, #1
 80027c2:	429a      	cmp	r2, r3
 80027c4:	eb08 0984 	add.w	r9, r8, r4, lsl #2
 80027c8:	fbb2 f6f3 	udiv	r6, r2, r3
 80027cc:	d32e      	bcc.n	800282c <quorem+0x96>
 80027ce:	f04f 0a00 	mov.w	sl, #0
 80027d2:	46c4      	mov	ip, r8
 80027d4:	46ae      	mov	lr, r5
 80027d6:	46d3      	mov	fp, sl
 80027d8:	f85c 3b04 	ldr.w	r3, [ip], #4
 80027dc:	b298      	uxth	r0, r3
 80027de:	fb06 a000 	mla	r0, r6, r0, sl
 80027e2:	0c02      	lsrs	r2, r0, #16
 80027e4:	0c1b      	lsrs	r3, r3, #16
 80027e6:	fb06 2303 	mla	r3, r6, r3, r2
 80027ea:	f8de 2000 	ldr.w	r2, [lr]
 80027ee:	b280      	uxth	r0, r0
 80027f0:	b292      	uxth	r2, r2
 80027f2:	1a12      	subs	r2, r2, r0
 80027f4:	445a      	add	r2, fp
 80027f6:	f8de 0000 	ldr.w	r0, [lr]
 80027fa:	ea4f 4a13 	mov.w	sl, r3, lsr #16
 80027fe:	b29b      	uxth	r3, r3
 8002800:	ebc3 4322 	rsb	r3, r3, r2, asr #16
 8002804:	eb03 4310 	add.w	r3, r3, r0, lsr #16
 8002808:	b292      	uxth	r2, r2
 800280a:	ea42 4203 	orr.w	r2, r2, r3, lsl #16
 800280e:	45e1      	cmp	r9, ip
 8002810:	f84e 2b04 	str.w	r2, [lr], #4
 8002814:	ea4f 4b23 	mov.w	fp, r3, asr #16
 8002818:	d2de      	bcs.n	80027d8 <quorem+0x42>
 800281a:	9b00      	ldr	r3, [sp, #0]
 800281c:	58eb      	ldr	r3, [r5, r3]
 800281e:	b92b      	cbnz	r3, 800282c <quorem+0x96>
 8002820:	9b01      	ldr	r3, [sp, #4]
 8002822:	3b04      	subs	r3, #4
 8002824:	429d      	cmp	r5, r3
 8002826:	461a      	mov	r2, r3
 8002828:	d32f      	bcc.n	800288a <quorem+0xf4>
 800282a:	613c      	str	r4, [r7, #16]
 800282c:	4638      	mov	r0, r7
 800282e:	f001 fac7 	bl	8003dc0 <__mcmp>
 8002832:	2800      	cmp	r0, #0
 8002834:	db25      	blt.n	8002882 <quorem+0xec>
 8002836:	4629      	mov	r1, r5
 8002838:	2000      	movs	r0, #0
 800283a:	f858 2b04 	ldr.w	r2, [r8], #4
 800283e:	f8d1 c000 	ldr.w	ip, [r1]
 8002842:	fa1f fe82 	uxth.w	lr, r2
 8002846:	fa1f f38c 	uxth.w	r3, ip
 800284a:	eba3 030e 	sub.w	r3, r3, lr
 800284e:	4403      	add	r3, r0
 8002850:	0c12      	lsrs	r2, r2, #16
 8002852:	ebc2 4223 	rsb	r2, r2, r3, asr #16
 8002856:	eb02 421c 	add.w	r2, r2, ip, lsr #16
 800285a:	b29b      	uxth	r3, r3
 800285c:	ea43 4302 	orr.w	r3, r3, r2, lsl #16
 8002860:	45c1      	cmp	r9, r8
 8002862:	f841 3b04 	str.w	r3, [r1], #4
 8002866:	ea4f 4022 	mov.w	r0, r2, asr #16
 800286a:	d2e6      	bcs.n	800283a <quorem+0xa4>
 800286c:	f855 2024 	ldr.w	r2, [r5, r4, lsl #2]
 8002870:	eb05 0384 	add.w	r3, r5, r4, lsl #2
 8002874:	b922      	cbnz	r2, 8002880 <quorem+0xea>
 8002876:	3b04      	subs	r3, #4
 8002878:	429d      	cmp	r5, r3
 800287a:	461a      	mov	r2, r3
 800287c:	d30b      	bcc.n	8002896 <quorem+0x100>
 800287e:	613c      	str	r4, [r7, #16]
 8002880:	3601      	adds	r6, #1
 8002882:	4630      	mov	r0, r6
 8002884:	b003      	add	sp, #12
 8002886:	e8bd 8ff0 	ldmia.w	sp!, {r4, r5, r6, r7, r8, r9, sl, fp, pc}
 800288a:	6812      	ldr	r2, [r2, #0]
 800288c:	3b04      	subs	r3, #4
 800288e:	2a00      	cmp	r2, #0
 8002890:	d1cb      	bne.n	800282a <quorem+0x94>
 8002892:	3c01      	subs	r4, #1
 8002894:	e7c6      	b.n	8002824 <quorem+0x8e>
 8002896:	6812      	ldr	r2, [r2, #0]
 8002898:	3b04      	subs	r3, #4
 800289a:	2a00      	cmp	r2, #0
 800289c:	d1ef      	bne.n	800287e <quorem+0xe8>
 800289e:	3c01      	subs	r4, #1
 80028a0:	e7ea      	b.n	8002878 <quorem+0xe2>
 80028a2:	2000      	movs	r0, #0
 80028a4:	e7ee      	b.n	8002884 <quorem+0xee>
	...

080028a8 <_dtoa_r>:
 80028a8:	e92d 4ff0 	stmdb	sp!, {r4, r5, r6, r7, r8, r9, sl, fp, lr}
 80028ac:	69c7      	ldr	r7, [r0, #28]
 80028ae:	b097      	sub	sp, #92	@ 0x5c
 80028b0:	4614      	mov	r4, r2
 80028b2:	461d      	mov	r5, r3
 80028b4:	e9cd 4502 	strd	r4, r5, [sp, #8]
 80028b8:	9e23      	ldr	r6, [sp, #140]	@ 0x8c
 80028ba:	4683      	mov	fp, r0
 80028bc:	b97f      	cbnz	r7, 80028de <_dtoa_r+0x36>
 80028be:	2010      	movs	r0, #16
 80028c0:	f7ff fbfa 	bl	80020b8 <malloc>
 80028c4:	4602      	mov	r2, r0
 80028c6:	f8cb 001c 	str.w	r0, [fp, #28]
 80028ca:	b920      	cbnz	r0, 80028d6 <_dtoa_r+0x2e>
 80028cc:	4ba8      	ldr	r3, [pc, #672]	@ (8002b70 <_dtoa_r+0x2c8>)
 80028ce:	21ef      	movs	r1, #239	@ 0xef
 80028d0:	48a8      	ldr	r0, [pc, #672]	@ (8002b74 <_dtoa_r+0x2cc>)
 80028d2:	f001 fc5b 	bl	800418c <__assert_func>
 80028d6:	e9c0 7701 	strd	r7, r7, [r0, #4]
 80028da:	6007      	str	r7, [r0, #0]
 80028dc:	60c7      	str	r7, [r0, #12]
 80028de:	f8db 301c 	ldr.w	r3, [fp, #28]
 80028e2:	6819      	ldr	r1, [r3, #0]
 80028e4:	b159      	cbz	r1, 80028fe <_dtoa_r+0x56>
 80028e6:	685a      	ldr	r2, [r3, #4]
 80028e8:	604a      	str	r2, [r1, #4]
 80028ea:	2301      	movs	r3, #1
 80028ec:	4093      	lsls	r3, r2
 80028ee:	608b      	str	r3, [r1, #8]
 80028f0:	4658      	mov	r0, fp
 80028f2:	f001 f82b 	bl	800394c <_Bfree>
 80028f6:	f8db 301c 	ldr.w	r3, [fp, #28]
 80028fa:	2200      	movs	r2, #0
 80028fc:	601a      	str	r2, [r3, #0]
 80028fe:	1e2b      	subs	r3, r5, #0
 8002900:	bfb9      	ittee	lt
 8002902:	f023 4300 	biclt.w	r3, r3, #2147483648	@ 0x80000000
 8002906:	9303      	strlt	r3, [sp, #12]
 8002908:	2300      	movge	r3, #0
 800290a:	6033      	strge	r3, [r6, #0]
 800290c:	f8dd 800c 	ldr.w	r8, [sp, #12]
 8002910:	4b99      	ldr	r3, [pc, #612]	@ (8002b78 <_dtoa_r+0x2d0>)
 8002912:	bfbc      	itt	lt
 8002914:	2201      	movlt	r2, #1
 8002916:	6032      	strlt	r2, [r6, #0]
 8002918:	ea33 0308 	bics.w	r3, r3, r8
 800291c:	d112      	bne.n	8002944 <_dtoa_r+0x9c>
 800291e:	9a22      	ldr	r2, [sp, #136]	@ 0x88
 8002920:	f242 730f 	movw	r3, #9999	@ 0x270f
 8002924:	6013      	str	r3, [r2, #0]
 8002926:	f3c8 0313 	ubfx	r3, r8, #0, #20
 800292a:	4323      	orrs	r3, r4
 800292c:	f000 8551 	beq.w	80033d2 <_dtoa_r+0xb2a>
 8002930:	9b24      	ldr	r3, [sp, #144]	@ 0x90
 8002932:	f8df a248 	ldr.w	sl, [pc, #584]	@ 8002b7c <_dtoa_r+0x2d4>
 8002936:	2b00      	cmp	r3, #0
 8002938:	f000 8553 	beq.w	80033e2 <_dtoa_r+0xb3a>
 800293c:	f10a 0303 	add.w	r3, sl, #3
 8002940:	f000 bd4d 	b.w	80033de <_dtoa_r+0xb36>
 8002944:	e9dd 2302 	ldrd	r2, r3, [sp, #8]
 8002948:	e9cd 230c 	strd	r2, r3, [sp, #48]	@ 0x30
 800294c:	e9dd 010c 	ldrd	r0, r1, [sp, #48]	@ 0x30
 8002950:	2200      	movs	r2, #0
 8002952:	2300      	movs	r3, #0
 8002954:	f7fe f97e 	bl	8000c54 <__aeabi_dcmpeq>
 8002958:	4607      	mov	r7, r0
 800295a:	b158      	cbz	r0, 8002974 <_dtoa_r+0xcc>
 800295c:	9a22      	ldr	r2, [sp, #136]	@ 0x88
 800295e:	2301      	movs	r3, #1
 8002960:	6013      	str	r3, [r2, #0]
 8002962:	9b24      	ldr	r3, [sp, #144]	@ 0x90
 8002964:	b113      	cbz	r3, 800296c <_dtoa_r+0xc4>
 8002966:	9a24      	ldr	r2, [sp, #144]	@ 0x90
 8002968:	4b85      	ldr	r3, [pc, #532]	@ (8002b80 <_dtoa_r+0x2d8>)
 800296a:	6013      	str	r3, [r2, #0]
 800296c:	f8df a214 	ldr.w	sl, [pc, #532]	@ 8002b84 <_dtoa_r+0x2dc>
 8002970:	f000 bd37 	b.w	80033e2 <_dtoa_r+0xb3a>
 8002974:	ab14      	add	r3, sp, #80	@ 0x50
 8002976:	9301      	str	r3, [sp, #4]
 8002978:	ab15      	add	r3, sp, #84	@ 0x54
 800297a:	9300      	str	r3, [sp, #0]
 800297c:	4658      	mov	r0, fp
 800297e:	e9dd 230c 	ldrd	r2, r3, [sp, #48]	@ 0x30
 8002982:	f001 facb 	bl	8003f1c <__d2b>
 8002986:	f3c8 560a 	ubfx	r6, r8, #20, #11
 800298a:	4681      	mov	r9, r0
 800298c:	2e00      	cmp	r6, #0
 800298e:	d076      	beq.n	8002a7e <_dtoa_r+0x1d6>
 8002990:	9b0d      	ldr	r3, [sp, #52]	@ 0x34
 8002992:	9712      	str	r7, [sp, #72]	@ 0x48
 8002994:	f3c3 0313 	ubfx	r3, r3, #0, #20
 8002998:	e9dd 010c 	ldrd	r0, r1, [sp, #48]	@ 0x30
 800299c:	f043 537f 	orr.w	r3, r3, #1069547520	@ 0x3fc00000
 80029a0:	f443 1340 	orr.w	r3, r3, #3145728	@ 0x300000
 80029a4:	f2a6 36ff 	subw	r6, r6, #1023	@ 0x3ff
 80029a8:	4619      	mov	r1, r3
 80029aa:	2200      	movs	r2, #0
 80029ac:	4b76      	ldr	r3, [pc, #472]	@ (8002b88 <_dtoa_r+0x2e0>)
 80029ae:	f7fd fd31 	bl	8000414 <__aeabi_dsub>
 80029b2:	a369      	add	r3, pc, #420	@ (adr r3, 8002b58 <_dtoa_r+0x2b0>)
 80029b4:	e9d3 2300 	ldrd	r2, r3, [r3]
 80029b8:	f7fd fee4 	bl	8000784 <__aeabi_dmul>
 80029bc:	a368      	add	r3, pc, #416	@ (adr r3, 8002b60 <_dtoa_r+0x2b8>)
 80029be:	e9d3 2300 	ldrd	r2, r3, [r3]
 80029c2:	f7fd fd29 	bl	8000418 <__adddf3>
 80029c6:	4604      	mov	r4, r0
 80029c8:	4630      	mov	r0, r6
 80029ca:	460d      	mov	r5, r1
 80029cc:	f7fd fe70 	bl	80006b0 <__aeabi_i2d>
 80029d0:	a365      	add	r3, pc, #404	@ (adr r3, 8002b68 <_dtoa_r+0x2c0>)
 80029d2:	e9d3 2300 	ldrd	r2, r3, [r3]
 80029d6:	f7fd fed5 	bl	8000784 <__aeabi_dmul>
 80029da:	4602      	mov	r2, r0
 80029dc:	460b      	mov	r3, r1
 80029de:	4620      	mov	r0, r4
 80029e0:	4629      	mov	r1, r5
 80029e2:	f7fd fd19 	bl	8000418 <__adddf3>
 80029e6:	4604      	mov	r4, r0
 80029e8:	460d      	mov	r5, r1
 80029ea:	f7fe f97b 	bl	8000ce4 <__aeabi_d2iz>
 80029ee:	2200      	movs	r2, #0
 80029f0:	4607      	mov	r7, r0
 80029f2:	2300      	movs	r3, #0
 80029f4:	4620      	mov	r0, r4
 80029f6:	4629      	mov	r1, r5
 80029f8:	f7fe f936 	bl	8000c68 <__aeabi_dcmplt>
 80029fc:	b140      	cbz	r0, 8002a10 <_dtoa_r+0x168>
 80029fe:	4638      	mov	r0, r7
 8002a00:	f7fd fe56 	bl	80006b0 <__aeabi_i2d>
 8002a04:	4622      	mov	r2, r4
 8002a06:	462b      	mov	r3, r5
 8002a08:	f7fe f924 	bl	8000c54 <__aeabi_dcmpeq>
 8002a0c:	b900      	cbnz	r0, 8002a10 <_dtoa_r+0x168>
 8002a0e:	3f01      	subs	r7, #1
 8002a10:	2f16      	cmp	r7, #22
 8002a12:	d852      	bhi.n	8002aba <_dtoa_r+0x212>
 8002a14:	4b5d      	ldr	r3, [pc, #372]	@ (8002b8c <_dtoa_r+0x2e4>)
 8002a16:	eb03 03c7 	add.w	r3, r3, r7, lsl #3
 8002a1a:	e9d3 2300 	ldrd	r2, r3, [r3]
 8002a1e:	e9dd 010c 	ldrd	r0, r1, [sp, #48]	@ 0x30
 8002a22:	f7fe f921 	bl	8000c68 <__aeabi_dcmplt>
 8002a26:	2800      	cmp	r0, #0
 8002a28:	d049      	beq.n	8002abe <_dtoa_r+0x216>
 8002a2a:	3f01      	subs	r7, #1
 8002a2c:	2300      	movs	r3, #0
 8002a2e:	930f      	str	r3, [sp, #60]	@ 0x3c
 8002a30:	9b14      	ldr	r3, [sp, #80]	@ 0x50
 8002a32:	1b9b      	subs	r3, r3, r6
 8002a34:	1e5a      	subs	r2, r3, #1
 8002a36:	bf44      	itt	mi
 8002a38:	f1c3 0801 	rsbmi	r8, r3, #1
 8002a3c:	2300      	movmi	r3, #0
 8002a3e:	9209      	str	r2, [sp, #36]	@ 0x24
 8002a40:	bf54      	ite	pl
 8002a42:	f04f 0800 	movpl.w	r8, #0
 8002a46:	9309      	strmi	r3, [sp, #36]	@ 0x24
 8002a48:	2f00      	cmp	r7, #0
 8002a4a:	db3a      	blt.n	8002ac2 <_dtoa_r+0x21a>
 8002a4c:	9b09      	ldr	r3, [sp, #36]	@ 0x24
 8002a4e:	970e      	str	r7, [sp, #56]	@ 0x38
 8002a50:	443b      	add	r3, r7
 8002a52:	9309      	str	r3, [sp, #36]	@ 0x24
 8002a54:	2300      	movs	r3, #0
 8002a56:	930a      	str	r3, [sp, #40]	@ 0x28
 8002a58:	9b20      	ldr	r3, [sp, #128]	@ 0x80
 8002a5a:	2b09      	cmp	r3, #9
 8002a5c:	d865      	bhi.n	8002b2a <_dtoa_r+0x282>
 8002a5e:	2b05      	cmp	r3, #5
 8002a60:	bfc4      	itt	gt
 8002a62:	3b04      	subgt	r3, #4
 8002a64:	9320      	strgt	r3, [sp, #128]	@ 0x80
 8002a66:	9b20      	ldr	r3, [sp, #128]	@ 0x80
 8002a68:	f1a3 0302 	sub.w	r3, r3, #2
 8002a6c:	bfcc      	ite	gt
 8002a6e:	2400      	movgt	r4, #0
 8002a70:	2401      	movle	r4, #1
 8002a72:	2b03      	cmp	r3, #3
 8002a74:	d864      	bhi.n	8002b40 <_dtoa_r+0x298>
 8002a76:	e8df f003 	tbb	[pc, r3]
 8002a7a:	382b      	.short	0x382b
 8002a7c:	5636      	.short	0x5636
 8002a7e:	e9dd 6314 	ldrd	r6, r3, [sp, #80]	@ 0x50
 8002a82:	441e      	add	r6, r3
 8002a84:	f206 4332 	addw	r3, r6, #1074	@ 0x432
 8002a88:	2b20      	cmp	r3, #32
 8002a8a:	bfc1      	itttt	gt
 8002a8c:	f1c3 0340 	rsbgt	r3, r3, #64	@ 0x40
 8002a90:	fa08 f803 	lslgt.w	r8, r8, r3
 8002a94:	f206 4312 	addwgt	r3, r6, #1042	@ 0x412
 8002a98:	fa24 f303 	lsrgt.w	r3, r4, r3
 8002a9c:	bfd6      	itet	le
 8002a9e:	f1c3 0320 	rsble	r3, r3, #32
 8002aa2:	ea48 0003 	orrgt.w	r0, r8, r3
 8002aa6:	fa04 f003 	lslle.w	r0, r4, r3
 8002aaa:	f7fd fdf1 	bl	8000690 <__aeabi_ui2d>
 8002aae:	2201      	movs	r2, #1
 8002ab0:	f1a1 73f8 	sub.w	r3, r1, #32505856	@ 0x1f00000
 8002ab4:	3e01      	subs	r6, #1
 8002ab6:	9212      	str	r2, [sp, #72]	@ 0x48
 8002ab8:	e776      	b.n	80029a8 <_dtoa_r+0x100>
 8002aba:	2301      	movs	r3, #1
 8002abc:	e7b7      	b.n	8002a2e <_dtoa_r+0x186>
 8002abe:	900f      	str	r0, [sp, #60]	@ 0x3c
 8002ac0:	e7b6      	b.n	8002a30 <_dtoa_r+0x188>
 8002ac2:	427b      	negs	r3, r7
 8002ac4:	930a      	str	r3, [sp, #40]	@ 0x28
 8002ac6:	2300      	movs	r3, #0
 8002ac8:	eba8 0807 	sub.w	r8, r8, r7
 8002acc:	930e      	str	r3, [sp, #56]	@ 0x38
 8002ace:	e7c3      	b.n	8002a58 <_dtoa_r+0x1b0>
 8002ad0:	2300      	movs	r3, #0
 8002ad2:	930b      	str	r3, [sp, #44]	@ 0x2c
 8002ad4:	9b21      	ldr	r3, [sp, #132]	@ 0x84
 8002ad6:	2b00      	cmp	r3, #0
 8002ad8:	dc35      	bgt.n	8002b46 <_dtoa_r+0x29e>
 8002ada:	2301      	movs	r3, #1
 8002adc:	e9cd 3307 	strd	r3, r3, [sp, #28]
 8002ae0:	461a      	mov	r2, r3
 8002ae2:	9221      	str	r2, [sp, #132]	@ 0x84
 8002ae4:	e00b      	b.n	8002afe <_dtoa_r+0x256>
 8002ae6:	2301      	movs	r3, #1
 8002ae8:	e7f3      	b.n	8002ad2 <_dtoa_r+0x22a>
 8002aea:	2300      	movs	r3, #0
 8002aec:	930b      	str	r3, [sp, #44]	@ 0x2c
 8002aee:	9b21      	ldr	r3, [sp, #132]	@ 0x84
 8002af0:	18fb      	adds	r3, r7, r3
 8002af2:	9308      	str	r3, [sp, #32]
 8002af4:	3301      	adds	r3, #1
 8002af6:	2b01      	cmp	r3, #1
 8002af8:	9307      	str	r3, [sp, #28]
 8002afa:	bfb8      	it	lt
 8002afc:	2301      	movlt	r3, #1
 8002afe:	f8db 001c 	ldr.w	r0, [fp, #28]
 8002b02:	2100      	movs	r1, #0
 8002b04:	2204      	movs	r2, #4
 8002b06:	f102 0514 	add.w	r5, r2, #20
 8002b0a:	429d      	cmp	r5, r3
 8002b0c:	d91f      	bls.n	8002b4e <_dtoa_r+0x2a6>
 8002b0e:	6041      	str	r1, [r0, #4]
 8002b10:	4658      	mov	r0, fp
 8002b12:	f000 fedb 	bl	80038cc <_Balloc>
 8002b16:	4682      	mov	sl, r0
 8002b18:	2800      	cmp	r0, #0
 8002b1a:	d13b      	bne.n	8002b94 <_dtoa_r+0x2ec>
 8002b1c:	4b1c      	ldr	r3, [pc, #112]	@ (8002b90 <_dtoa_r+0x2e8>)
 8002b1e:	4602      	mov	r2, r0
 8002b20:	f240 11af 	movw	r1, #431	@ 0x1af
 8002b24:	e6d4      	b.n	80028d0 <_dtoa_r+0x28>
 8002b26:	2301      	movs	r3, #1
 8002b28:	e7e0      	b.n	8002aec <_dtoa_r+0x244>
 8002b2a:	2401      	movs	r4, #1
 8002b2c:	2300      	movs	r3, #0
 8002b2e:	9320      	str	r3, [sp, #128]	@ 0x80
 8002b30:	940b      	str	r4, [sp, #44]	@ 0x2c
 8002b32:	f04f 33ff 	mov.w	r3, #4294967295	@ 0xffffffff
 8002b36:	e9cd 3307 	strd	r3, r3, [sp, #28]
 8002b3a:	2200      	movs	r2, #0
 8002b3c:	2312      	movs	r3, #18
 8002b3e:	e7d0      	b.n	8002ae2 <_dtoa_r+0x23a>
 8002b40:	2301      	movs	r3, #1
 8002b42:	930b      	str	r3, [sp, #44]	@ 0x2c
 8002b44:	e7f5      	b.n	8002b32 <_dtoa_r+0x28a>
 8002b46:	9b21      	ldr	r3, [sp, #132]	@ 0x84
 8002b48:	e9cd 3307 	strd	r3, r3, [sp, #28]
 8002b4c:	e7d7      	b.n	8002afe <_dtoa_r+0x256>
 8002b4e:	3101      	adds	r1, #1
 8002b50:	0052      	lsls	r2, r2, #1
 8002b52:	e7d8      	b.n	8002b06 <_dtoa_r+0x25e>
 8002b54:	f3af 8000 	nop.w
 8002b58:	636f4361 	.word	0x636f4361
 8002b5c:	3fd287a7 	.word	0x3fd287a7
 8002b60:	8b60c8b3 	.word	0x8b60c8b3
 8002b64:	3fc68a28 	.word	0x3fc68a28
 8002b68:	509f79fb 	.word	0x509f79fb
 8002b6c:	3fd34413 	.word	0x3fd34413
 8002b70:	0800497a 	.word	0x0800497a
 8002b74:	08004991 	.word	0x08004991
 8002b78:	7ff00000 	.word	0x7ff00000
 8002b7c:	08004976 	.word	0x08004976
 8002b80:	0800494a 	.word	0x0800494a
 8002b84:	08004949 	.word	0x08004949
 8002b88:	3ff80000 	.word	0x3ff80000
 8002b8c:	08004a98 	.word	0x08004a98
 8002b90:	080049e9 	.word	0x080049e9
 8002b94:	f8db 301c 	ldr.w	r3, [fp, #28]
 8002b98:	6018      	str	r0, [r3, #0]
 8002b9a:	9b07      	ldr	r3, [sp, #28]
 8002b9c:	2b0e      	cmp	r3, #14
 8002b9e:	f200 80a4 	bhi.w	8002cea <_dtoa_r+0x442>
 8002ba2:	2c00      	cmp	r4, #0
 8002ba4:	f000 80a1 	beq.w	8002cea <_dtoa_r+0x442>
 8002ba8:	2f00      	cmp	r7, #0
 8002baa:	dd33      	ble.n	8002c14 <_dtoa_r+0x36c>
 8002bac:	4b86      	ldr	r3, [pc, #536]	@ (8002dc8 <_dtoa_r+0x520>)
 8002bae:	f007 020f 	and.w	r2, r7, #15
 8002bb2:	eb03 03c2 	add.w	r3, r3, r2, lsl #3
 8002bb6:	e9d3 3400 	ldrd	r3, r4, [r3]
 8002bba:	05f8      	lsls	r0, r7, #23
 8002bbc:	e9cd 3404 	strd	r3, r4, [sp, #16]
 8002bc0:	ea4f 1427 	mov.w	r4, r7, asr #4
 8002bc4:	d516      	bpl.n	8002bf4 <_dtoa_r+0x34c>
 8002bc6:	4b81      	ldr	r3, [pc, #516]	@ (8002dcc <_dtoa_r+0x524>)
 8002bc8:	e9dd 010c 	ldrd	r0, r1, [sp, #48]	@ 0x30
 8002bcc:	e9d3 2308 	ldrd	r2, r3, [r3, #32]
 8002bd0:	f7fd ff02 	bl	80009d8 <__aeabi_ddiv>
 8002bd4:	e9cd 0102 	strd	r0, r1, [sp, #8]
 8002bd8:	f004 040f 	and.w	r4, r4, #15
 8002bdc:	2603      	movs	r6, #3
 8002bde:	4d7b      	ldr	r5, [pc, #492]	@ (8002dcc <_dtoa_r+0x524>)
 8002be0:	b954      	cbnz	r4, 8002bf8 <_dtoa_r+0x350>
 8002be2:	e9dd 2304 	ldrd	r2, r3, [sp, #16]
 8002be6:	e9dd 0102 	ldrd	r0, r1, [sp, #8]
 8002bea:	f7fd fef5 	bl	80009d8 <__aeabi_ddiv>
 8002bee:	e9cd 0102 	strd	r0, r1, [sp, #8]
 8002bf2:	e028      	b.n	8002c46 <_dtoa_r+0x39e>
 8002bf4:	2602      	movs	r6, #2
 8002bf6:	e7f2      	b.n	8002bde <_dtoa_r+0x336>
 8002bf8:	07e1      	lsls	r1, r4, #31
 8002bfa:	d508      	bpl.n	8002c0e <_dtoa_r+0x366>
 8002bfc:	e9dd 0104 	ldrd	r0, r1, [sp, #16]
 8002c00:	e9d5 2300 	ldrd	r2, r3, [r5]
 8002c04:	f7fd fdbe 	bl	8000784 <__aeabi_dmul>
 8002c08:	e9cd 0104 	strd	r0, r1, [sp, #16]
 8002c0c:	3601      	adds	r6, #1
 8002c0e:	1064      	asrs	r4, r4, #1
 8002c10:	3508      	adds	r5, #8
 8002c12:	e7e5      	b.n	8002be0 <_dtoa_r+0x338>
 8002c14:	f000 80d2 	beq.w	8002dbc <_dtoa_r+0x514>
 8002c18:	427c      	negs	r4, r7
 8002c1a:	4b6b      	ldr	r3, [pc, #428]	@ (8002dc8 <_dtoa_r+0x520>)
 8002c1c:	4d6b      	ldr	r5, [pc, #428]	@ (8002dcc <_dtoa_r+0x524>)
 8002c1e:	f004 020f 	and.w	r2, r4, #15
 8002c22:	eb03 03c2 	add.w	r3, r3, r2, lsl #3
 8002c26:	e9d3 2300 	ldrd	r2, r3, [r3]
 8002c2a:	e9dd 010c 	ldrd	r0, r1, [sp, #48]	@ 0x30
 8002c2e:	f7fd fda9 	bl	8000784 <__aeabi_dmul>
 8002c32:	e9cd 0102 	strd	r0, r1, [sp, #8]
 8002c36:	1124      	asrs	r4, r4, #4
 8002c38:	2300      	movs	r3, #0
 8002c3a:	2602      	movs	r6, #2
 8002c3c:	2c00      	cmp	r4, #0
 8002c3e:	f040 80b2 	bne.w	8002da6 <_dtoa_r+0x4fe>
 8002c42:	2b00      	cmp	r3, #0
 8002c44:	d1d3      	bne.n	8002bee <_dtoa_r+0x346>
 8002c46:	9b0f      	ldr	r3, [sp, #60]	@ 0x3c
 8002c48:	e9dd 4502 	ldrd	r4, r5, [sp, #8]
 8002c4c:	2b00      	cmp	r3, #0
 8002c4e:	f000 80b7 	beq.w	8002dc0 <_dtoa_r+0x518>
 8002c52:	4b5f      	ldr	r3, [pc, #380]	@ (8002dd0 <_dtoa_r+0x528>)
 8002c54:	2200      	movs	r2, #0
 8002c56:	4620      	mov	r0, r4
 8002c58:	4629      	mov	r1, r5
 8002c5a:	f7fe f805 	bl	8000c68 <__aeabi_dcmplt>
 8002c5e:	2800      	cmp	r0, #0
 8002c60:	f000 80ae 	beq.w	8002dc0 <_dtoa_r+0x518>
 8002c64:	9b07      	ldr	r3, [sp, #28]
 8002c66:	2b00      	cmp	r3, #0
 8002c68:	f000 80aa 	beq.w	8002dc0 <_dtoa_r+0x518>
 8002c6c:	9b08      	ldr	r3, [sp, #32]
 8002c6e:	2b00      	cmp	r3, #0
 8002c70:	dd37      	ble.n	8002ce2 <_dtoa_r+0x43a>
 8002c72:	1e7b      	subs	r3, r7, #1
 8002c74:	9304      	str	r3, [sp, #16]
 8002c76:	4620      	mov	r0, r4
 8002c78:	4b56      	ldr	r3, [pc, #344]	@ (8002dd4 <_dtoa_r+0x52c>)
 8002c7a:	2200      	movs	r2, #0
 8002c7c:	4629      	mov	r1, r5
 8002c7e:	f7fd fd81 	bl	8000784 <__aeabi_dmul>
 8002c82:	e9cd 0102 	strd	r0, r1, [sp, #8]
 8002c86:	9c08      	ldr	r4, [sp, #32]
 8002c88:	3601      	adds	r6, #1
 8002c8a:	4630      	mov	r0, r6
 8002c8c:	f7fd fd10 	bl	80006b0 <__aeabi_i2d>
 8002c90:	e9dd 2302 	ldrd	r2, r3, [sp, #8]
 8002c94:	f7fd fd76 	bl	8000784 <__aeabi_dmul>
 8002c98:	4b4f      	ldr	r3, [pc, #316]	@ (8002dd8 <_dtoa_r+0x530>)
 8002c9a:	2200      	movs	r2, #0
 8002c9c:	f7fd fbbc 	bl	8000418 <__adddf3>
 8002ca0:	4605      	mov	r5, r0
 8002ca2:	f1a1 7650 	sub.w	r6, r1, #54525952	@ 0x3400000
 8002ca6:	2c00      	cmp	r4, #0
 8002ca8:	f040 809a 	bne.w	8002de0 <_dtoa_r+0x538>
 8002cac:	e9dd 0102 	ldrd	r0, r1, [sp, #8]
 8002cb0:	4b4a      	ldr	r3, [pc, #296]	@ (8002ddc <_dtoa_r+0x534>)
 8002cb2:	2200      	movs	r2, #0
 8002cb4:	f7fd fbae 	bl	8000414 <__aeabi_dsub>
 8002cb8:	4602      	mov	r2, r0
 8002cba:	460b      	mov	r3, r1
 8002cbc:	e9cd 2302 	strd	r2, r3, [sp, #8]
 8002cc0:	462a      	mov	r2, r5
 8002cc2:	4633      	mov	r3, r6
 8002cc4:	f7fd ffee 	bl	8000ca4 <__aeabi_dcmpgt>
 8002cc8:	2800      	cmp	r0, #0
 8002cca:	f040 828e 	bne.w	80031ea <_dtoa_r+0x942>
 8002cce:	e9dd 0102 	ldrd	r0, r1, [sp, #8]
 8002cd2:	462a      	mov	r2, r5
 8002cd4:	f106 4300 	add.w	r3, r6, #2147483648	@ 0x80000000
 8002cd8:	f7fd ffc6 	bl	8000c68 <__aeabi_dcmplt>
 8002cdc:	2800      	cmp	r0, #0
 8002cde:	f040 8127 	bne.w	8002f30 <_dtoa_r+0x688>
 8002ce2:	e9dd 340c 	ldrd	r3, r4, [sp, #48]	@ 0x30
 8002ce6:	e9cd 3402 	strd	r3, r4, [sp, #8]
 8002cea:	9b15      	ldr	r3, [sp, #84]	@ 0x54
 8002cec:	2b00      	cmp	r3, #0
 8002cee:	f2c0 8163 	blt.w	8002fb8 <_dtoa_r+0x710>
 8002cf2:	2f0e      	cmp	r7, #14
 8002cf4:	f300 8160 	bgt.w	8002fb8 <_dtoa_r+0x710>
 8002cf8:	4b33      	ldr	r3, [pc, #204]	@ (8002dc8 <_dtoa_r+0x520>)
 8002cfa:	eb03 03c7 	add.w	r3, r3, r7, lsl #3
 8002cfe:	e9d3 3400 	ldrd	r3, r4, [r3]
 8002d02:	e9cd 3404 	strd	r3, r4, [sp, #16]
 8002d06:	9b21      	ldr	r3, [sp, #132]	@ 0x84
 8002d08:	2b00      	cmp	r3, #0
 8002d0a:	da03      	bge.n	8002d14 <_dtoa_r+0x46c>
 8002d0c:	9b07      	ldr	r3, [sp, #28]
 8002d0e:	2b00      	cmp	r3, #0
 8002d10:	f340 8100 	ble.w	8002f14 <_dtoa_r+0x66c>
 8002d14:	e9dd 4502 	ldrd	r4, r5, [sp, #8]
 8002d18:	4656      	mov	r6, sl
 8002d1a:	e9dd 2304 	ldrd	r2, r3, [sp, #16]
 8002d1e:	4620      	mov	r0, r4
 8002d20:	4629      	mov	r1, r5
 8002d22:	f7fd fe59 	bl	80009d8 <__aeabi_ddiv>
 8002d26:	f7fd ffdd 	bl	8000ce4 <__aeabi_d2iz>
 8002d2a:	4680      	mov	r8, r0
 8002d2c:	f7fd fcc0 	bl	80006b0 <__aeabi_i2d>
 8002d30:	e9dd 2304 	ldrd	r2, r3, [sp, #16]
 8002d34:	f7fd fd26 	bl	8000784 <__aeabi_dmul>
 8002d38:	4602      	mov	r2, r0
 8002d3a:	460b      	mov	r3, r1
 8002d3c:	4620      	mov	r0, r4
 8002d3e:	4629      	mov	r1, r5
 8002d40:	f108 0430 	add.w	r4, r8, #48	@ 0x30
 8002d44:	f7fd fb66 	bl	8000414 <__aeabi_dsub>
 8002d48:	f806 4b01 	strb.w	r4, [r6], #1
 8002d4c:	9d07      	ldr	r5, [sp, #28]
 8002d4e:	eba6 040a 	sub.w	r4, r6, sl
 8002d52:	42a5      	cmp	r5, r4
 8002d54:	4602      	mov	r2, r0
 8002d56:	460b      	mov	r3, r1
 8002d58:	f040 8116 	bne.w	8002f88 <_dtoa_r+0x6e0>
 8002d5c:	f7fd fb5c 	bl	8000418 <__adddf3>
 8002d60:	e9dd 2304 	ldrd	r2, r3, [sp, #16]
 8002d64:	4604      	mov	r4, r0
 8002d66:	460d      	mov	r5, r1
 8002d68:	f7fd ff9c 	bl	8000ca4 <__aeabi_dcmpgt>
 8002d6c:	2800      	cmp	r0, #0
 8002d6e:	f040 80f8 	bne.w	8002f62 <_dtoa_r+0x6ba>
 8002d72:	e9dd 2304 	ldrd	r2, r3, [sp, #16]
 8002d76:	4620      	mov	r0, r4
 8002d78:	4629      	mov	r1, r5
 8002d7a:	f7fd ff6b 	bl	8000c54 <__aeabi_dcmpeq>
 8002d7e:	b118      	cbz	r0, 8002d88 <_dtoa_r+0x4e0>
 8002d80:	f018 0f01 	tst.w	r8, #1
 8002d84:	f040 80ed 	bne.w	8002f62 <_dtoa_r+0x6ba>
 8002d88:	4649      	mov	r1, r9
 8002d8a:	4658      	mov	r0, fp
 8002d8c:	f000 fdde 	bl	800394c <_Bfree>
 8002d90:	2300      	movs	r3, #0
 8002d92:	7033      	strb	r3, [r6, #0]
 8002d94:	9b22      	ldr	r3, [sp, #136]	@ 0x88
 8002d96:	3701      	adds	r7, #1
 8002d98:	601f      	str	r7, [r3, #0]
 8002d9a:	9b24      	ldr	r3, [sp, #144]	@ 0x90
 8002d9c:	2b00      	cmp	r3, #0
 8002d9e:	f000 8320 	beq.w	80033e2 <_dtoa_r+0xb3a>
 8002da2:	601e      	str	r6, [r3, #0]
 8002da4:	e31d      	b.n	80033e2 <_dtoa_r+0xb3a>
 8002da6:	07e2      	lsls	r2, r4, #31
 8002da8:	d505      	bpl.n	8002db6 <_dtoa_r+0x50e>
 8002daa:	e9d5 2300 	ldrd	r2, r3, [r5]
 8002dae:	f7fd fce9 	bl	8000784 <__aeabi_dmul>
 8002db2:	3601      	adds	r6, #1
 8002db4:	2301      	movs	r3, #1
 8002db6:	1064      	asrs	r4, r4, #1
 8002db8:	3508      	adds	r5, #8
 8002dba:	e73f      	b.n	8002c3c <_dtoa_r+0x394>
 8002dbc:	2602      	movs	r6, #2
 8002dbe:	e742      	b.n	8002c46 <_dtoa_r+0x39e>
 8002dc0:	9c07      	ldr	r4, [sp, #28]
 8002dc2:	9704      	str	r7, [sp, #16]
 8002dc4:	e761      	b.n	8002c8a <_dtoa_r+0x3e2>
 8002dc6:	bf00      	nop
 8002dc8:	08004a98 	.word	0x08004a98
 8002dcc:	08004a70 	.word	0x08004a70
 8002dd0:	3ff00000 	.word	0x3ff00000
 8002dd4:	40240000 	.word	0x40240000
 8002dd8:	401c0000 	.word	0x401c0000
 8002ddc:	40140000 	.word	0x40140000
 8002de0:	4b70      	ldr	r3, [pc, #448]	@ (8002fa4 <_dtoa_r+0x6fc>)
 8002de2:	990b      	ldr	r1, [sp, #44]	@ 0x2c
 8002de4:	eb03 03c4 	add.w	r3, r3, r4, lsl #3
 8002de8:	e953 2302 	ldrd	r2, r3, [r3, #-8]
 8002dec:	4454      	add	r4, sl
 8002dee:	2900      	cmp	r1, #0
 8002df0:	d045      	beq.n	8002e7e <_dtoa_r+0x5d6>
 8002df2:	496d      	ldr	r1, [pc, #436]	@ (8002fa8 <_dtoa_r+0x700>)
 8002df4:	2000      	movs	r0, #0
 8002df6:	f7fd fdef 	bl	80009d8 <__aeabi_ddiv>
 8002dfa:	4633      	mov	r3, r6
 8002dfc:	462a      	mov	r2, r5
 8002dfe:	f7fd fb09 	bl	8000414 <__aeabi_dsub>
 8002e02:	e9cd 0110 	strd	r0, r1, [sp, #64]	@ 0x40
 8002e06:	4656      	mov	r6, sl
 8002e08:	e9dd 0102 	ldrd	r0, r1, [sp, #8]
 8002e0c:	f7fd ff6a 	bl	8000ce4 <__aeabi_d2iz>
 8002e10:	4605      	mov	r5, r0
 8002e12:	f7fd fc4d 	bl	80006b0 <__aeabi_i2d>
 8002e16:	4602      	mov	r2, r0
 8002e18:	460b      	mov	r3, r1
 8002e1a:	e9dd 0102 	ldrd	r0, r1, [sp, #8]
 8002e1e:	f7fd faf9 	bl	8000414 <__aeabi_dsub>
 8002e22:	3530      	adds	r5, #48	@ 0x30
 8002e24:	4602      	mov	r2, r0
 8002e26:	460b      	mov	r3, r1
 8002e28:	e9cd 2302 	strd	r2, r3, [sp, #8]
 8002e2c:	f806 5b01 	strb.w	r5, [r6], #1
 8002e30:	e9dd 2310 	ldrd	r2, r3, [sp, #64]	@ 0x40
 8002e34:	f7fd ff18 	bl	8000c68 <__aeabi_dcmplt>
 8002e38:	2800      	cmp	r0, #0
 8002e3a:	d163      	bne.n	8002f04 <_dtoa_r+0x65c>
 8002e3c:	e9dd 2302 	ldrd	r2, r3, [sp, #8]
 8002e40:	495a      	ldr	r1, [pc, #360]	@ (8002fac <_dtoa_r+0x704>)
 8002e42:	2000      	movs	r0, #0
 8002e44:	f7fd fae6 	bl	8000414 <__aeabi_dsub>
 8002e48:	e9dd 2310 	ldrd	r2, r3, [sp, #64]	@ 0x40
 8002e4c:	f7fd ff0c 	bl	8000c68 <__aeabi_dcmplt>
 8002e50:	2800      	cmp	r0, #0
 8002e52:	f040 8087 	bne.w	8002f64 <_dtoa_r+0x6bc>
 8002e56:	42a6      	cmp	r6, r4
 8002e58:	f43f af43 	beq.w	8002ce2 <_dtoa_r+0x43a>
 8002e5c:	e9dd 0110 	ldrd	r0, r1, [sp, #64]	@ 0x40
 8002e60:	4b53      	ldr	r3, [pc, #332]	@ (8002fb0 <_dtoa_r+0x708>)
 8002e62:	2200      	movs	r2, #0
 8002e64:	f7fd fc8e 	bl	8000784 <__aeabi_dmul>
 8002e68:	4b51      	ldr	r3, [pc, #324]	@ (8002fb0 <_dtoa_r+0x708>)
 8002e6a:	e9cd 0110 	strd	r0, r1, [sp, #64]	@ 0x40
 8002e6e:	2200      	movs	r2, #0
 8002e70:	e9dd 0102 	ldrd	r0, r1, [sp, #8]
 8002e74:	f7fd fc86 	bl	8000784 <__aeabi_dmul>
 8002e78:	e9cd 0102 	strd	r0, r1, [sp, #8]
 8002e7c:	e7c4      	b.n	8002e08 <_dtoa_r+0x560>
 8002e7e:	4631      	mov	r1, r6
 8002e80:	4628      	mov	r0, r5
 8002e82:	f7fd fc7f 	bl	8000784 <__aeabi_dmul>
 8002e86:	e9cd 0110 	strd	r0, r1, [sp, #64]	@ 0x40
 8002e8a:	9413      	str	r4, [sp, #76]	@ 0x4c
 8002e8c:	4656      	mov	r6, sl
 8002e8e:	e9dd 0102 	ldrd	r0, r1, [sp, #8]
 8002e92:	f7fd ff27 	bl	8000ce4 <__aeabi_d2iz>
 8002e96:	4605      	mov	r5, r0
 8002e98:	f7fd fc0a 	bl	80006b0 <__aeabi_i2d>
 8002e9c:	4602      	mov	r2, r0
 8002e9e:	460b      	mov	r3, r1
 8002ea0:	e9dd 0102 	ldrd	r0, r1, [sp, #8]
 8002ea4:	f7fd fab6 	bl	8000414 <__aeabi_dsub>
 8002ea8:	3530      	adds	r5, #48	@ 0x30
 8002eaa:	f806 5b01 	strb.w	r5, [r6], #1
 8002eae:	4602      	mov	r2, r0
 8002eb0:	460b      	mov	r3, r1
 8002eb2:	42a6      	cmp	r6, r4
 8002eb4:	e9cd 2302 	strd	r2, r3, [sp, #8]
 8002eb8:	f04f 0200 	mov.w	r2, #0
 8002ebc:	d124      	bne.n	8002f08 <_dtoa_r+0x660>
 8002ebe:	4b3a      	ldr	r3, [pc, #232]	@ (8002fa8 <_dtoa_r+0x700>)
 8002ec0:	e9dd 0110 	ldrd	r0, r1, [sp, #64]	@ 0x40
 8002ec4:	f7fd faa8 	bl	8000418 <__adddf3>
 8002ec8:	4602      	mov	r2, r0
 8002eca:	460b      	mov	r3, r1
 8002ecc:	e9dd 0102 	ldrd	r0, r1, [sp, #8]
 8002ed0:	f7fd fee8 	bl	8000ca4 <__aeabi_dcmpgt>
 8002ed4:	2800      	cmp	r0, #0
 8002ed6:	d145      	bne.n	8002f64 <_dtoa_r+0x6bc>
 8002ed8:	e9dd 2310 	ldrd	r2, r3, [sp, #64]	@ 0x40
 8002edc:	4932      	ldr	r1, [pc, #200]	@ (8002fa8 <_dtoa_r+0x700>)
 8002ede:	2000      	movs	r0, #0
 8002ee0:	f7fd fa98 	bl	8000414 <__aeabi_dsub>
 8002ee4:	4602      	mov	r2, r0
 8002ee6:	460b      	mov	r3, r1
 8002ee8:	e9dd 0102 	ldrd	r0, r1, [sp, #8]
 8002eec:	f7fd febc 	bl	8000c68 <__aeabi_dcmplt>
 8002ef0:	2800      	cmp	r0, #0
 8002ef2:	f43f aef6 	beq.w	8002ce2 <_dtoa_r+0x43a>
 8002ef6:	9e13      	ldr	r6, [sp, #76]	@ 0x4c
 8002ef8:	1e73      	subs	r3, r6, #1
 8002efa:	9313      	str	r3, [sp, #76]	@ 0x4c
 8002efc:	f816 3c01 	ldrb.w	r3, [r6, #-1]
 8002f00:	2b30      	cmp	r3, #48	@ 0x30
 8002f02:	d0f8      	beq.n	8002ef6 <_dtoa_r+0x64e>
 8002f04:	9f04      	ldr	r7, [sp, #16]
 8002f06:	e73f      	b.n	8002d88 <_dtoa_r+0x4e0>
 8002f08:	4b29      	ldr	r3, [pc, #164]	@ (8002fb0 <_dtoa_r+0x708>)
 8002f0a:	f7fd fc3b 	bl	8000784 <__aeabi_dmul>
 8002f0e:	e9cd 0102 	strd	r0, r1, [sp, #8]
 8002f12:	e7bc      	b.n	8002e8e <_dtoa_r+0x5e6>
 8002f14:	d10c      	bne.n	8002f30 <_dtoa_r+0x688>
 8002f16:	4b27      	ldr	r3, [pc, #156]	@ (8002fb4 <_dtoa_r+0x70c>)
 8002f18:	2200      	movs	r2, #0
 8002f1a:	e9dd 0104 	ldrd	r0, r1, [sp, #16]
 8002f1e:	f7fd fc31 	bl	8000784 <__aeabi_dmul>
 8002f22:	e9dd 2302 	ldrd	r2, r3, [sp, #8]
 8002f26:	f7fd feb3 	bl	8000c90 <__aeabi_dcmpge>
 8002f2a:	2800      	cmp	r0, #0
 8002f2c:	f000 815b 	beq.w	80031e6 <_dtoa_r+0x93e>
 8002f30:	2400      	movs	r4, #0
 8002f32:	4625      	mov	r5, r4
 8002f34:	9b21      	ldr	r3, [sp, #132]	@ 0x84
 8002f36:	43db      	mvns	r3, r3
 8002f38:	9304      	str	r3, [sp, #16]
 8002f3a:	4656      	mov	r6, sl
 8002f3c:	2700      	movs	r7, #0
 8002f3e:	4621      	mov	r1, r4
 8002f40:	4658      	mov	r0, fp
 8002f42:	f000 fd03 	bl	800394c <_Bfree>
 8002f46:	2d00      	cmp	r5, #0
 8002f48:	d0dc      	beq.n	8002f04 <_dtoa_r+0x65c>
 8002f4a:	b12f      	cbz	r7, 8002f58 <_dtoa_r+0x6b0>
 8002f4c:	42af      	cmp	r7, r5
 8002f4e:	d003      	beq.n	8002f58 <_dtoa_r+0x6b0>
 8002f50:	4639      	mov	r1, r7
 8002f52:	4658      	mov	r0, fp
 8002f54:	f000 fcfa 	bl	800394c <_Bfree>
 8002f58:	4629      	mov	r1, r5
 8002f5a:	4658      	mov	r0, fp
 8002f5c:	f000 fcf6 	bl	800394c <_Bfree>
 8002f60:	e7d0      	b.n	8002f04 <_dtoa_r+0x65c>
 8002f62:	9704      	str	r7, [sp, #16]
 8002f64:	4633      	mov	r3, r6
 8002f66:	461e      	mov	r6, r3
 8002f68:	f813 2d01 	ldrb.w	r2, [r3, #-1]!
 8002f6c:	2a39      	cmp	r2, #57	@ 0x39
 8002f6e:	d107      	bne.n	8002f80 <_dtoa_r+0x6d8>
 8002f70:	459a      	cmp	sl, r3
 8002f72:	d1f8      	bne.n	8002f66 <_dtoa_r+0x6be>
 8002f74:	9a04      	ldr	r2, [sp, #16]
 8002f76:	3201      	adds	r2, #1
 8002f78:	9204      	str	r2, [sp, #16]
 8002f7a:	2230      	movs	r2, #48	@ 0x30
 8002f7c:	f88a 2000 	strb.w	r2, [sl]
 8002f80:	781a      	ldrb	r2, [r3, #0]
 8002f82:	3201      	adds	r2, #1
 8002f84:	701a      	strb	r2, [r3, #0]
 8002f86:	e7bd      	b.n	8002f04 <_dtoa_r+0x65c>
 8002f88:	4b09      	ldr	r3, [pc, #36]	@ (8002fb0 <_dtoa_r+0x708>)
 8002f8a:	2200      	movs	r2, #0
 8002f8c:	f7fd fbfa 	bl	8000784 <__aeabi_dmul>
 8002f90:	2200      	movs	r2, #0
 8002f92:	2300      	movs	r3, #0
 8002f94:	4604      	mov	r4, r0
 8002f96:	460d      	mov	r5, r1
 8002f98:	f7fd fe5c 	bl	8000c54 <__aeabi_dcmpeq>
 8002f9c:	2800      	cmp	r0, #0
 8002f9e:	f43f aebc 	beq.w	8002d1a <_dtoa_r+0x472>
 8002fa2:	e6f1      	b.n	8002d88 <_dtoa_r+0x4e0>
 8002fa4:	08004a98 	.word	0x08004a98
 8002fa8:	3fe00000 	.word	0x3fe00000
 8002fac:	3ff00000 	.word	0x3ff00000
 8002fb0:	40240000 	.word	0x40240000
 8002fb4:	40140000 	.word	0x40140000
 8002fb8:	9a0b      	ldr	r2, [sp, #44]	@ 0x2c
 8002fba:	2a00      	cmp	r2, #0
 8002fbc:	f000 80db 	beq.w	8003176 <_dtoa_r+0x8ce>
 8002fc0:	9a20      	ldr	r2, [sp, #128]	@ 0x80
 8002fc2:	2a01      	cmp	r2, #1
 8002fc4:	f300 80bf 	bgt.w	8003146 <_dtoa_r+0x89e>
 8002fc8:	9a12      	ldr	r2, [sp, #72]	@ 0x48
 8002fca:	2a00      	cmp	r2, #0
 8002fcc:	f000 80b7 	beq.w	800313e <_dtoa_r+0x896>
 8002fd0:	f203 4333 	addw	r3, r3, #1075	@ 0x433
 8002fd4:	9c0a      	ldr	r4, [sp, #40]	@ 0x28
 8002fd6:	4646      	mov	r6, r8
 8002fd8:	9a09      	ldr	r2, [sp, #36]	@ 0x24
 8002fda:	2101      	movs	r1, #1
 8002fdc:	441a      	add	r2, r3
 8002fde:	4658      	mov	r0, fp
 8002fe0:	4498      	add	r8, r3
 8002fe2:	9209      	str	r2, [sp, #36]	@ 0x24
 8002fe4:	f000 fd66 	bl	8003ab4 <__i2b>
 8002fe8:	4605      	mov	r5, r0
 8002fea:	b15e      	cbz	r6, 8003004 <_dtoa_r+0x75c>
 8002fec:	9b09      	ldr	r3, [sp, #36]	@ 0x24
 8002fee:	2b00      	cmp	r3, #0
 8002ff0:	dd08      	ble.n	8003004 <_dtoa_r+0x75c>
 8002ff2:	42b3      	cmp	r3, r6
 8002ff4:	9a09      	ldr	r2, [sp, #36]	@ 0x24
 8002ff6:	bfa8      	it	ge
 8002ff8:	4633      	movge	r3, r6
 8002ffa:	eba8 0803 	sub.w	r8, r8, r3
 8002ffe:	1af6      	subs	r6, r6, r3
 8003000:	1ad3      	subs	r3, r2, r3
 8003002:	9309      	str	r3, [sp, #36]	@ 0x24
 8003004:	9b0a      	ldr	r3, [sp, #40]	@ 0x28
 8003006:	b1f3      	cbz	r3, 8003046 <_dtoa_r+0x79e>
 8003008:	9b0b      	ldr	r3, [sp, #44]	@ 0x2c
 800300a:	2b00      	cmp	r3, #0
 800300c:	f000 80b7 	beq.w	800317e <_dtoa_r+0x8d6>
 8003010:	b18c      	cbz	r4, 8003036 <_dtoa_r+0x78e>
 8003012:	4629      	mov	r1, r5
 8003014:	4622      	mov	r2, r4
 8003016:	4658      	mov	r0, fp
 8003018:	f000 fe0c 	bl	8003c34 <__pow5mult>
 800301c:	464a      	mov	r2, r9
 800301e:	4601      	mov	r1, r0
 8003020:	4605      	mov	r5, r0
 8003022:	4658      	mov	r0, fp
 8003024:	f000 fd5c 	bl	8003ae0 <__multiply>
 8003028:	4649      	mov	r1, r9
 800302a:	9004      	str	r0, [sp, #16]
 800302c:	4658      	mov	r0, fp
 800302e:	f000 fc8d 	bl	800394c <_Bfree>
 8003032:	9b04      	ldr	r3, [sp, #16]
 8003034:	4699      	mov	r9, r3
 8003036:	9b0a      	ldr	r3, [sp, #40]	@ 0x28
 8003038:	1b1a      	subs	r2, r3, r4
 800303a:	d004      	beq.n	8003046 <_dtoa_r+0x79e>
 800303c:	4649      	mov	r1, r9
 800303e:	4658      	mov	r0, fp
 8003040:	f000 fdf8 	bl	8003c34 <__pow5mult>
 8003044:	4681      	mov	r9, r0
 8003046:	2101      	movs	r1, #1
 8003048:	4658      	mov	r0, fp
 800304a:	f000 fd33 	bl	8003ab4 <__i2b>
 800304e:	9b0e      	ldr	r3, [sp, #56]	@ 0x38
 8003050:	4604      	mov	r4, r0
 8003052:	2b00      	cmp	r3, #0
 8003054:	f000 81c9 	beq.w	80033ea <_dtoa_r+0xb42>
 8003058:	461a      	mov	r2, r3
 800305a:	4601      	mov	r1, r0
 800305c:	4658      	mov	r0, fp
 800305e:	f000 fde9 	bl	8003c34 <__pow5mult>
 8003062:	9b20      	ldr	r3, [sp, #128]	@ 0x80
 8003064:	2b01      	cmp	r3, #1
 8003066:	4604      	mov	r4, r0
 8003068:	f300 808f 	bgt.w	800318a <_dtoa_r+0x8e2>
 800306c:	9b02      	ldr	r3, [sp, #8]
 800306e:	2b00      	cmp	r3, #0
 8003070:	f040 8087 	bne.w	8003182 <_dtoa_r+0x8da>
 8003074:	9b03      	ldr	r3, [sp, #12]
 8003076:	f3c3 0313 	ubfx	r3, r3, #0, #20
 800307a:	2b00      	cmp	r3, #0
 800307c:	f040 8083 	bne.w	8003186 <_dtoa_r+0x8de>
 8003080:	9b03      	ldr	r3, [sp, #12]
 8003082:	f023 4300 	bic.w	r3, r3, #2147483648	@ 0x80000000
 8003086:	0d1b      	lsrs	r3, r3, #20
 8003088:	051b      	lsls	r3, r3, #20
 800308a:	b12b      	cbz	r3, 8003098 <_dtoa_r+0x7f0>
 800308c:	9b09      	ldr	r3, [sp, #36]	@ 0x24
 800308e:	3301      	adds	r3, #1
 8003090:	9309      	str	r3, [sp, #36]	@ 0x24
 8003092:	f108 0801 	add.w	r8, r8, #1
 8003096:	2301      	movs	r3, #1
 8003098:	930a      	str	r3, [sp, #40]	@ 0x28
 800309a:	9b0e      	ldr	r3, [sp, #56]	@ 0x38
 800309c:	2b00      	cmp	r3, #0
 800309e:	f000 81aa 	beq.w	80033f6 <_dtoa_r+0xb4e>
 80030a2:	6923      	ldr	r3, [r4, #16]
 80030a4:	eb04 0383 	add.w	r3, r4, r3, lsl #2
 80030a8:	6918      	ldr	r0, [r3, #16]
 80030aa:	f000 fcb7 	bl	8003a1c <__hi0bits>
 80030ae:	f1c0 0020 	rsb	r0, r0, #32
 80030b2:	9b09      	ldr	r3, [sp, #36]	@ 0x24
 80030b4:	4418      	add	r0, r3
 80030b6:	f010 001f 	ands.w	r0, r0, #31
 80030ba:	d071      	beq.n	80031a0 <_dtoa_r+0x8f8>
 80030bc:	f1c0 0320 	rsb	r3, r0, #32
 80030c0:	2b04      	cmp	r3, #4
 80030c2:	dd65      	ble.n	8003190 <_dtoa_r+0x8e8>
 80030c4:	9b09      	ldr	r3, [sp, #36]	@ 0x24
 80030c6:	f1c0 001c 	rsb	r0, r0, #28
 80030ca:	4403      	add	r3, r0
 80030cc:	4480      	add	r8, r0
 80030ce:	4406      	add	r6, r0
 80030d0:	9309      	str	r3, [sp, #36]	@ 0x24
 80030d2:	f1b8 0f00 	cmp.w	r8, #0
 80030d6:	dd05      	ble.n	80030e4 <_dtoa_r+0x83c>
 80030d8:	4649      	mov	r1, r9
 80030da:	4642      	mov	r2, r8
 80030dc:	4658      	mov	r0, fp
 80030de:	f000 fe03 	bl	8003ce8 <__lshift>
 80030e2:	4681      	mov	r9, r0
 80030e4:	9b09      	ldr	r3, [sp, #36]	@ 0x24
 80030e6:	2b00      	cmp	r3, #0
 80030e8:	dd05      	ble.n	80030f6 <_dtoa_r+0x84e>
 80030ea:	4621      	mov	r1, r4
 80030ec:	461a      	mov	r2, r3
 80030ee:	4658      	mov	r0, fp
 80030f0:	f000 fdfa 	bl	8003ce8 <__lshift>
 80030f4:	4604      	mov	r4, r0
 80030f6:	9b0f      	ldr	r3, [sp, #60]	@ 0x3c
 80030f8:	2b00      	cmp	r3, #0
 80030fa:	d053      	beq.n	80031a4 <_dtoa_r+0x8fc>
 80030fc:	4621      	mov	r1, r4
 80030fe:	4648      	mov	r0, r9
 8003100:	f000 fe5e 	bl	8003dc0 <__mcmp>
 8003104:	2800      	cmp	r0, #0
 8003106:	da4d      	bge.n	80031a4 <_dtoa_r+0x8fc>
 8003108:	1e7b      	subs	r3, r7, #1
 800310a:	9304      	str	r3, [sp, #16]
 800310c:	4649      	mov	r1, r9
 800310e:	2300      	movs	r3, #0
 8003110:	220a      	movs	r2, #10
 8003112:	4658      	mov	r0, fp
 8003114:	f000 fc3c 	bl	8003990 <__multadd>
 8003118:	9b0b      	ldr	r3, [sp, #44]	@ 0x2c
 800311a:	4681      	mov	r9, r0
 800311c:	2b00      	cmp	r3, #0
 800311e:	f000 816c 	beq.w	80033fa <_dtoa_r+0xb52>
 8003122:	2300      	movs	r3, #0
 8003124:	4629      	mov	r1, r5
 8003126:	220a      	movs	r2, #10
 8003128:	4658      	mov	r0, fp
 800312a:	f000 fc31 	bl	8003990 <__multadd>
 800312e:	9b08      	ldr	r3, [sp, #32]
 8003130:	2b00      	cmp	r3, #0
 8003132:	4605      	mov	r5, r0
 8003134:	dc61      	bgt.n	80031fa <_dtoa_r+0x952>
 8003136:	9b20      	ldr	r3, [sp, #128]	@ 0x80
 8003138:	2b02      	cmp	r3, #2
 800313a:	dc3b      	bgt.n	80031b4 <_dtoa_r+0x90c>
 800313c:	e05d      	b.n	80031fa <_dtoa_r+0x952>
 800313e:	9b14      	ldr	r3, [sp, #80]	@ 0x50
 8003140:	f1c3 0336 	rsb	r3, r3, #54	@ 0x36
 8003144:	e746      	b.n	8002fd4 <_dtoa_r+0x72c>
 8003146:	9b07      	ldr	r3, [sp, #28]
 8003148:	1e5c      	subs	r4, r3, #1
 800314a:	9b0a      	ldr	r3, [sp, #40]	@ 0x28
 800314c:	42a3      	cmp	r3, r4
 800314e:	bfbf      	itttt	lt
 8003150:	9b0a      	ldrlt	r3, [sp, #40]	@ 0x28
 8003152:	9a0e      	ldrlt	r2, [sp, #56]	@ 0x38
 8003154:	940a      	strlt	r4, [sp, #40]	@ 0x28
 8003156:	1ae3      	sublt	r3, r4, r3
 8003158:	bfb4      	ite	lt
 800315a:	18d2      	addlt	r2, r2, r3
 800315c:	1b1c      	subge	r4, r3, r4
 800315e:	9b07      	ldr	r3, [sp, #28]
 8003160:	bfbc      	itt	lt
 8003162:	920e      	strlt	r2, [sp, #56]	@ 0x38
 8003164:	2400      	movlt	r4, #0
 8003166:	2b00      	cmp	r3, #0
 8003168:	bfb5      	itete	lt
 800316a:	eba8 0603 	sublt.w	r6, r8, r3
 800316e:	9b07      	ldrge	r3, [sp, #28]
 8003170:	2300      	movlt	r3, #0
 8003172:	4646      	movge	r6, r8
 8003174:	e730      	b.n	8002fd8 <_dtoa_r+0x730>
 8003176:	9c0a      	ldr	r4, [sp, #40]	@ 0x28
 8003178:	9d0b      	ldr	r5, [sp, #44]	@ 0x2c
 800317a:	4646      	mov	r6, r8
 800317c:	e735      	b.n	8002fea <_dtoa_r+0x742>
 800317e:	9a0a      	ldr	r2, [sp, #40]	@ 0x28
 8003180:	e75c      	b.n	800303c <_dtoa_r+0x794>
 8003182:	2300      	movs	r3, #0
 8003184:	e788      	b.n	8003098 <_dtoa_r+0x7f0>
 8003186:	9b02      	ldr	r3, [sp, #8]
 8003188:	e786      	b.n	8003098 <_dtoa_r+0x7f0>
 800318a:	2300      	movs	r3, #0
 800318c:	930a      	str	r3, [sp, #40]	@ 0x28
 800318e:	e788      	b.n	80030a2 <_dtoa_r+0x7fa>
 8003190:	d09f      	beq.n	80030d2 <_dtoa_r+0x82a>
 8003192:	9a09      	ldr	r2, [sp, #36]	@ 0x24
 8003194:	331c      	adds	r3, #28
 8003196:	441a      	add	r2, r3
 8003198:	4498      	add	r8, r3
 800319a:	441e      	add	r6, r3
 800319c:	9209      	str	r2, [sp, #36]	@ 0x24
 800319e:	e798      	b.n	80030d2 <_dtoa_r+0x82a>
 80031a0:	4603      	mov	r3, r0
 80031a2:	e7f6      	b.n	8003192 <_dtoa_r+0x8ea>
 80031a4:	9b07      	ldr	r3, [sp, #28]
 80031a6:	9704      	str	r7, [sp, #16]
 80031a8:	2b00      	cmp	r3, #0
 80031aa:	dc20      	bgt.n	80031ee <_dtoa_r+0x946>
 80031ac:	9308      	str	r3, [sp, #32]
 80031ae:	9b20      	ldr	r3, [sp, #128]	@ 0x80
 80031b0:	2b02      	cmp	r3, #2
 80031b2:	dd1e      	ble.n	80031f2 <_dtoa_r+0x94a>
 80031b4:	9b08      	ldr	r3, [sp, #32]
 80031b6:	2b00      	cmp	r3, #0
 80031b8:	f47f aebc 	bne.w	8002f34 <_dtoa_r+0x68c>
 80031bc:	4621      	mov	r1, r4
 80031be:	2205      	movs	r2, #5
 80031c0:	4658      	mov	r0, fp
 80031c2:	f000 fbe5 	bl	8003990 <__multadd>
 80031c6:	4601      	mov	r1, r0
 80031c8:	4604      	mov	r4, r0
 80031ca:	4648      	mov	r0, r9
 80031cc:	f000 fdf8 	bl	8003dc0 <__mcmp>
 80031d0:	2800      	cmp	r0, #0
 80031d2:	f77f aeaf 	ble.w	8002f34 <_dtoa_r+0x68c>
 80031d6:	4656      	mov	r6, sl
 80031d8:	2331      	movs	r3, #49	@ 0x31
 80031da:	f806 3b01 	strb.w	r3, [r6], #1
 80031de:	9b04      	ldr	r3, [sp, #16]
 80031e0:	3301      	adds	r3, #1
 80031e2:	9304      	str	r3, [sp, #16]
 80031e4:	e6aa      	b.n	8002f3c <_dtoa_r+0x694>
 80031e6:	9c07      	ldr	r4, [sp, #28]
 80031e8:	9704      	str	r7, [sp, #16]
 80031ea:	4625      	mov	r5, r4
 80031ec:	e7f3      	b.n	80031d6 <_dtoa_r+0x92e>
 80031ee:	9b07      	ldr	r3, [sp, #28]
 80031f0:	9308      	str	r3, [sp, #32]
 80031f2:	9b0b      	ldr	r3, [sp, #44]	@ 0x2c
 80031f4:	2b00      	cmp	r3, #0
 80031f6:	f000 8104 	beq.w	8003402 <_dtoa_r+0xb5a>
 80031fa:	2e00      	cmp	r6, #0
 80031fc:	dd05      	ble.n	800320a <_dtoa_r+0x962>
 80031fe:	4629      	mov	r1, r5
 8003200:	4632      	mov	r2, r6
 8003202:	4658      	mov	r0, fp
 8003204:	f000 fd70 	bl	8003ce8 <__lshift>
 8003208:	4605      	mov	r5, r0
 800320a:	9b0a      	ldr	r3, [sp, #40]	@ 0x28
 800320c:	2b00      	cmp	r3, #0
 800320e:	d05a      	beq.n	80032c6 <_dtoa_r+0xa1e>
 8003210:	6869      	ldr	r1, [r5, #4]
 8003212:	4658      	mov	r0, fp
 8003214:	f000 fb5a 	bl	80038cc <_Balloc>
 8003218:	4606      	mov	r6, r0
 800321a:	b928      	cbnz	r0, 8003228 <_dtoa_r+0x980>
 800321c:	4b84      	ldr	r3, [pc, #528]	@ (8003430 <_dtoa_r+0xb88>)
 800321e:	4602      	mov	r2, r0
 8003220:	f240 21ef 	movw	r1, #751	@ 0x2ef
 8003224:	f7ff bb54 	b.w	80028d0 <_dtoa_r+0x28>
 8003228:	692a      	ldr	r2, [r5, #16]
 800322a:	3202      	adds	r2, #2
 800322c:	0092      	lsls	r2, r2, #2
 800322e:	f105 010c 	add.w	r1, r5, #12
 8003232:	300c      	adds	r0, #12
 8003234:	f000 ff9c 	bl	8004170 <memcpy>
 8003238:	2201      	movs	r2, #1
 800323a:	4631      	mov	r1, r6
 800323c:	4658      	mov	r0, fp
 800323e:	f000 fd53 	bl	8003ce8 <__lshift>
 8003242:	f10a 0301 	add.w	r3, sl, #1
 8003246:	9307      	str	r3, [sp, #28]
 8003248:	9b08      	ldr	r3, [sp, #32]
 800324a:	4453      	add	r3, sl
 800324c:	930b      	str	r3, [sp, #44]	@ 0x2c
 800324e:	9b02      	ldr	r3, [sp, #8]
 8003250:	f003 0301 	and.w	r3, r3, #1
 8003254:	462f      	mov	r7, r5
 8003256:	930a      	str	r3, [sp, #40]	@ 0x28
 8003258:	4605      	mov	r5, r0
 800325a:	9b07      	ldr	r3, [sp, #28]
 800325c:	4621      	mov	r1, r4
 800325e:	3b01      	subs	r3, #1
 8003260:	4648      	mov	r0, r9
 8003262:	9302      	str	r3, [sp, #8]
 8003264:	f7ff fa97 	bl	8002796 <quorem>
 8003268:	4639      	mov	r1, r7
 800326a:	9008      	str	r0, [sp, #32]
 800326c:	f100 0830 	add.w	r8, r0, #48	@ 0x30
 8003270:	4648      	mov	r0, r9
 8003272:	f000 fda5 	bl	8003dc0 <__mcmp>
 8003276:	462a      	mov	r2, r5
 8003278:	9009      	str	r0, [sp, #36]	@ 0x24
 800327a:	4621      	mov	r1, r4
 800327c:	4658      	mov	r0, fp
 800327e:	f000 fdbb 	bl	8003df8 <__mdiff>
 8003282:	68c2      	ldr	r2, [r0, #12]
 8003284:	4606      	mov	r6, r0
 8003286:	bb02      	cbnz	r2, 80032ca <_dtoa_r+0xa22>
 8003288:	4601      	mov	r1, r0
 800328a:	4648      	mov	r0, r9
 800328c:	f000 fd98 	bl	8003dc0 <__mcmp>
 8003290:	4602      	mov	r2, r0
 8003292:	4631      	mov	r1, r6
 8003294:	4658      	mov	r0, fp
 8003296:	920c      	str	r2, [sp, #48]	@ 0x30
 8003298:	f000 fb58 	bl	800394c <_Bfree>
 800329c:	9b20      	ldr	r3, [sp, #128]	@ 0x80
 800329e:	9a0c      	ldr	r2, [sp, #48]	@ 0x30
 80032a0:	9e07      	ldr	r6, [sp, #28]
 80032a2:	ea43 0102 	orr.w	r1, r3, r2
 80032a6:	9b0a      	ldr	r3, [sp, #40]	@ 0x28
 80032a8:	4319      	orrs	r1, r3
 80032aa:	d110      	bne.n	80032ce <_dtoa_r+0xa26>
 80032ac:	f1b8 0f39 	cmp.w	r8, #57	@ 0x39
 80032b0:	d029      	beq.n	8003306 <_dtoa_r+0xa5e>
 80032b2:	9b09      	ldr	r3, [sp, #36]	@ 0x24
 80032b4:	2b00      	cmp	r3, #0
 80032b6:	dd02      	ble.n	80032be <_dtoa_r+0xa16>
 80032b8:	9b08      	ldr	r3, [sp, #32]
 80032ba:	f103 0831 	add.w	r8, r3, #49	@ 0x31
 80032be:	9b02      	ldr	r3, [sp, #8]
 80032c0:	f883 8000 	strb.w	r8, [r3]
 80032c4:	e63b      	b.n	8002f3e <_dtoa_r+0x696>
 80032c6:	4628      	mov	r0, r5
 80032c8:	e7bb      	b.n	8003242 <_dtoa_r+0x99a>
 80032ca:	2201      	movs	r2, #1
 80032cc:	e7e1      	b.n	8003292 <_dtoa_r+0x9ea>
 80032ce:	9b09      	ldr	r3, [sp, #36]	@ 0x24
 80032d0:	2b00      	cmp	r3, #0
 80032d2:	db04      	blt.n	80032de <_dtoa_r+0xa36>
 80032d4:	9920      	ldr	r1, [sp, #128]	@ 0x80
 80032d6:	430b      	orrs	r3, r1
 80032d8:	990a      	ldr	r1, [sp, #40]	@ 0x28
 80032da:	430b      	orrs	r3, r1
 80032dc:	d120      	bne.n	8003320 <_dtoa_r+0xa78>
 80032de:	2a00      	cmp	r2, #0
 80032e0:	dded      	ble.n	80032be <_dtoa_r+0xa16>
 80032e2:	4649      	mov	r1, r9
 80032e4:	2201      	movs	r2, #1
 80032e6:	4658      	mov	r0, fp
 80032e8:	f000 fcfe 	bl	8003ce8 <__lshift>
 80032ec:	4621      	mov	r1, r4
 80032ee:	4681      	mov	r9, r0
 80032f0:	f000 fd66 	bl	8003dc0 <__mcmp>
 80032f4:	2800      	cmp	r0, #0
 80032f6:	dc03      	bgt.n	8003300 <_dtoa_r+0xa58>
 80032f8:	d1e1      	bne.n	80032be <_dtoa_r+0xa16>
 80032fa:	f018 0f01 	tst.w	r8, #1
 80032fe:	d0de      	beq.n	80032be <_dtoa_r+0xa16>
 8003300:	f1b8 0f39 	cmp.w	r8, #57	@ 0x39
 8003304:	d1d8      	bne.n	80032b8 <_dtoa_r+0xa10>
 8003306:	9a02      	ldr	r2, [sp, #8]
 8003308:	2339      	movs	r3, #57	@ 0x39
 800330a:	7013      	strb	r3, [r2, #0]
 800330c:	4633      	mov	r3, r6
 800330e:	461e      	mov	r6, r3
 8003310:	3b01      	subs	r3, #1
 8003312:	f816 2c01 	ldrb.w	r2, [r6, #-1]
 8003316:	2a39      	cmp	r2, #57	@ 0x39
 8003318:	d052      	beq.n	80033c0 <_dtoa_r+0xb18>
 800331a:	3201      	adds	r2, #1
 800331c:	701a      	strb	r2, [r3, #0]
 800331e:	e60e      	b.n	8002f3e <_dtoa_r+0x696>
 8003320:	2a00      	cmp	r2, #0
 8003322:	dd07      	ble.n	8003334 <_dtoa_r+0xa8c>
 8003324:	f1b8 0f39 	cmp.w	r8, #57	@ 0x39
 8003328:	d0ed      	beq.n	8003306 <_dtoa_r+0xa5e>
 800332a:	9a02      	ldr	r2, [sp, #8]
 800332c:	f108 0301 	add.w	r3, r8, #1
 8003330:	7013      	strb	r3, [r2, #0]
 8003332:	e604      	b.n	8002f3e <_dtoa_r+0x696>
 8003334:	9b07      	ldr	r3, [sp, #28]
 8003336:	9a07      	ldr	r2, [sp, #28]
 8003338:	f803 8c01 	strb.w	r8, [r3, #-1]
 800333c:	9b0b      	ldr	r3, [sp, #44]	@ 0x2c
 800333e:	4293      	cmp	r3, r2
 8003340:	d028      	beq.n	8003394 <_dtoa_r+0xaec>
 8003342:	4649      	mov	r1, r9
 8003344:	2300      	movs	r3, #0
 8003346:	220a      	movs	r2, #10
 8003348:	4658      	mov	r0, fp
 800334a:	f000 fb21 	bl	8003990 <__multadd>
 800334e:	42af      	cmp	r7, r5
 8003350:	4681      	mov	r9, r0
 8003352:	f04f 0300 	mov.w	r3, #0
 8003356:	f04f 020a 	mov.w	r2, #10
 800335a:	4639      	mov	r1, r7
 800335c:	4658      	mov	r0, fp
 800335e:	d107      	bne.n	8003370 <_dtoa_r+0xac8>
 8003360:	f000 fb16 	bl	8003990 <__multadd>
 8003364:	4607      	mov	r7, r0
 8003366:	4605      	mov	r5, r0
 8003368:	9b07      	ldr	r3, [sp, #28]
 800336a:	3301      	adds	r3, #1
 800336c:	9307      	str	r3, [sp, #28]
 800336e:	e774      	b.n	800325a <_dtoa_r+0x9b2>
 8003370:	f000 fb0e 	bl	8003990 <__multadd>
 8003374:	4629      	mov	r1, r5
 8003376:	4607      	mov	r7, r0
 8003378:	2300      	movs	r3, #0
 800337a:	220a      	movs	r2, #10
 800337c:	4658      	mov	r0, fp
 800337e:	f000 fb07 	bl	8003990 <__multadd>
 8003382:	4605      	mov	r5, r0
 8003384:	e7f0      	b.n	8003368 <_dtoa_r+0xac0>
 8003386:	9b08      	ldr	r3, [sp, #32]
 8003388:	2b00      	cmp	r3, #0
 800338a:	bfcc      	ite	gt
 800338c:	461e      	movgt	r6, r3
 800338e:	2601      	movle	r6, #1
 8003390:	4456      	add	r6, sl
 8003392:	2700      	movs	r7, #0
 8003394:	4649      	mov	r1, r9
 8003396:	2201      	movs	r2, #1
 8003398:	4658      	mov	r0, fp
 800339a:	f000 fca5 	bl	8003ce8 <__lshift>
 800339e:	4621      	mov	r1, r4
 80033a0:	4681      	mov	r9, r0
 80033a2:	f000 fd0d 	bl	8003dc0 <__mcmp>
 80033a6:	2800      	cmp	r0, #0
 80033a8:	dcb0      	bgt.n	800330c <_dtoa_r+0xa64>
 80033aa:	d102      	bne.n	80033b2 <_dtoa_r+0xb0a>
 80033ac:	f018 0f01 	tst.w	r8, #1
 80033b0:	d1ac      	bne.n	800330c <_dtoa_r+0xa64>
 80033b2:	4633      	mov	r3, r6
 80033b4:	461e      	mov	r6, r3
 80033b6:	f813 2d01 	ldrb.w	r2, [r3, #-1]!
 80033ba:	2a30      	cmp	r2, #48	@ 0x30
 80033bc:	d0fa      	beq.n	80033b4 <_dtoa_r+0xb0c>
 80033be:	e5be      	b.n	8002f3e <_dtoa_r+0x696>
 80033c0:	459a      	cmp	sl, r3
 80033c2:	d1a4      	bne.n	800330e <_dtoa_r+0xa66>
 80033c4:	9b04      	ldr	r3, [sp, #16]
 80033c6:	3301      	adds	r3, #1
 80033c8:	9304      	str	r3, [sp, #16]
 80033ca:	2331      	movs	r3, #49	@ 0x31
 80033cc:	f88a 3000 	strb.w	r3, [sl]
 80033d0:	e5b5      	b.n	8002f3e <_dtoa_r+0x696>
 80033d2:	9b24      	ldr	r3, [sp, #144]	@ 0x90
 80033d4:	f8df a05c 	ldr.w	sl, [pc, #92]	@ 8003434 <_dtoa_r+0xb8c>
 80033d8:	b11b      	cbz	r3, 80033e2 <_dtoa_r+0xb3a>
 80033da:	f10a 0308 	add.w	r3, sl, #8
 80033de:	9a24      	ldr	r2, [sp, #144]	@ 0x90
 80033e0:	6013      	str	r3, [r2, #0]
 80033e2:	4650      	mov	r0, sl
 80033e4:	b017      	add	sp, #92	@ 0x5c
 80033e6:	e8bd 8ff0 	ldmia.w	sp!, {r4, r5, r6, r7, r8, r9, sl, fp, pc}
 80033ea:	9b20      	ldr	r3, [sp, #128]	@ 0x80
 80033ec:	2b01      	cmp	r3, #1
 80033ee:	f77f ae3d 	ble.w	800306c <_dtoa_r+0x7c4>
 80033f2:	9b0e      	ldr	r3, [sp, #56]	@ 0x38
 80033f4:	930a      	str	r3, [sp, #40]	@ 0x28
 80033f6:	2001      	movs	r0, #1
 80033f8:	e65b      	b.n	80030b2 <_dtoa_r+0x80a>
 80033fa:	9b08      	ldr	r3, [sp, #32]
 80033fc:	2b00      	cmp	r3, #0
 80033fe:	f77f aed6 	ble.w	80031ae <_dtoa_r+0x906>
 8003402:	4656      	mov	r6, sl
 8003404:	4621      	mov	r1, r4
 8003406:	4648      	mov	r0, r9
 8003408:	f7ff f9c5 	bl	8002796 <quorem>
 800340c:	f100 0830 	add.w	r8, r0, #48	@ 0x30
 8003410:	f806 8b01 	strb.w	r8, [r6], #1
 8003414:	9b08      	ldr	r3, [sp, #32]
 8003416:	eba6 020a 	sub.w	r2, r6, sl
 800341a:	4293      	cmp	r3, r2
 800341c:	ddb3      	ble.n	8003386 <_dtoa_r+0xade>
 800341e:	4649      	mov	r1, r9
 8003420:	2300      	movs	r3, #0
 8003422:	220a      	movs	r2, #10
 8003424:	4658      	mov	r0, fp
 8003426:	f000 fab3 	bl	8003990 <__multadd>
 800342a:	4681      	mov	r9, r0
 800342c:	e7ea      	b.n	8003404 <_dtoa_r+0xb5c>
 800342e:	bf00      	nop
 8003430:	080049e9 	.word	0x080049e9
 8003434:	0800496d 	.word	0x0800496d

08003438 <_free_r>:
 8003438:	b538      	push	{r3, r4, r5, lr}
 800343a:	4605      	mov	r5, r0
 800343c:	2900      	cmp	r1, #0
 800343e:	d041      	beq.n	80034c4 <_free_r+0x8c>
 8003440:	f851 3c04 	ldr.w	r3, [r1, #-4]
 8003444:	1f0c      	subs	r4, r1, #4
 8003446:	2b00      	cmp	r3, #0
 8003448:	bfb8      	it	lt
 800344a:	18e4      	addlt	r4, r4, r3
 800344c:	f7ff f86c 	bl	8002528 <__malloc_lock>
 8003450:	4a1d      	ldr	r2, [pc, #116]	@ (80034c8 <_free_r+0x90>)
 8003452:	6813      	ldr	r3, [r2, #0]
 8003454:	b933      	cbnz	r3, 8003464 <_free_r+0x2c>
 8003456:	6063      	str	r3, [r4, #4]
 8003458:	6014      	str	r4, [r2, #0]
 800345a:	4628      	mov	r0, r5
 800345c:	e8bd 4038 	ldmia.w	sp!, {r3, r4, r5, lr}
 8003460:	f7ff b868 	b.w	8002534 <__malloc_unlock>
 8003464:	42a3      	cmp	r3, r4
 8003466:	d908      	bls.n	800347a <_free_r+0x42>
 8003468:	6820      	ldr	r0, [r4, #0]
 800346a:	1821      	adds	r1, r4, r0
 800346c:	428b      	cmp	r3, r1
 800346e:	bf01      	itttt	eq
 8003470:	6819      	ldreq	r1, [r3, #0]
 8003472:	685b      	ldreq	r3, [r3, #4]
 8003474:	1809      	addeq	r1, r1, r0
 8003476:	6021      	streq	r1, [r4, #0]
 8003478:	e7ed      	b.n	8003456 <_free_r+0x1e>
 800347a:	461a      	mov	r2, r3
 800347c:	685b      	ldr	r3, [r3, #4]
 800347e:	b10b      	cbz	r3, 8003484 <_free_r+0x4c>
 8003480:	42a3      	cmp	r3, r4
 8003482:	d9fa      	bls.n	800347a <_free_r+0x42>
 8003484:	6811      	ldr	r1, [r2, #0]
 8003486:	1850      	adds	r0, r2, r1
 8003488:	42a0      	cmp	r0, r4
 800348a:	d10b      	bne.n	80034a4 <_free_r+0x6c>
 800348c:	6820      	ldr	r0, [r4, #0]
 800348e:	4401      	add	r1, r0
 8003490:	1850      	adds	r0, r2, r1
 8003492:	4283      	cmp	r3, r0
 8003494:	6011      	str	r1, [r2, #0]
 8003496:	d1e0      	bne.n	800345a <_free_r+0x22>
 8003498:	6818      	ldr	r0, [r3, #0]
 800349a:	685b      	ldr	r3, [r3, #4]
 800349c:	6053      	str	r3, [r2, #4]
 800349e:	4408      	add	r0, r1
 80034a0:	6010      	str	r0, [r2, #0]
 80034a2:	e7da      	b.n	800345a <_free_r+0x22>
 80034a4:	d902      	bls.n	80034ac <_free_r+0x74>
 80034a6:	230c      	movs	r3, #12
 80034a8:	602b      	str	r3, [r5, #0]
 80034aa:	e7d6      	b.n	800345a <_free_r+0x22>
 80034ac:	6820      	ldr	r0, [r4, #0]
 80034ae:	1821      	adds	r1, r4, r0
 80034b0:	428b      	cmp	r3, r1
 80034b2:	bf04      	itt	eq
 80034b4:	6819      	ldreq	r1, [r3, #0]
 80034b6:	685b      	ldreq	r3, [r3, #4]
 80034b8:	6063      	str	r3, [r4, #4]
 80034ba:	bf04      	itt	eq
 80034bc:	1809      	addeq	r1, r1, r0
 80034be:	6021      	streq	r1, [r4, #0]
 80034c0:	6054      	str	r4, [r2, #4]
 80034c2:	e7ca      	b.n	800345a <_free_r+0x22>
 80034c4:	bd38      	pop	{r3, r4, r5, pc}
 80034c6:	bf00      	nop
 80034c8:	200004bc 	.word	0x200004bc

080034cc <__ssputs_r>:
 80034cc:	e92d 47f0 	stmdb	sp!, {r4, r5, r6, r7, r8, r9, sl, lr}
 80034d0:	688e      	ldr	r6, [r1, #8]
 80034d2:	461f      	mov	r7, r3
 80034d4:	42be      	cmp	r6, r7
 80034d6:	680b      	ldr	r3, [r1, #0]
 80034d8:	4682      	mov	sl, r0
 80034da:	460c      	mov	r4, r1
 80034dc:	4690      	mov	r8, r2
 80034de:	d82d      	bhi.n	800353c <__ssputs_r+0x70>
 80034e0:	f9b1 200c 	ldrsh.w	r2, [r1, #12]
 80034e4:	f412 6f90 	tst.w	r2, #1152	@ 0x480
 80034e8:	d026      	beq.n	8003538 <__ssputs_r+0x6c>
 80034ea:	6965      	ldr	r5, [r4, #20]
 80034ec:	6909      	ldr	r1, [r1, #16]
 80034ee:	eb05 0545 	add.w	r5, r5, r5, lsl #1
 80034f2:	eba3 0901 	sub.w	r9, r3, r1
 80034f6:	eb05 75d5 	add.w	r5, r5, r5, lsr #31
 80034fa:	1c7b      	adds	r3, r7, #1
 80034fc:	444b      	add	r3, r9
 80034fe:	106d      	asrs	r5, r5, #1
 8003500:	429d      	cmp	r5, r3
 8003502:	bf38      	it	cc
 8003504:	461d      	movcc	r5, r3
 8003506:	0553      	lsls	r3, r2, #21
 8003508:	d527      	bpl.n	800355a <__ssputs_r+0x8e>
 800350a:	4629      	mov	r1, r5
 800350c:	f7fe fdfe 	bl	800210c <_malloc_r>
 8003510:	4606      	mov	r6, r0
 8003512:	b360      	cbz	r0, 800356e <__ssputs_r+0xa2>
 8003514:	6921      	ldr	r1, [r4, #16]
 8003516:	464a      	mov	r2, r9
 8003518:	f000 fe2a 	bl	8004170 <memcpy>
 800351c:	89a3      	ldrh	r3, [r4, #12]
 800351e:	f423 6390 	bic.w	r3, r3, #1152	@ 0x480
 8003522:	f043 0380 	orr.w	r3, r3, #128	@ 0x80
 8003526:	81a3      	strh	r3, [r4, #12]
 8003528:	6126      	str	r6, [r4, #16]
 800352a:	6165      	str	r5, [r4, #20]
 800352c:	444e      	add	r6, r9
 800352e:	eba5 0509 	sub.w	r5, r5, r9
 8003532:	6026      	str	r6, [r4, #0]
 8003534:	60a5      	str	r5, [r4, #8]
 8003536:	463e      	mov	r6, r7
 8003538:	42be      	cmp	r6, r7
 800353a:	d900      	bls.n	800353e <__ssputs_r+0x72>
 800353c:	463e      	mov	r6, r7
 800353e:	6820      	ldr	r0, [r4, #0]
 8003540:	4632      	mov	r2, r6
 8003542:	4641      	mov	r1, r8
 8003544:	f000 fdb3 	bl	80040ae <memmove>
 8003548:	68a3      	ldr	r3, [r4, #8]
 800354a:	1b9b      	subs	r3, r3, r6
 800354c:	60a3      	str	r3, [r4, #8]
 800354e:	6823      	ldr	r3, [r4, #0]
 8003550:	4433      	add	r3, r6
 8003552:	6023      	str	r3, [r4, #0]
 8003554:	2000      	movs	r0, #0
 8003556:	e8bd 87f0 	ldmia.w	sp!, {r4, r5, r6, r7, r8, r9, sl, pc}
 800355a:	462a      	mov	r2, r5
 800355c:	f000 fd79 	bl	8004052 <_realloc_r>
 8003560:	4606      	mov	r6, r0
 8003562:	2800      	cmp	r0, #0
 8003564:	d1e0      	bne.n	8003528 <__ssputs_r+0x5c>
 8003566:	6921      	ldr	r1, [r4, #16]
 8003568:	4650      	mov	r0, sl
 800356a:	f7ff ff65 	bl	8003438 <_free_r>
 800356e:	230c      	movs	r3, #12
 8003570:	f8ca 3000 	str.w	r3, [sl]
 8003574:	89a3      	ldrh	r3, [r4, #12]
 8003576:	f043 0340 	orr.w	r3, r3, #64	@ 0x40
 800357a:	81a3      	strh	r3, [r4, #12]
 800357c:	f04f 30ff 	mov.w	r0, #4294967295	@ 0xffffffff
 8003580:	e7e9      	b.n	8003556 <__ssputs_r+0x8a>
	...

08003584 <_svfiprintf_r>:
 8003584:	e92d 4ff0 	stmdb	sp!, {r4, r5, r6, r7, r8, r9, sl, fp, lr}
 8003588:	4698      	mov	r8, r3
 800358a:	898b      	ldrh	r3, [r1, #12]
 800358c:	061b      	lsls	r3, r3, #24
 800358e:	b09d      	sub	sp, #116	@ 0x74
 8003590:	4607      	mov	r7, r0
 8003592:	460d      	mov	r5, r1
 8003594:	4614      	mov	r4, r2
 8003596:	d510      	bpl.n	80035ba <_svfiprintf_r+0x36>
 8003598:	690b      	ldr	r3, [r1, #16]
 800359a:	b973      	cbnz	r3, 80035ba <_svfiprintf_r+0x36>
 800359c:	2140      	movs	r1, #64	@ 0x40
 800359e:	f7fe fdb5 	bl	800210c <_malloc_r>
 80035a2:	6028      	str	r0, [r5, #0]
 80035a4:	6128      	str	r0, [r5, #16]
 80035a6:	b930      	cbnz	r0, 80035b6 <_svfiprintf_r+0x32>
 80035a8:	230c      	movs	r3, #12
 80035aa:	603b      	str	r3, [r7, #0]
 80035ac:	f04f 30ff 	mov.w	r0, #4294967295	@ 0xffffffff
 80035b0:	b01d      	add	sp, #116	@ 0x74
 80035b2:	e8bd 8ff0 	ldmia.w	sp!, {r4, r5, r6, r7, r8, r9, sl, fp, pc}
 80035b6:	2340      	movs	r3, #64	@ 0x40
 80035b8:	616b      	str	r3, [r5, #20]
 80035ba:	2300      	movs	r3, #0
 80035bc:	9309      	str	r3, [sp, #36]	@ 0x24
 80035be:	2320      	movs	r3, #32
 80035c0:	f88d 3029 	strb.w	r3, [sp, #41]	@ 0x29
 80035c4:	f8cd 800c 	str.w	r8, [sp, #12]
 80035c8:	2330      	movs	r3, #48	@ 0x30
 80035ca:	f8df 819c 	ldr.w	r8, [pc, #412]	@ 8003768 <_svfiprintf_r+0x1e4>
 80035ce:	f88d 302a 	strb.w	r3, [sp, #42]	@ 0x2a
 80035d2:	f04f 0901 	mov.w	r9, #1
 80035d6:	4623      	mov	r3, r4
 80035d8:	469a      	mov	sl, r3
 80035da:	f813 2b01 	ldrb.w	r2, [r3], #1
 80035de:	b10a      	cbz	r2, 80035e4 <_svfiprintf_r+0x60>
 80035e0:	2a25      	cmp	r2, #37	@ 0x25
 80035e2:	d1f9      	bne.n	80035d8 <_svfiprintf_r+0x54>
 80035e4:	ebba 0b04 	subs.w	fp, sl, r4
 80035e8:	d00b      	beq.n	8003602 <_svfiprintf_r+0x7e>
 80035ea:	465b      	mov	r3, fp
 80035ec:	4622      	mov	r2, r4
 80035ee:	4629      	mov	r1, r5
 80035f0:	4638      	mov	r0, r7
 80035f2:	f7ff ff6b 	bl	80034cc <__ssputs_r>
 80035f6:	3001      	adds	r0, #1
 80035f8:	f000 80a7 	beq.w	800374a <_svfiprintf_r+0x1c6>
 80035fc:	9a09      	ldr	r2, [sp, #36]	@ 0x24
 80035fe:	445a      	add	r2, fp
 8003600:	9209      	str	r2, [sp, #36]	@ 0x24
 8003602:	f89a 3000 	ldrb.w	r3, [sl]
 8003606:	2b00      	cmp	r3, #0
 8003608:	f000 809f 	beq.w	800374a <_svfiprintf_r+0x1c6>
 800360c:	2300      	movs	r3, #0
 800360e:	f04f 32ff 	mov.w	r2, #4294967295	@ 0xffffffff
 8003612:	e9cd 2305 	strd	r2, r3, [sp, #20]
 8003616:	f10a 0a01 	add.w	sl, sl, #1
 800361a:	9304      	str	r3, [sp, #16]
 800361c:	9307      	str	r3, [sp, #28]
 800361e:	f88d 3053 	strb.w	r3, [sp, #83]	@ 0x53
 8003622:	931a      	str	r3, [sp, #104]	@ 0x68
 8003624:	4654      	mov	r4, sl
 8003626:	2205      	movs	r2, #5
 8003628:	f814 1b01 	ldrb.w	r1, [r4], #1
 800362c:	484e      	ldr	r0, [pc, #312]	@ (8003768 <_svfiprintf_r+0x1e4>)
 800362e:	f7fc fdd7 	bl	80001e0 <memchr>
 8003632:	9a04      	ldr	r2, [sp, #16]
 8003634:	b9d8      	cbnz	r0, 800366e <_svfiprintf_r+0xea>
 8003636:	06d0      	lsls	r0, r2, #27
 8003638:	bf44      	itt	mi
 800363a:	2320      	movmi	r3, #32
 800363c:	f88d 3053 	strbmi.w	r3, [sp, #83]	@ 0x53
 8003640:	0711      	lsls	r1, r2, #28
 8003642:	bf44      	itt	mi
 8003644:	232b      	movmi	r3, #43	@ 0x2b
 8003646:	f88d 3053 	strbmi.w	r3, [sp, #83]	@ 0x53
 800364a:	f89a 3000 	ldrb.w	r3, [sl]
 800364e:	2b2a      	cmp	r3, #42	@ 0x2a
 8003650:	d015      	beq.n	800367e <_svfiprintf_r+0xfa>
 8003652:	9a07      	ldr	r2, [sp, #28]
 8003654:	4654      	mov	r4, sl
 8003656:	2000      	movs	r0, #0
 8003658:	f04f 0c0a 	mov.w	ip, #10
 800365c:	4621      	mov	r1, r4
 800365e:	f811 3b01 	ldrb.w	r3, [r1], #1
 8003662:	3b30      	subs	r3, #48	@ 0x30
 8003664:	2b09      	cmp	r3, #9
 8003666:	d94b      	bls.n	8003700 <_svfiprintf_r+0x17c>
 8003668:	b1b0      	cbz	r0, 8003698 <_svfiprintf_r+0x114>
 800366a:	9207      	str	r2, [sp, #28]
 800366c:	e014      	b.n	8003698 <_svfiprintf_r+0x114>
 800366e:	eba0 0308 	sub.w	r3, r0, r8
 8003672:	fa09 f303 	lsl.w	r3, r9, r3
 8003676:	4313      	orrs	r3, r2
 8003678:	9304      	str	r3, [sp, #16]
 800367a:	46a2      	mov	sl, r4
 800367c:	e7d2      	b.n	8003624 <_svfiprintf_r+0xa0>
 800367e:	9b03      	ldr	r3, [sp, #12]
 8003680:	1d19      	adds	r1, r3, #4
 8003682:	681b      	ldr	r3, [r3, #0]
 8003684:	9103      	str	r1, [sp, #12]
 8003686:	2b00      	cmp	r3, #0
 8003688:	bfbb      	ittet	lt
 800368a:	425b      	neglt	r3, r3
 800368c:	f042 0202 	orrlt.w	r2, r2, #2
 8003690:	9307      	strge	r3, [sp, #28]
 8003692:	9307      	strlt	r3, [sp, #28]
 8003694:	bfb8      	it	lt
 8003696:	9204      	strlt	r2, [sp, #16]
 8003698:	7823      	ldrb	r3, [r4, #0]
 800369a:	2b2e      	cmp	r3, #46	@ 0x2e
 800369c:	d10a      	bne.n	80036b4 <_svfiprintf_r+0x130>
 800369e:	7863      	ldrb	r3, [r4, #1]
 80036a0:	2b2a      	cmp	r3, #42	@ 0x2a
 80036a2:	d132      	bne.n	800370a <_svfiprintf_r+0x186>
 80036a4:	9b03      	ldr	r3, [sp, #12]
 80036a6:	1d1a      	adds	r2, r3, #4
 80036a8:	681b      	ldr	r3, [r3, #0]
 80036aa:	9203      	str	r2, [sp, #12]
 80036ac:	ea43 73e3 	orr.w	r3, r3, r3, asr #31
 80036b0:	3402      	adds	r4, #2
 80036b2:	9305      	str	r3, [sp, #20]
 80036b4:	f8df a0b4 	ldr.w	sl, [pc, #180]	@ 800376c <_svfiprintf_r+0x1e8>
 80036b8:	7821      	ldrb	r1, [r4, #0]
 80036ba:	2203      	movs	r2, #3
 80036bc:	4650      	mov	r0, sl
 80036be:	f7fc fd8f 	bl	80001e0 <memchr>
 80036c2:	b138      	cbz	r0, 80036d4 <_svfiprintf_r+0x150>
 80036c4:	9b04      	ldr	r3, [sp, #16]
 80036c6:	eba0 000a 	sub.w	r0, r0, sl
 80036ca:	2240      	movs	r2, #64	@ 0x40
 80036cc:	4082      	lsls	r2, r0
 80036ce:	4313      	orrs	r3, r2
 80036d0:	3401      	adds	r4, #1
 80036d2:	9304      	str	r3, [sp, #16]
 80036d4:	f814 1b01 	ldrb.w	r1, [r4], #1
 80036d8:	4825      	ldr	r0, [pc, #148]	@ (8003770 <_svfiprintf_r+0x1ec>)
 80036da:	f88d 1028 	strb.w	r1, [sp, #40]	@ 0x28
 80036de:	2206      	movs	r2, #6
 80036e0:	f7fc fd7e 	bl	80001e0 <memchr>
 80036e4:	2800      	cmp	r0, #0
 80036e6:	d036      	beq.n	8003756 <_svfiprintf_r+0x1d2>
 80036e8:	4b22      	ldr	r3, [pc, #136]	@ (8003774 <_svfiprintf_r+0x1f0>)
 80036ea:	bb1b      	cbnz	r3, 8003734 <_svfiprintf_r+0x1b0>
 80036ec:	9b03      	ldr	r3, [sp, #12]
 80036ee:	3307      	adds	r3, #7
 80036f0:	f023 0307 	bic.w	r3, r3, #7
 80036f4:	3308      	adds	r3, #8
 80036f6:	9303      	str	r3, [sp, #12]
 80036f8:	9b09      	ldr	r3, [sp, #36]	@ 0x24
 80036fa:	4433      	add	r3, r6
 80036fc:	9309      	str	r3, [sp, #36]	@ 0x24
 80036fe:	e76a      	b.n	80035d6 <_svfiprintf_r+0x52>
 8003700:	fb0c 3202 	mla	r2, ip, r2, r3
 8003704:	460c      	mov	r4, r1
 8003706:	2001      	movs	r0, #1
 8003708:	e7a8      	b.n	800365c <_svfiprintf_r+0xd8>
 800370a:	2300      	movs	r3, #0
 800370c:	3401      	adds	r4, #1
 800370e:	9305      	str	r3, [sp, #20]
 8003710:	4619      	mov	r1, r3
 8003712:	f04f 0c0a 	mov.w	ip, #10
 8003716:	4620      	mov	r0, r4
 8003718:	f810 2b01 	ldrb.w	r2, [r0], #1
 800371c:	3a30      	subs	r2, #48	@ 0x30
 800371e:	2a09      	cmp	r2, #9
 8003720:	d903      	bls.n	800372a <_svfiprintf_r+0x1a6>
 8003722:	2b00      	cmp	r3, #0
 8003724:	d0c6      	beq.n	80036b4 <_svfiprintf_r+0x130>
 8003726:	9105      	str	r1, [sp, #20]
 8003728:	e7c4      	b.n	80036b4 <_svfiprintf_r+0x130>
 800372a:	fb0c 2101 	mla	r1, ip, r1, r2
 800372e:	4604      	mov	r4, r0
 8003730:	2301      	movs	r3, #1
 8003732:	e7f0      	b.n	8003716 <_svfiprintf_r+0x192>
 8003734:	ab03      	add	r3, sp, #12
 8003736:	9300      	str	r3, [sp, #0]
 8003738:	462a      	mov	r2, r5
 800373a:	4b0f      	ldr	r3, [pc, #60]	@ (8003778 <_svfiprintf_r+0x1f4>)
 800373c:	a904      	add	r1, sp, #16
 800373e:	4638      	mov	r0, r7
 8003740:	f7fe fa8e 	bl	8001c60 <_printf_float>
 8003744:	1c42      	adds	r2, r0, #1
 8003746:	4606      	mov	r6, r0
 8003748:	d1d6      	bne.n	80036f8 <_svfiprintf_r+0x174>
 800374a:	89ab      	ldrh	r3, [r5, #12]
 800374c:	065b      	lsls	r3, r3, #25
 800374e:	f53f af2d 	bmi.w	80035ac <_svfiprintf_r+0x28>
 8003752:	9809      	ldr	r0, [sp, #36]	@ 0x24
 8003754:	e72c      	b.n	80035b0 <_svfiprintf_r+0x2c>
 8003756:	ab03      	add	r3, sp, #12
 8003758:	9300      	str	r3, [sp, #0]
 800375a:	462a      	mov	r2, r5
 800375c:	4b06      	ldr	r3, [pc, #24]	@ (8003778 <_svfiprintf_r+0x1f4>)
 800375e:	a904      	add	r1, sp, #16
 8003760:	4638      	mov	r0, r7
 8003762:	f7fe fdc1 	bl	80022e8 <_printf_i>
 8003766:	e7ed      	b.n	8003744 <_svfiprintf_r+0x1c0>
 8003768:	080049fa 	.word	0x080049fa
 800376c:	08004a00 	.word	0x08004a00
 8003770:	08004a04 	.word	0x08004a04
 8003774:	08001c61 	.word	0x08001c61
 8003778:	080034cd 	.word	0x080034cd

0800377c <__sflush_r>:
 800377c:	f9b1 200c 	ldrsh.w	r2, [r1, #12]
 8003780:	b5f8      	push	{r3, r4, r5, r6, r7, lr}
 8003782:	0716      	lsls	r6, r2, #28
 8003784:	4605      	mov	r5, r0
 8003786:	460c      	mov	r4, r1
 8003788:	d454      	bmi.n	8003834 <__sflush_r+0xb8>
 800378a:	684b      	ldr	r3, [r1, #4]
 800378c:	2b00      	cmp	r3, #0
 800378e:	dc02      	bgt.n	8003796 <__sflush_r+0x1a>
 8003790:	6c0b      	ldr	r3, [r1, #64]	@ 0x40
 8003792:	2b00      	cmp	r3, #0
 8003794:	dd48      	ble.n	8003828 <__sflush_r+0xac>
 8003796:	6ae6      	ldr	r6, [r4, #44]	@ 0x2c
 8003798:	2e00      	cmp	r6, #0
 800379a:	d045      	beq.n	8003828 <__sflush_r+0xac>
 800379c:	2300      	movs	r3, #0
 800379e:	f412 5280 	ands.w	r2, r2, #4096	@ 0x1000
 80037a2:	682f      	ldr	r7, [r5, #0]
 80037a4:	6a21      	ldr	r1, [r4, #32]
 80037a6:	602b      	str	r3, [r5, #0]
 80037a8:	d030      	beq.n	800380c <__sflush_r+0x90>
 80037aa:	6d62      	ldr	r2, [r4, #84]	@ 0x54
 80037ac:	89a3      	ldrh	r3, [r4, #12]
 80037ae:	0759      	lsls	r1, r3, #29
 80037b0:	d505      	bpl.n	80037be <__sflush_r+0x42>
 80037b2:	6863      	ldr	r3, [r4, #4]
 80037b4:	1ad2      	subs	r2, r2, r3
 80037b6:	6b63      	ldr	r3, [r4, #52]	@ 0x34
 80037b8:	b10b      	cbz	r3, 80037be <__sflush_r+0x42>
 80037ba:	6c23      	ldr	r3, [r4, #64]	@ 0x40
 80037bc:	1ad2      	subs	r2, r2, r3
 80037be:	2300      	movs	r3, #0
 80037c0:	6ae6      	ldr	r6, [r4, #44]	@ 0x2c
 80037c2:	6a21      	ldr	r1, [r4, #32]
 80037c4:	4628      	mov	r0, r5
 80037c6:	47b0      	blx	r6
 80037c8:	1c43      	adds	r3, r0, #1
 80037ca:	89a3      	ldrh	r3, [r4, #12]
 80037cc:	d106      	bne.n	80037dc <__sflush_r+0x60>
 80037ce:	6829      	ldr	r1, [r5, #0]
 80037d0:	291d      	cmp	r1, #29
 80037d2:	d82b      	bhi.n	800382c <__sflush_r+0xb0>
 80037d4:	4a28      	ldr	r2, [pc, #160]	@ (8003878 <__sflush_r+0xfc>)
 80037d6:	410a      	asrs	r2, r1
 80037d8:	07d6      	lsls	r6, r2, #31
 80037da:	d427      	bmi.n	800382c <__sflush_r+0xb0>
 80037dc:	2200      	movs	r2, #0
 80037de:	6062      	str	r2, [r4, #4]
 80037e0:	04d9      	lsls	r1, r3, #19
 80037e2:	6922      	ldr	r2, [r4, #16]
 80037e4:	6022      	str	r2, [r4, #0]
 80037e6:	d504      	bpl.n	80037f2 <__sflush_r+0x76>
 80037e8:	1c42      	adds	r2, r0, #1
 80037ea:	d101      	bne.n	80037f0 <__sflush_r+0x74>
 80037ec:	682b      	ldr	r3, [r5, #0]
 80037ee:	b903      	cbnz	r3, 80037f2 <__sflush_r+0x76>
 80037f0:	6560      	str	r0, [r4, #84]	@ 0x54
 80037f2:	6b61      	ldr	r1, [r4, #52]	@ 0x34
 80037f4:	602f      	str	r7, [r5, #0]
 80037f6:	b1b9      	cbz	r1, 8003828 <__sflush_r+0xac>
 80037f8:	f104 0344 	add.w	r3, r4, #68	@ 0x44
 80037fc:	4299      	cmp	r1, r3
 80037fe:	d002      	beq.n	8003806 <__sflush_r+0x8a>
 8003800:	4628      	mov	r0, r5
 8003802:	f7ff fe19 	bl	8003438 <_free_r>
 8003806:	2300      	movs	r3, #0
 8003808:	6363      	str	r3, [r4, #52]	@ 0x34
 800380a:	e00d      	b.n	8003828 <__sflush_r+0xac>
 800380c:	2301      	movs	r3, #1
 800380e:	4628      	mov	r0, r5
 8003810:	47b0      	blx	r6
 8003812:	4602      	mov	r2, r0
 8003814:	1c50      	adds	r0, r2, #1
 8003816:	d1c9      	bne.n	80037ac <__sflush_r+0x30>
 8003818:	682b      	ldr	r3, [r5, #0]
 800381a:	2b00      	cmp	r3, #0
 800381c:	d0c6      	beq.n	80037ac <__sflush_r+0x30>
 800381e:	2b1d      	cmp	r3, #29
 8003820:	d001      	beq.n	8003826 <__sflush_r+0xaa>
 8003822:	2b16      	cmp	r3, #22
 8003824:	d11d      	bne.n	8003862 <__sflush_r+0xe6>
 8003826:	602f      	str	r7, [r5, #0]
 8003828:	2000      	movs	r0, #0
 800382a:	e021      	b.n	8003870 <__sflush_r+0xf4>
 800382c:	f043 0340 	orr.w	r3, r3, #64	@ 0x40
 8003830:	b21b      	sxth	r3, r3
 8003832:	e01a      	b.n	800386a <__sflush_r+0xee>
 8003834:	690f      	ldr	r7, [r1, #16]
 8003836:	2f00      	cmp	r7, #0
 8003838:	d0f6      	beq.n	8003828 <__sflush_r+0xac>
 800383a:	0793      	lsls	r3, r2, #30
 800383c:	680e      	ldr	r6, [r1, #0]
 800383e:	bf08      	it	eq
 8003840:	694b      	ldreq	r3, [r1, #20]
 8003842:	600f      	str	r7, [r1, #0]
 8003844:	bf18      	it	ne
 8003846:	2300      	movne	r3, #0
 8003848:	1bf6      	subs	r6, r6, r7
 800384a:	608b      	str	r3, [r1, #8]
 800384c:	2e00      	cmp	r6, #0
 800384e:	ddeb      	ble.n	8003828 <__sflush_r+0xac>
 8003850:	6a21      	ldr	r1, [r4, #32]
 8003852:	f8d4 c028 	ldr.w	ip, [r4, #40]	@ 0x28
 8003856:	4633      	mov	r3, r6
 8003858:	463a      	mov	r2, r7
 800385a:	4628      	mov	r0, r5
 800385c:	47e0      	blx	ip
 800385e:	2800      	cmp	r0, #0
 8003860:	dc07      	bgt.n	8003872 <__sflush_r+0xf6>
 8003862:	f9b4 300c 	ldrsh.w	r3, [r4, #12]
 8003866:	f043 0340 	orr.w	r3, r3, #64	@ 0x40
 800386a:	81a3      	strh	r3, [r4, #12]
 800386c:	f04f 30ff 	mov.w	r0, #4294967295	@ 0xffffffff
 8003870:	bdf8      	pop	{r3, r4, r5, r6, r7, pc}
 8003872:	4407      	add	r7, r0
 8003874:	1a36      	subs	r6, r6, r0
 8003876:	e7e9      	b.n	800384c <__sflush_r+0xd0>
 8003878:	dfbffffe 	.word	0xdfbffffe

0800387c <_fflush_r>:
 800387c:	b538      	push	{r3, r4, r5, lr}
 800387e:	690b      	ldr	r3, [r1, #16]
 8003880:	4605      	mov	r5, r0
 8003882:	460c      	mov	r4, r1
 8003884:	b913      	cbnz	r3, 800388c <_fflush_r+0x10>
 8003886:	2500      	movs	r5, #0
 8003888:	4628      	mov	r0, r5
 800388a:	bd38      	pop	{r3, r4, r5, pc}
 800388c:	b118      	cbz	r0, 8003896 <_fflush_r+0x1a>
 800388e:	6a03      	ldr	r3, [r0, #32]
 8003890:	b90b      	cbnz	r3, 8003896 <_fflush_r+0x1a>
 8003892:	f7fe ff01 	bl	8002698 <__sinit>
 8003896:	f9b4 300c 	ldrsh.w	r3, [r4, #12]
 800389a:	2b00      	cmp	r3, #0
 800389c:	d0f3      	beq.n	8003886 <_fflush_r+0xa>
 800389e:	6e62      	ldr	r2, [r4, #100]	@ 0x64
 80038a0:	07d0      	lsls	r0, r2, #31
 80038a2:	d404      	bmi.n	80038ae <_fflush_r+0x32>
 80038a4:	0599      	lsls	r1, r3, #22
 80038a6:	d402      	bmi.n	80038ae <_fflush_r+0x32>
 80038a8:	6da0      	ldr	r0, [r4, #88]	@ 0x58
 80038aa:	f7fe ff72 	bl	8002792 <__retarget_lock_acquire_recursive>
 80038ae:	4628      	mov	r0, r5
 80038b0:	4621      	mov	r1, r4
 80038b2:	f7ff ff63 	bl	800377c <__sflush_r>
 80038b6:	6e63      	ldr	r3, [r4, #100]	@ 0x64
 80038b8:	07da      	lsls	r2, r3, #31
 80038ba:	4605      	mov	r5, r0
 80038bc:	d4e4      	bmi.n	8003888 <_fflush_r+0xc>
 80038be:	89a3      	ldrh	r3, [r4, #12]
 80038c0:	059b      	lsls	r3, r3, #22
 80038c2:	d4e1      	bmi.n	8003888 <_fflush_r+0xc>
 80038c4:	6da0      	ldr	r0, [r4, #88]	@ 0x58
 80038c6:	f7fe ff65 	bl	8002794 <__retarget_lock_release_recursive>
 80038ca:	e7dd      	b.n	8003888 <_fflush_r+0xc>

080038cc <_Balloc>:
 80038cc:	b570      	push	{r4, r5, r6, lr}
 80038ce:	69c6      	ldr	r6, [r0, #28]
 80038d0:	4604      	mov	r4, r0
 80038d2:	460d      	mov	r5, r1
 80038d4:	b976      	cbnz	r6, 80038f4 <_Balloc+0x28>
 80038d6:	2010      	movs	r0, #16
 80038d8:	f7fe fbee 	bl	80020b8 <malloc>
 80038dc:	4602      	mov	r2, r0
 80038de:	61e0      	str	r0, [r4, #28]
 80038e0:	b920      	cbnz	r0, 80038ec <_Balloc+0x20>
 80038e2:	4b18      	ldr	r3, [pc, #96]	@ (8003944 <_Balloc+0x78>)
 80038e4:	4818      	ldr	r0, [pc, #96]	@ (8003948 <_Balloc+0x7c>)
 80038e6:	216b      	movs	r1, #107	@ 0x6b
 80038e8:	f000 fc50 	bl	800418c <__assert_func>
 80038ec:	e9c0 6601 	strd	r6, r6, [r0, #4]
 80038f0:	6006      	str	r6, [r0, #0]
 80038f2:	60c6      	str	r6, [r0, #12]
 80038f4:	69e6      	ldr	r6, [r4, #28]
 80038f6:	68f3      	ldr	r3, [r6, #12]
 80038f8:	b183      	cbz	r3, 800391c <_Balloc+0x50>
 80038fa:	69e3      	ldr	r3, [r4, #28]
 80038fc:	68db      	ldr	r3, [r3, #12]
 80038fe:	f853 0025 	ldr.w	r0, [r3, r5, lsl #2]
 8003902:	b9b8      	cbnz	r0, 8003934 <_Balloc+0x68>
 8003904:	2101      	movs	r1, #1
 8003906:	fa01 f605 	lsl.w	r6, r1, r5
 800390a:	1d72      	adds	r2, r6, #5
 800390c:	0092      	lsls	r2, r2, #2
 800390e:	4620      	mov	r0, r4
 8003910:	f000 fc5a 	bl	80041c8 <_calloc_r>
 8003914:	b160      	cbz	r0, 8003930 <_Balloc+0x64>
 8003916:	e9c0 5601 	strd	r5, r6, [r0, #4]
 800391a:	e00e      	b.n	800393a <_Balloc+0x6e>
 800391c:	2221      	movs	r2, #33	@ 0x21
 800391e:	2104      	movs	r1, #4
 8003920:	4620      	mov	r0, r4
 8003922:	f000 fc51 	bl	80041c8 <_calloc_r>
 8003926:	69e3      	ldr	r3, [r4, #28]
 8003928:	60f0      	str	r0, [r6, #12]
 800392a:	68db      	ldr	r3, [r3, #12]
 800392c:	2b00      	cmp	r3, #0
 800392e:	d1e4      	bne.n	80038fa <_Balloc+0x2e>
 8003930:	2000      	movs	r0, #0
 8003932:	bd70      	pop	{r4, r5, r6, pc}
 8003934:	6802      	ldr	r2, [r0, #0]
 8003936:	f843 2025 	str.w	r2, [r3, r5, lsl #2]
 800393a:	2300      	movs	r3, #0
 800393c:	e9c0 3303 	strd	r3, r3, [r0, #12]
 8003940:	e7f7      	b.n	8003932 <_Balloc+0x66>
 8003942:	bf00      	nop
 8003944:	0800497a 	.word	0x0800497a
 8003948:	08004a0b 	.word	0x08004a0b

0800394c <_Bfree>:
 800394c:	b570      	push	{r4, r5, r6, lr}
 800394e:	69c6      	ldr	r6, [r0, #28]
 8003950:	4605      	mov	r5, r0
 8003952:	460c      	mov	r4, r1
 8003954:	b976      	cbnz	r6, 8003974 <_Bfree+0x28>
 8003956:	2010      	movs	r0, #16
 8003958:	f7fe fbae 	bl	80020b8 <malloc>
 800395c:	4602      	mov	r2, r0
 800395e:	61e8      	str	r0, [r5, #28]
 8003960:	b920      	cbnz	r0, 800396c <_Bfree+0x20>
 8003962:	4b09      	ldr	r3, [pc, #36]	@ (8003988 <_Bfree+0x3c>)
 8003964:	4809      	ldr	r0, [pc, #36]	@ (800398c <_Bfree+0x40>)
 8003966:	218f      	movs	r1, #143	@ 0x8f
 8003968:	f000 fc10 	bl	800418c <__assert_func>
 800396c:	e9c0 6601 	strd	r6, r6, [r0, #4]
 8003970:	6006      	str	r6, [r0, #0]
 8003972:	60c6      	str	r6, [r0, #12]
 8003974:	b13c      	cbz	r4, 8003986 <_Bfree+0x3a>
 8003976:	69eb      	ldr	r3, [r5, #28]
 8003978:	6862      	ldr	r2, [r4, #4]
 800397a:	68db      	ldr	r3, [r3, #12]
 800397c:	f853 1022 	ldr.w	r1, [r3, r2, lsl #2]
 8003980:	6021      	str	r1, [r4, #0]
 8003982:	f843 4022 	str.w	r4, [r3, r2, lsl #2]
 8003986:	bd70      	pop	{r4, r5, r6, pc}
 8003988:	0800497a 	.word	0x0800497a
 800398c:	08004a0b 	.word	0x08004a0b

08003990 <__multadd>:
 8003990:	e92d 41f0 	stmdb	sp!, {r4, r5, r6, r7, r8, lr}
 8003994:	690d      	ldr	r5, [r1, #16]
 8003996:	4607      	mov	r7, r0
 8003998:	460c      	mov	r4, r1
 800399a:	461e      	mov	r6, r3
 800399c:	f101 0c14 	add.w	ip, r1, #20
 80039a0:	2000      	movs	r0, #0
 80039a2:	f8dc 3000 	ldr.w	r3, [ip]
 80039a6:	b299      	uxth	r1, r3
 80039a8:	fb02 6101 	mla	r1, r2, r1, r6
 80039ac:	0c1e      	lsrs	r6, r3, #16
 80039ae:	0c0b      	lsrs	r3, r1, #16
 80039b0:	fb02 3306 	mla	r3, r2, r6, r3
 80039b4:	b289      	uxth	r1, r1
 80039b6:	3001      	adds	r0, #1
 80039b8:	eb01 4103 	add.w	r1, r1, r3, lsl #16
 80039bc:	4285      	cmp	r5, r0
 80039be:	f84c 1b04 	str.w	r1, [ip], #4
 80039c2:	ea4f 4613 	mov.w	r6, r3, lsr #16
 80039c6:	dcec      	bgt.n	80039a2 <__multadd+0x12>
 80039c8:	b30e      	cbz	r6, 8003a0e <__multadd+0x7e>
 80039ca:	68a3      	ldr	r3, [r4, #8]
 80039cc:	42ab      	cmp	r3, r5
 80039ce:	dc19      	bgt.n	8003a04 <__multadd+0x74>
 80039d0:	6861      	ldr	r1, [r4, #4]
 80039d2:	4638      	mov	r0, r7
 80039d4:	3101      	adds	r1, #1
 80039d6:	f7ff ff79 	bl	80038cc <_Balloc>
 80039da:	4680      	mov	r8, r0
 80039dc:	b928      	cbnz	r0, 80039ea <__multadd+0x5a>
 80039de:	4602      	mov	r2, r0
 80039e0:	4b0c      	ldr	r3, [pc, #48]	@ (8003a14 <__multadd+0x84>)
 80039e2:	480d      	ldr	r0, [pc, #52]	@ (8003a18 <__multadd+0x88>)
 80039e4:	21ba      	movs	r1, #186	@ 0xba
 80039e6:	f000 fbd1 	bl	800418c <__assert_func>
 80039ea:	6922      	ldr	r2, [r4, #16]
 80039ec:	3202      	adds	r2, #2
 80039ee:	f104 010c 	add.w	r1, r4, #12
 80039f2:	0092      	lsls	r2, r2, #2
 80039f4:	300c      	adds	r0, #12
 80039f6:	f000 fbbb 	bl	8004170 <memcpy>
 80039fa:	4621      	mov	r1, r4
 80039fc:	4638      	mov	r0, r7
 80039fe:	f7ff ffa5 	bl	800394c <_Bfree>
 8003a02:	4644      	mov	r4, r8
 8003a04:	eb04 0385 	add.w	r3, r4, r5, lsl #2
 8003a08:	3501      	adds	r5, #1
 8003a0a:	615e      	str	r6, [r3, #20]
 8003a0c:	6125      	str	r5, [r4, #16]
 8003a0e:	4620      	mov	r0, r4
 8003a10:	e8bd 81f0 	ldmia.w	sp!, {r4, r5, r6, r7, r8, pc}
 8003a14:	080049e9 	.word	0x080049e9
 8003a18:	08004a0b 	.word	0x08004a0b

08003a1c <__hi0bits>:
 8003a1c:	f5b0 3f80 	cmp.w	r0, #65536	@ 0x10000
 8003a20:	4603      	mov	r3, r0
 8003a22:	bf36      	itet	cc
 8003a24:	0403      	lslcc	r3, r0, #16
 8003a26:	2000      	movcs	r0, #0
 8003a28:	2010      	movcc	r0, #16
 8003a2a:	f1b3 7f80 	cmp.w	r3, #16777216	@ 0x1000000
 8003a2e:	bf3c      	itt	cc
 8003a30:	021b      	lslcc	r3, r3, #8
 8003a32:	3008      	addcc	r0, #8
 8003a34:	f1b3 5f80 	cmp.w	r3, #268435456	@ 0x10000000
 8003a38:	bf3c      	itt	cc
 8003a3a:	011b      	lslcc	r3, r3, #4
 8003a3c:	3004      	addcc	r0, #4
 8003a3e:	f1b3 4f80 	cmp.w	r3, #1073741824	@ 0x40000000
 8003a42:	bf3c      	itt	cc
 8003a44:	009b      	lslcc	r3, r3, #2
 8003a46:	3002      	addcc	r0, #2
 8003a48:	2b00      	cmp	r3, #0
 8003a4a:	db05      	blt.n	8003a58 <__hi0bits+0x3c>
 8003a4c:	f013 4f80 	tst.w	r3, #1073741824	@ 0x40000000
 8003a50:	f100 0001 	add.w	r0, r0, #1
 8003a54:	bf08      	it	eq
 8003a56:	2020      	moveq	r0, #32
 8003a58:	4770      	bx	lr

08003a5a <__lo0bits>:
 8003a5a:	6803      	ldr	r3, [r0, #0]
 8003a5c:	4602      	mov	r2, r0
 8003a5e:	f013 0007 	ands.w	r0, r3, #7
 8003a62:	d00b      	beq.n	8003a7c <__lo0bits+0x22>
 8003a64:	07d9      	lsls	r1, r3, #31
 8003a66:	d421      	bmi.n	8003aac <__lo0bits+0x52>
 8003a68:	0798      	lsls	r0, r3, #30
 8003a6a:	bf49      	itett	mi
 8003a6c:	085b      	lsrmi	r3, r3, #1
 8003a6e:	089b      	lsrpl	r3, r3, #2
 8003a70:	2001      	movmi	r0, #1
 8003a72:	6013      	strmi	r3, [r2, #0]
 8003a74:	bf5c      	itt	pl
 8003a76:	6013      	strpl	r3, [r2, #0]
 8003a78:	2002      	movpl	r0, #2
 8003a7a:	4770      	bx	lr
 8003a7c:	b299      	uxth	r1, r3
 8003a7e:	b909      	cbnz	r1, 8003a84 <__lo0bits+0x2a>
 8003a80:	0c1b      	lsrs	r3, r3, #16
 8003a82:	2010      	movs	r0, #16
 8003a84:	b2d9      	uxtb	r1, r3
 8003a86:	b909      	cbnz	r1, 8003a8c <__lo0bits+0x32>
 8003a88:	3008      	adds	r0, #8
 8003a8a:	0a1b      	lsrs	r3, r3, #8
 8003a8c:	0719      	lsls	r1, r3, #28
 8003a8e:	bf04      	itt	eq
 8003a90:	091b      	lsreq	r3, r3, #4
 8003a92:	3004      	addeq	r0, #4
 8003a94:	0799      	lsls	r1, r3, #30
 8003a96:	bf04      	itt	eq
 8003a98:	089b      	lsreq	r3, r3, #2
 8003a9a:	3002      	addeq	r0, #2
 8003a9c:	07d9      	lsls	r1, r3, #31
 8003a9e:	d403      	bmi.n	8003aa8 <__lo0bits+0x4e>
 8003aa0:	085b      	lsrs	r3, r3, #1
 8003aa2:	f100 0001 	add.w	r0, r0, #1
 8003aa6:	d003      	beq.n	8003ab0 <__lo0bits+0x56>
 8003aa8:	6013      	str	r3, [r2, #0]
 8003aaa:	4770      	bx	lr
 8003aac:	2000      	movs	r0, #0
 8003aae:	4770      	bx	lr
 8003ab0:	2020      	movs	r0, #32
 8003ab2:	4770      	bx	lr

08003ab4 <__i2b>:
 8003ab4:	b510      	push	{r4, lr}
 8003ab6:	460c      	mov	r4, r1
 8003ab8:	2101      	movs	r1, #1
 8003aba:	f7ff ff07 	bl	80038cc <_Balloc>
 8003abe:	4602      	mov	r2, r0
 8003ac0:	b928      	cbnz	r0, 8003ace <__i2b+0x1a>
 8003ac2:	4b05      	ldr	r3, [pc, #20]	@ (8003ad8 <__i2b+0x24>)
 8003ac4:	4805      	ldr	r0, [pc, #20]	@ (8003adc <__i2b+0x28>)
 8003ac6:	f240 1145 	movw	r1, #325	@ 0x145
 8003aca:	f000 fb5f 	bl	800418c <__assert_func>
 8003ace:	2301      	movs	r3, #1
 8003ad0:	6144      	str	r4, [r0, #20]
 8003ad2:	6103      	str	r3, [r0, #16]
 8003ad4:	bd10      	pop	{r4, pc}
 8003ad6:	bf00      	nop
 8003ad8:	080049e9 	.word	0x080049e9
 8003adc:	08004a0b 	.word	0x08004a0b

08003ae0 <__multiply>:
 8003ae0:	e92d 4ff0 	stmdb	sp!, {r4, r5, r6, r7, r8, r9, sl, fp, lr}
 8003ae4:	4614      	mov	r4, r2
 8003ae6:	690a      	ldr	r2, [r1, #16]
 8003ae8:	6923      	ldr	r3, [r4, #16]
 8003aea:	429a      	cmp	r2, r3
 8003aec:	bfa8      	it	ge
 8003aee:	4623      	movge	r3, r4
 8003af0:	460f      	mov	r7, r1
 8003af2:	bfa4      	itt	ge
 8003af4:	460c      	movge	r4, r1
 8003af6:	461f      	movge	r7, r3
 8003af8:	f8d4 a010 	ldr.w	sl, [r4, #16]
 8003afc:	f8d7 9010 	ldr.w	r9, [r7, #16]
 8003b00:	68a3      	ldr	r3, [r4, #8]
 8003b02:	6861      	ldr	r1, [r4, #4]
 8003b04:	eb0a 0609 	add.w	r6, sl, r9
 8003b08:	42b3      	cmp	r3, r6
 8003b0a:	b085      	sub	sp, #20
 8003b0c:	bfb8      	it	lt
 8003b0e:	3101      	addlt	r1, #1
 8003b10:	f7ff fedc 	bl	80038cc <_Balloc>
 8003b14:	b930      	cbnz	r0, 8003b24 <__multiply+0x44>
 8003b16:	4602      	mov	r2, r0
 8003b18:	4b44      	ldr	r3, [pc, #272]	@ (8003c2c <__multiply+0x14c>)
 8003b1a:	4845      	ldr	r0, [pc, #276]	@ (8003c30 <__multiply+0x150>)
 8003b1c:	f44f 71b1 	mov.w	r1, #354	@ 0x162
 8003b20:	f000 fb34 	bl	800418c <__assert_func>
 8003b24:	f100 0514 	add.w	r5, r0, #20
 8003b28:	eb05 0886 	add.w	r8, r5, r6, lsl #2
 8003b2c:	462b      	mov	r3, r5
 8003b2e:	2200      	movs	r2, #0
 8003b30:	4543      	cmp	r3, r8
 8003b32:	d321      	bcc.n	8003b78 <__multiply+0x98>
 8003b34:	f107 0114 	add.w	r1, r7, #20
 8003b38:	f104 0214 	add.w	r2, r4, #20
 8003b3c:	eb02 028a 	add.w	r2, r2, sl, lsl #2
 8003b40:	eb01 0389 	add.w	r3, r1, r9, lsl #2
 8003b44:	9302      	str	r3, [sp, #8]
 8003b46:	1b13      	subs	r3, r2, r4
 8003b48:	3b15      	subs	r3, #21
 8003b4a:	f023 0303 	bic.w	r3, r3, #3
 8003b4e:	3304      	adds	r3, #4
 8003b50:	f104 0715 	add.w	r7, r4, #21
 8003b54:	42ba      	cmp	r2, r7
 8003b56:	bf38      	it	cc
 8003b58:	2304      	movcc	r3, #4
 8003b5a:	9301      	str	r3, [sp, #4]
 8003b5c:	9b02      	ldr	r3, [sp, #8]
 8003b5e:	9103      	str	r1, [sp, #12]
 8003b60:	428b      	cmp	r3, r1
 8003b62:	d80c      	bhi.n	8003b7e <__multiply+0x9e>
 8003b64:	2e00      	cmp	r6, #0
 8003b66:	dd03      	ble.n	8003b70 <__multiply+0x90>
 8003b68:	f858 3d04 	ldr.w	r3, [r8, #-4]!
 8003b6c:	2b00      	cmp	r3, #0
 8003b6e:	d05a      	beq.n	8003c26 <__multiply+0x146>
 8003b70:	6106      	str	r6, [r0, #16]
 8003b72:	b005      	add	sp, #20
 8003b74:	e8bd 8ff0 	ldmia.w	sp!, {r4, r5, r6, r7, r8, r9, sl, fp, pc}
 8003b78:	f843 2b04 	str.w	r2, [r3], #4
 8003b7c:	e7d8      	b.n	8003b30 <__multiply+0x50>
 8003b7e:	f8b1 a000 	ldrh.w	sl, [r1]
 8003b82:	f1ba 0f00 	cmp.w	sl, #0
 8003b86:	d023      	beq.n	8003bd0 <__multiply+0xf0>
 8003b88:	f104 0e14 	add.w	lr, r4, #20
 8003b8c:	46a9      	mov	r9, r5
 8003b8e:	f04f 0c00 	mov.w	ip, #0
 8003b92:	f85e 7b04 	ldr.w	r7, [lr], #4
 8003b96:	f8d9 3000 	ldr.w	r3, [r9]
 8003b9a:	fa1f fb87 	uxth.w	fp, r7
 8003b9e:	b29b      	uxth	r3, r3
 8003ba0:	fb0a 330b 	mla	r3, sl, fp, r3
 8003ba4:	4463      	add	r3, ip
 8003ba6:	f8d9 c000 	ldr.w	ip, [r9]
 8003baa:	0c3f      	lsrs	r7, r7, #16
 8003bac:	ea4f 4c1c 	mov.w	ip, ip, lsr #16
 8003bb0:	fb0a c707 	mla	r7, sl, r7, ip
 8003bb4:	eb07 4713 	add.w	r7, r7, r3, lsr #16
 8003bb8:	b29b      	uxth	r3, r3
 8003bba:	ea43 4307 	orr.w	r3, r3, r7, lsl #16
 8003bbe:	4572      	cmp	r2, lr
 8003bc0:	f849 3b04 	str.w	r3, [r9], #4
 8003bc4:	ea4f 4c17 	mov.w	ip, r7, lsr #16
 8003bc8:	d8e3      	bhi.n	8003b92 <__multiply+0xb2>
 8003bca:	9b01      	ldr	r3, [sp, #4]
 8003bcc:	f845 c003 	str.w	ip, [r5, r3]
 8003bd0:	9b03      	ldr	r3, [sp, #12]
 8003bd2:	f8b3 9002 	ldrh.w	r9, [r3, #2]
 8003bd6:	3104      	adds	r1, #4
 8003bd8:	f1b9 0f00 	cmp.w	r9, #0
 8003bdc:	d021      	beq.n	8003c22 <__multiply+0x142>
 8003bde:	682b      	ldr	r3, [r5, #0]
 8003be0:	f104 0c14 	add.w	ip, r4, #20
 8003be4:	46ae      	mov	lr, r5
 8003be6:	f04f 0a00 	mov.w	sl, #0
 8003bea:	f8bc b000 	ldrh.w	fp, [ip]
 8003bee:	f8be 7002 	ldrh.w	r7, [lr, #2]
 8003bf2:	fb09 770b 	mla	r7, r9, fp, r7
 8003bf6:	4457      	add	r7, sl
 8003bf8:	b29b      	uxth	r3, r3
 8003bfa:	ea43 4307 	orr.w	r3, r3, r7, lsl #16
 8003bfe:	f84e 3b04 	str.w	r3, [lr], #4
 8003c02:	f85c 3b04 	ldr.w	r3, [ip], #4
 8003c06:	ea4f 4a13 	mov.w	sl, r3, lsr #16
 8003c0a:	f8be 3000 	ldrh.w	r3, [lr]
 8003c0e:	fb09 330a 	mla	r3, r9, sl, r3
 8003c12:	eb03 4317 	add.w	r3, r3, r7, lsr #16
 8003c16:	4562      	cmp	r2, ip
 8003c18:	ea4f 4a13 	mov.w	sl, r3, lsr #16
 8003c1c:	d8e5      	bhi.n	8003bea <__multiply+0x10a>
 8003c1e:	9f01      	ldr	r7, [sp, #4]
 8003c20:	51eb      	str	r3, [r5, r7]
 8003c22:	3504      	adds	r5, #4
 8003c24:	e79a      	b.n	8003b5c <__multiply+0x7c>
 8003c26:	3e01      	subs	r6, #1
 8003c28:	e79c      	b.n	8003b64 <__multiply+0x84>
 8003c2a:	bf00      	nop
 8003c2c:	080049e9 	.word	0x080049e9
 8003c30:	08004a0b 	.word	0x08004a0b

08003c34 <__pow5mult>:
 8003c34:	e92d 43f8 	stmdb	sp!, {r3, r4, r5, r6, r7, r8, r9, lr}
 8003c38:	4615      	mov	r5, r2
 8003c3a:	f012 0203 	ands.w	r2, r2, #3
 8003c3e:	4607      	mov	r7, r0
 8003c40:	460e      	mov	r6, r1
 8003c42:	d007      	beq.n	8003c54 <__pow5mult+0x20>
 8003c44:	4c25      	ldr	r4, [pc, #148]	@ (8003cdc <__pow5mult+0xa8>)
 8003c46:	3a01      	subs	r2, #1
 8003c48:	2300      	movs	r3, #0
 8003c4a:	f854 2022 	ldr.w	r2, [r4, r2, lsl #2]
 8003c4e:	f7ff fe9f 	bl	8003990 <__multadd>
 8003c52:	4606      	mov	r6, r0
 8003c54:	10ad      	asrs	r5, r5, #2
 8003c56:	d03d      	beq.n	8003cd4 <__pow5mult+0xa0>
 8003c58:	69fc      	ldr	r4, [r7, #28]
 8003c5a:	b97c      	cbnz	r4, 8003c7c <__pow5mult+0x48>
 8003c5c:	2010      	movs	r0, #16
 8003c5e:	f7fe fa2b 	bl	80020b8 <malloc>
 8003c62:	4602      	mov	r2, r0
 8003c64:	61f8      	str	r0, [r7, #28]
 8003c66:	b928      	cbnz	r0, 8003c74 <__pow5mult+0x40>
 8003c68:	4b1d      	ldr	r3, [pc, #116]	@ (8003ce0 <__pow5mult+0xac>)
 8003c6a:	481e      	ldr	r0, [pc, #120]	@ (8003ce4 <__pow5mult+0xb0>)
 8003c6c:	f240 11b3 	movw	r1, #435	@ 0x1b3
 8003c70:	f000 fa8c 	bl	800418c <__assert_func>
 8003c74:	e9c0 4401 	strd	r4, r4, [r0, #4]
 8003c78:	6004      	str	r4, [r0, #0]
 8003c7a:	60c4      	str	r4, [r0, #12]
 8003c7c:	f8d7 801c 	ldr.w	r8, [r7, #28]
 8003c80:	f8d8 4008 	ldr.w	r4, [r8, #8]
 8003c84:	b94c      	cbnz	r4, 8003c9a <__pow5mult+0x66>
 8003c86:	f240 2171 	movw	r1, #625	@ 0x271
 8003c8a:	4638      	mov	r0, r7
 8003c8c:	f7ff ff12 	bl	8003ab4 <__i2b>
 8003c90:	2300      	movs	r3, #0
 8003c92:	f8c8 0008 	str.w	r0, [r8, #8]
 8003c96:	4604      	mov	r4, r0
 8003c98:	6003      	str	r3, [r0, #0]
 8003c9a:	f04f 0900 	mov.w	r9, #0
 8003c9e:	07eb      	lsls	r3, r5, #31
 8003ca0:	d50a      	bpl.n	8003cb8 <__pow5mult+0x84>
 8003ca2:	4631      	mov	r1, r6
 8003ca4:	4622      	mov	r2, r4
 8003ca6:	4638      	mov	r0, r7
 8003ca8:	f7ff ff1a 	bl	8003ae0 <__multiply>
 8003cac:	4631      	mov	r1, r6
 8003cae:	4680      	mov	r8, r0
 8003cb0:	4638      	mov	r0, r7
 8003cb2:	f7ff fe4b 	bl	800394c <_Bfree>
 8003cb6:	4646      	mov	r6, r8
 8003cb8:	106d      	asrs	r5, r5, #1
 8003cba:	d00b      	beq.n	8003cd4 <__pow5mult+0xa0>
 8003cbc:	6820      	ldr	r0, [r4, #0]
 8003cbe:	b938      	cbnz	r0, 8003cd0 <__pow5mult+0x9c>
 8003cc0:	4622      	mov	r2, r4
 8003cc2:	4621      	mov	r1, r4
 8003cc4:	4638      	mov	r0, r7
 8003cc6:	f7ff ff0b 	bl	8003ae0 <__multiply>
 8003cca:	6020      	str	r0, [r4, #0]
 8003ccc:	f8c0 9000 	str.w	r9, [r0]
 8003cd0:	4604      	mov	r4, r0
 8003cd2:	e7e4      	b.n	8003c9e <__pow5mult+0x6a>
 8003cd4:	4630      	mov	r0, r6
 8003cd6:	e8bd 83f8 	ldmia.w	sp!, {r3, r4, r5, r6, r7, r8, r9, pc}
 8003cda:	bf00      	nop
 8003cdc:	08004a64 	.word	0x08004a64
 8003ce0:	0800497a 	.word	0x0800497a
 8003ce4:	08004a0b 	.word	0x08004a0b

08003ce8 <__lshift>:
 8003ce8:	e92d 47f0 	stmdb	sp!, {r4, r5, r6, r7, r8, r9, sl, lr}
 8003cec:	460c      	mov	r4, r1
 8003cee:	6849      	ldr	r1, [r1, #4]
 8003cf0:	6923      	ldr	r3, [r4, #16]
 8003cf2:	eb03 1862 	add.w	r8, r3, r2, asr #5
 8003cf6:	68a3      	ldr	r3, [r4, #8]
 8003cf8:	4607      	mov	r7, r0
 8003cfa:	4691      	mov	r9, r2
 8003cfc:	ea4f 1a62 	mov.w	sl, r2, asr #5
 8003d00:	f108 0601 	add.w	r6, r8, #1
 8003d04:	42b3      	cmp	r3, r6
 8003d06:	db0b      	blt.n	8003d20 <__lshift+0x38>
 8003d08:	4638      	mov	r0, r7
 8003d0a:	f7ff fddf 	bl	80038cc <_Balloc>
 8003d0e:	4605      	mov	r5, r0
 8003d10:	b948      	cbnz	r0, 8003d26 <__lshift+0x3e>
 8003d12:	4602      	mov	r2, r0
 8003d14:	4b28      	ldr	r3, [pc, #160]	@ (8003db8 <__lshift+0xd0>)
 8003d16:	4829      	ldr	r0, [pc, #164]	@ (8003dbc <__lshift+0xd4>)
 8003d18:	f44f 71ef 	mov.w	r1, #478	@ 0x1de
 8003d1c:	f000 fa36 	bl	800418c <__assert_func>
 8003d20:	3101      	adds	r1, #1
 8003d22:	005b      	lsls	r3, r3, #1
 8003d24:	e7ee      	b.n	8003d04 <__lshift+0x1c>
 8003d26:	2300      	movs	r3, #0
 8003d28:	f100 0114 	add.w	r1, r0, #20
 8003d2c:	f100 0210 	add.w	r2, r0, #16
 8003d30:	4618      	mov	r0, r3
 8003d32:	4553      	cmp	r3, sl
 8003d34:	db33      	blt.n	8003d9e <__lshift+0xb6>
 8003d36:	6920      	ldr	r0, [r4, #16]
 8003d38:	ea2a 7aea 	bic.w	sl, sl, sl, asr #31
 8003d3c:	f104 0314 	add.w	r3, r4, #20
 8003d40:	f019 091f 	ands.w	r9, r9, #31
 8003d44:	eb01 018a 	add.w	r1, r1, sl, lsl #2
 8003d48:	eb03 0c80 	add.w	ip, r3, r0, lsl #2
 8003d4c:	d02b      	beq.n	8003da6 <__lshift+0xbe>
 8003d4e:	f1c9 0e20 	rsb	lr, r9, #32
 8003d52:	468a      	mov	sl, r1
 8003d54:	2200      	movs	r2, #0
 8003d56:	6818      	ldr	r0, [r3, #0]
 8003d58:	fa00 f009 	lsl.w	r0, r0, r9
 8003d5c:	4310      	orrs	r0, r2
 8003d5e:	f84a 0b04 	str.w	r0, [sl], #4
 8003d62:	f853 2b04 	ldr.w	r2, [r3], #4
 8003d66:	459c      	cmp	ip, r3
 8003d68:	fa22 f20e 	lsr.w	r2, r2, lr
 8003d6c:	d8f3      	bhi.n	8003d56 <__lshift+0x6e>
 8003d6e:	ebac 0304 	sub.w	r3, ip, r4
 8003d72:	3b15      	subs	r3, #21
 8003d74:	f023 0303 	bic.w	r3, r3, #3
 8003d78:	3304      	adds	r3, #4
 8003d7a:	f104 0015 	add.w	r0, r4, #21
 8003d7e:	4584      	cmp	ip, r0
 8003d80:	bf38      	it	cc
 8003d82:	2304      	movcc	r3, #4
 8003d84:	50ca      	str	r2, [r1, r3]
 8003d86:	b10a      	cbz	r2, 8003d8c <__lshift+0xa4>
 8003d88:	f108 0602 	add.w	r6, r8, #2
 8003d8c:	3e01      	subs	r6, #1
 8003d8e:	4638      	mov	r0, r7
 8003d90:	612e      	str	r6, [r5, #16]
 8003d92:	4621      	mov	r1, r4
 8003d94:	f7ff fdda 	bl	800394c <_Bfree>
 8003d98:	4628      	mov	r0, r5
 8003d9a:	e8bd 87f0 	ldmia.w	sp!, {r4, r5, r6, r7, r8, r9, sl, pc}
 8003d9e:	f842 0f04 	str.w	r0, [r2, #4]!
 8003da2:	3301      	adds	r3, #1
 8003da4:	e7c5      	b.n	8003d32 <__lshift+0x4a>
 8003da6:	3904      	subs	r1, #4
 8003da8:	f853 2b04 	ldr.w	r2, [r3], #4
 8003dac:	f841 2f04 	str.w	r2, [r1, #4]!
 8003db0:	459c      	cmp	ip, r3
 8003db2:	d8f9      	bhi.n	8003da8 <__lshift+0xc0>
 8003db4:	e7ea      	b.n	8003d8c <__lshift+0xa4>
 8003db6:	bf00      	nop
 8003db8:	080049e9 	.word	0x080049e9
 8003dbc:	08004a0b 	.word	0x08004a0b

08003dc0 <__mcmp>:
 8003dc0:	690a      	ldr	r2, [r1, #16]
 8003dc2:	4603      	mov	r3, r0
 8003dc4:	6900      	ldr	r0, [r0, #16]
 8003dc6:	1a80      	subs	r0, r0, r2
 8003dc8:	b530      	push	{r4, r5, lr}
 8003dca:	d10e      	bne.n	8003dea <__mcmp+0x2a>
 8003dcc:	3314      	adds	r3, #20
 8003dce:	3114      	adds	r1, #20
 8003dd0:	eb03 0482 	add.w	r4, r3, r2, lsl #2
 8003dd4:	eb01 0182 	add.w	r1, r1, r2, lsl #2
 8003dd8:	f854 5d04 	ldr.w	r5, [r4, #-4]!
 8003ddc:	f851 2d04 	ldr.w	r2, [r1, #-4]!
 8003de0:	4295      	cmp	r5, r2
 8003de2:	d003      	beq.n	8003dec <__mcmp+0x2c>
 8003de4:	d205      	bcs.n	8003df2 <__mcmp+0x32>
 8003de6:	f04f 30ff 	mov.w	r0, #4294967295	@ 0xffffffff
 8003dea:	bd30      	pop	{r4, r5, pc}
 8003dec:	42a3      	cmp	r3, r4
 8003dee:	d3f3      	bcc.n	8003dd8 <__mcmp+0x18>
 8003df0:	e7fb      	b.n	8003dea <__mcmp+0x2a>
 8003df2:	2001      	movs	r0, #1
 8003df4:	e7f9      	b.n	8003dea <__mcmp+0x2a>
	...

08003df8 <__mdiff>:
 8003df8:	e92d 4ff7 	stmdb	sp!, {r0, r1, r2, r4, r5, r6, r7, r8, r9, sl, fp, lr}
 8003dfc:	4689      	mov	r9, r1
 8003dfe:	4606      	mov	r6, r0
 8003e00:	4611      	mov	r1, r2
 8003e02:	4648      	mov	r0, r9
 8003e04:	4614      	mov	r4, r2
 8003e06:	f7ff ffdb 	bl	8003dc0 <__mcmp>
 8003e0a:	1e05      	subs	r5, r0, #0
 8003e0c:	d112      	bne.n	8003e34 <__mdiff+0x3c>
 8003e0e:	4629      	mov	r1, r5
 8003e10:	4630      	mov	r0, r6
 8003e12:	f7ff fd5b 	bl	80038cc <_Balloc>
 8003e16:	4602      	mov	r2, r0
 8003e18:	b928      	cbnz	r0, 8003e26 <__mdiff+0x2e>
 8003e1a:	4b3e      	ldr	r3, [pc, #248]	@ (8003f14 <__mdiff+0x11c>)
 8003e1c:	f240 2137 	movw	r1, #567	@ 0x237
 8003e20:	483d      	ldr	r0, [pc, #244]	@ (8003f18 <__mdiff+0x120>)
 8003e22:	f000 f9b3 	bl	800418c <__assert_func>
 8003e26:	2301      	movs	r3, #1
 8003e28:	e9c0 3504 	strd	r3, r5, [r0, #16]
 8003e2c:	4610      	mov	r0, r2
 8003e2e:	b003      	add	sp, #12
 8003e30:	e8bd 8ff0 	ldmia.w	sp!, {r4, r5, r6, r7, r8, r9, sl, fp, pc}
 8003e34:	bfbc      	itt	lt
 8003e36:	464b      	movlt	r3, r9
 8003e38:	46a1      	movlt	r9, r4
 8003e3a:	4630      	mov	r0, r6
 8003e3c:	f8d9 1004 	ldr.w	r1, [r9, #4]
 8003e40:	bfba      	itte	lt
 8003e42:	461c      	movlt	r4, r3
 8003e44:	2501      	movlt	r5, #1
 8003e46:	2500      	movge	r5, #0
 8003e48:	f7ff fd40 	bl	80038cc <_Balloc>
 8003e4c:	4602      	mov	r2, r0
 8003e4e:	b918      	cbnz	r0, 8003e58 <__mdiff+0x60>
 8003e50:	4b30      	ldr	r3, [pc, #192]	@ (8003f14 <__mdiff+0x11c>)
 8003e52:	f240 2145 	movw	r1, #581	@ 0x245
 8003e56:	e7e3      	b.n	8003e20 <__mdiff+0x28>
 8003e58:	f8d9 7010 	ldr.w	r7, [r9, #16]
 8003e5c:	6926      	ldr	r6, [r4, #16]
 8003e5e:	60c5      	str	r5, [r0, #12]
 8003e60:	f109 0310 	add.w	r3, r9, #16
 8003e64:	f109 0514 	add.w	r5, r9, #20
 8003e68:	f104 0e14 	add.w	lr, r4, #20
 8003e6c:	f100 0b14 	add.w	fp, r0, #20
 8003e70:	eb05 0887 	add.w	r8, r5, r7, lsl #2
 8003e74:	eb0e 0686 	add.w	r6, lr, r6, lsl #2
 8003e78:	9301      	str	r3, [sp, #4]
 8003e7a:	46d9      	mov	r9, fp
 8003e7c:	f04f 0c00 	mov.w	ip, #0
 8003e80:	9b01      	ldr	r3, [sp, #4]
 8003e82:	f85e 0b04 	ldr.w	r0, [lr], #4
 8003e86:	f853 af04 	ldr.w	sl, [r3, #4]!
 8003e8a:	9301      	str	r3, [sp, #4]
 8003e8c:	b281      	uxth	r1, r0
 8003e8e:	fa1f f38a 	uxth.w	r3, sl
 8003e92:	1a5b      	subs	r3, r3, r1
 8003e94:	0c00      	lsrs	r0, r0, #16
 8003e96:	4463      	add	r3, ip
 8003e98:	ebc0 401a 	rsb	r0, r0, sl, lsr #16
 8003e9c:	eb00 4023 	add.w	r0, r0, r3, asr #16
 8003ea0:	b29b      	uxth	r3, r3
 8003ea2:	ea43 4300 	orr.w	r3, r3, r0, lsl #16
 8003ea6:	4576      	cmp	r6, lr
 8003ea8:	f849 3b04 	str.w	r3, [r9], #4
 8003eac:	ea4f 4c20 	mov.w	ip, r0, asr #16
 8003eb0:	d8e6      	bhi.n	8003e80 <__mdiff+0x88>
 8003eb2:	1b33      	subs	r3, r6, r4
 8003eb4:	3b15      	subs	r3, #21
 8003eb6:	f023 0303 	bic.w	r3, r3, #3
 8003eba:	3415      	adds	r4, #21
 8003ebc:	3304      	adds	r3, #4
 8003ebe:	42a6      	cmp	r6, r4
 8003ec0:	bf38      	it	cc
 8003ec2:	2304      	movcc	r3, #4
 8003ec4:	441d      	add	r5, r3
 8003ec6:	445b      	add	r3, fp
 8003ec8:	461e      	mov	r6, r3
 8003eca:	462c      	mov	r4, r5
 8003ecc:	4544      	cmp	r4, r8
 8003ece:	d30e      	bcc.n	8003eee <__mdiff+0xf6>
 8003ed0:	f108 0103 	add.w	r1, r8, #3
 8003ed4:	1b49      	subs	r1, r1, r5
 8003ed6:	f021 0103 	bic.w	r1, r1, #3
 8003eda:	3d03      	subs	r5, #3
 8003edc:	45a8      	cmp	r8, r5
 8003ede:	bf38      	it	cc
 8003ee0:	2100      	movcc	r1, #0
 8003ee2:	440b      	add	r3, r1
 8003ee4:	f853 1d04 	ldr.w	r1, [r3, #-4]!
 8003ee8:	b191      	cbz	r1, 8003f10 <__mdiff+0x118>
 8003eea:	6117      	str	r7, [r2, #16]
 8003eec:	e79e      	b.n	8003e2c <__mdiff+0x34>
 8003eee:	f854 1b04 	ldr.w	r1, [r4], #4
 8003ef2:	46e6      	mov	lr, ip
 8003ef4:	0c08      	lsrs	r0, r1, #16
 8003ef6:	fa1c fc81 	uxtah	ip, ip, r1
 8003efa:	4471      	add	r1, lr
 8003efc:	eb00 402c 	add.w	r0, r0, ip, asr #16
 8003f00:	b289      	uxth	r1, r1
 8003f02:	ea41 4100 	orr.w	r1, r1, r0, lsl #16
 8003f06:	f846 1b04 	str.w	r1, [r6], #4
 8003f0a:	ea4f 4c20 	mov.w	ip, r0, asr #16
 8003f0e:	e7dd      	b.n	8003ecc <__mdiff+0xd4>
 8003f10:	3f01      	subs	r7, #1
 8003f12:	e7e7      	b.n	8003ee4 <__mdiff+0xec>
 8003f14:	080049e9 	.word	0x080049e9
 8003f18:	08004a0b 	.word	0x08004a0b

08003f1c <__d2b>:
 8003f1c:	e92d 4373 	stmdb	sp!, {r0, r1, r4, r5, r6, r8, r9, lr}
 8003f20:	2101      	movs	r1, #1
 8003f22:	9e08      	ldr	r6, [sp, #32]
 8003f24:	4690      	mov	r8, r2
 8003f26:	4699      	mov	r9, r3
 8003f28:	f7ff fcd0 	bl	80038cc <_Balloc>
 8003f2c:	4604      	mov	r4, r0
 8003f2e:	b930      	cbnz	r0, 8003f3e <__d2b+0x22>
 8003f30:	4602      	mov	r2, r0
 8003f32:	4b24      	ldr	r3, [pc, #144]	@ (8003fc4 <__d2b+0xa8>)
 8003f34:	4824      	ldr	r0, [pc, #144]	@ (8003fc8 <__d2b+0xac>)
 8003f36:	f240 310f 	movw	r1, #783	@ 0x30f
 8003f3a:	f000 f927 	bl	800418c <__assert_func>
 8003f3e:	f3c9 550a 	ubfx	r5, r9, #20, #11
 8003f42:	f3c9 0313 	ubfx	r3, r9, #0, #20
 8003f46:	b10d      	cbz	r5, 8003f4c <__d2b+0x30>
 8003f48:	f443 1380 	orr.w	r3, r3, #1048576	@ 0x100000
 8003f4c:	9301      	str	r3, [sp, #4]
 8003f4e:	f1b8 0300 	subs.w	r3, r8, #0
 8003f52:	d024      	beq.n	8003f9e <__d2b+0x82>
 8003f54:	4668      	mov	r0, sp
 8003f56:	9300      	str	r3, [sp, #0]
 8003f58:	f7ff fd7f 	bl	8003a5a <__lo0bits>
 8003f5c:	e9dd 1200 	ldrd	r1, r2, [sp]
 8003f60:	b1d8      	cbz	r0, 8003f9a <__d2b+0x7e>
 8003f62:	f1c0 0320 	rsb	r3, r0, #32
 8003f66:	fa02 f303 	lsl.w	r3, r2, r3
 8003f6a:	430b      	orrs	r3, r1
 8003f6c:	40c2      	lsrs	r2, r0
 8003f6e:	6163      	str	r3, [r4, #20]
 8003f70:	9201      	str	r2, [sp, #4]
 8003f72:	9b01      	ldr	r3, [sp, #4]
 8003f74:	61a3      	str	r3, [r4, #24]
 8003f76:	2b00      	cmp	r3, #0
 8003f78:	bf0c      	ite	eq
 8003f7a:	2201      	moveq	r2, #1
 8003f7c:	2202      	movne	r2, #2
 8003f7e:	6122      	str	r2, [r4, #16]
 8003f80:	b1ad      	cbz	r5, 8003fae <__d2b+0x92>
 8003f82:	f2a5 4533 	subw	r5, r5, #1075	@ 0x433
 8003f86:	4405      	add	r5, r0
 8003f88:	6035      	str	r5, [r6, #0]
 8003f8a:	f1c0 0035 	rsb	r0, r0, #53	@ 0x35
 8003f8e:	9b09      	ldr	r3, [sp, #36]	@ 0x24
 8003f90:	6018      	str	r0, [r3, #0]
 8003f92:	4620      	mov	r0, r4
 8003f94:	b002      	add	sp, #8
 8003f96:	e8bd 8370 	ldmia.w	sp!, {r4, r5, r6, r8, r9, pc}
 8003f9a:	6161      	str	r1, [r4, #20]
 8003f9c:	e7e9      	b.n	8003f72 <__d2b+0x56>
 8003f9e:	a801      	add	r0, sp, #4
 8003fa0:	f7ff fd5b 	bl	8003a5a <__lo0bits>
 8003fa4:	9b01      	ldr	r3, [sp, #4]
 8003fa6:	6163      	str	r3, [r4, #20]
 8003fa8:	3020      	adds	r0, #32
 8003faa:	2201      	movs	r2, #1
 8003fac:	e7e7      	b.n	8003f7e <__d2b+0x62>
 8003fae:	eb04 0382 	add.w	r3, r4, r2, lsl #2
 8003fb2:	f2a0 4032 	subw	r0, r0, #1074	@ 0x432
 8003fb6:	6030      	str	r0, [r6, #0]
 8003fb8:	6918      	ldr	r0, [r3, #16]
 8003fba:	f7ff fd2f 	bl	8003a1c <__hi0bits>
 8003fbe:	ebc0 1042 	rsb	r0, r0, r2, lsl #5
 8003fc2:	e7e4      	b.n	8003f8e <__d2b+0x72>
 8003fc4:	080049e9 	.word	0x080049e9
 8003fc8:	08004a0b 	.word	0x08004a0b

08003fcc <__sread>:
 8003fcc:	b510      	push	{r4, lr}
 8003fce:	460c      	mov	r4, r1
 8003fd0:	f9b1 100e 	ldrsh.w	r1, [r1, #14]
 8003fd4:	f000 f8a8 	bl	8004128 <_read_r>
 8003fd8:	2800      	cmp	r0, #0
 8003fda:	bfab      	itete	ge
 8003fdc:	6d63      	ldrge	r3, [r4, #84]	@ 0x54
 8003fde:	89a3      	ldrhlt	r3, [r4, #12]
 8003fe0:	181b      	addge	r3, r3, r0
 8003fe2:	f423 5380 	biclt.w	r3, r3, #4096	@ 0x1000
 8003fe6:	bfac      	ite	ge
 8003fe8:	6563      	strge	r3, [r4, #84]	@ 0x54
 8003fea:	81a3      	strhlt	r3, [r4, #12]
 8003fec:	bd10      	pop	{r4, pc}

08003fee <__swrite>:
 8003fee:	e92d 41f0 	stmdb	sp!, {r4, r5, r6, r7, r8, lr}
 8003ff2:	461f      	mov	r7, r3
 8003ff4:	898b      	ldrh	r3, [r1, #12]
 8003ff6:	05db      	lsls	r3, r3, #23
 8003ff8:	4605      	mov	r5, r0
 8003ffa:	460c      	mov	r4, r1
 8003ffc:	4616      	mov	r6, r2
 8003ffe:	d505      	bpl.n	800400c <__swrite+0x1e>
 8004000:	f9b1 100e 	ldrsh.w	r1, [r1, #14]
 8004004:	2302      	movs	r3, #2
 8004006:	2200      	movs	r2, #0
 8004008:	f000 f87c 	bl	8004104 <_lseek_r>
 800400c:	89a3      	ldrh	r3, [r4, #12]
 800400e:	f9b4 100e 	ldrsh.w	r1, [r4, #14]
 8004012:	f423 5380 	bic.w	r3, r3, #4096	@ 0x1000
 8004016:	81a3      	strh	r3, [r4, #12]
 8004018:	4632      	mov	r2, r6
 800401a:	463b      	mov	r3, r7
 800401c:	4628      	mov	r0, r5
 800401e:	e8bd 41f0 	ldmia.w	sp!, {r4, r5, r6, r7, r8, lr}
 8004022:	f000 b893 	b.w	800414c <_write_r>

08004026 <__sseek>:
 8004026:	b510      	push	{r4, lr}
 8004028:	460c      	mov	r4, r1
 800402a:	f9b1 100e 	ldrsh.w	r1, [r1, #14]
 800402e:	f000 f869 	bl	8004104 <_lseek_r>
 8004032:	1c43      	adds	r3, r0, #1
 8004034:	89a3      	ldrh	r3, [r4, #12]
 8004036:	bf15      	itete	ne
 8004038:	6560      	strne	r0, [r4, #84]	@ 0x54
 800403a:	f423 5380 	biceq.w	r3, r3, #4096	@ 0x1000
 800403e:	f443 5380 	orrne.w	r3, r3, #4096	@ 0x1000
 8004042:	81a3      	strheq	r3, [r4, #12]
 8004044:	bf18      	it	ne
 8004046:	81a3      	strhne	r3, [r4, #12]
 8004048:	bd10      	pop	{r4, pc}

0800404a <__sclose>:
 800404a:	f9b1 100e 	ldrsh.w	r1, [r1, #14]
 800404e:	f000 b849 	b.w	80040e4 <_close_r>

08004052 <_realloc_r>:
 8004052:	e92d 41f0 	stmdb	sp!, {r4, r5, r6, r7, r8, lr}
 8004056:	4680      	mov	r8, r0
 8004058:	4615      	mov	r5, r2
 800405a:	460c      	mov	r4, r1
 800405c:	b921      	cbnz	r1, 8004068 <_realloc_r+0x16>
 800405e:	e8bd 41f0 	ldmia.w	sp!, {r4, r5, r6, r7, r8, lr}
 8004062:	4611      	mov	r1, r2
 8004064:	f7fe b852 	b.w	800210c <_malloc_r>
 8004068:	b92a      	cbnz	r2, 8004076 <_realloc_r+0x24>
 800406a:	f7ff f9e5 	bl	8003438 <_free_r>
 800406e:	2400      	movs	r4, #0
 8004070:	4620      	mov	r0, r4
 8004072:	e8bd 81f0 	ldmia.w	sp!, {r4, r5, r6, r7, r8, pc}
 8004076:	f000 f8cd 	bl	8004214 <_malloc_usable_size_r>
 800407a:	4285      	cmp	r5, r0
 800407c:	4606      	mov	r6, r0
 800407e:	d802      	bhi.n	8004086 <_realloc_r+0x34>
 8004080:	ebb5 0f50 	cmp.w	r5, r0, lsr #1
 8004084:	d8f4      	bhi.n	8004070 <_realloc_r+0x1e>
 8004086:	4629      	mov	r1, r5
 8004088:	4640      	mov	r0, r8
 800408a:	f7fe f83f 	bl	800210c <_malloc_r>
 800408e:	4607      	mov	r7, r0
 8004090:	2800      	cmp	r0, #0
 8004092:	d0ec      	beq.n	800406e <_realloc_r+0x1c>
 8004094:	42b5      	cmp	r5, r6
 8004096:	462a      	mov	r2, r5
 8004098:	4621      	mov	r1, r4
 800409a:	bf28      	it	cs
 800409c:	4632      	movcs	r2, r6
 800409e:	f000 f867 	bl	8004170 <memcpy>
 80040a2:	4621      	mov	r1, r4
 80040a4:	4640      	mov	r0, r8
 80040a6:	f7ff f9c7 	bl	8003438 <_free_r>
 80040aa:	463c      	mov	r4, r7
 80040ac:	e7e0      	b.n	8004070 <_realloc_r+0x1e>

080040ae <memmove>:
 80040ae:	4288      	cmp	r0, r1
 80040b0:	b510      	push	{r4, lr}
 80040b2:	eb01 0402 	add.w	r4, r1, r2
 80040b6:	d902      	bls.n	80040be <memmove+0x10>
 80040b8:	4284      	cmp	r4, r0
 80040ba:	4623      	mov	r3, r4
 80040bc:	d807      	bhi.n	80040ce <memmove+0x20>
 80040be:	1e43      	subs	r3, r0, #1
 80040c0:	42a1      	cmp	r1, r4
 80040c2:	d008      	beq.n	80040d6 <memmove+0x28>
 80040c4:	f811 2b01 	ldrb.w	r2, [r1], #1
 80040c8:	f803 2f01 	strb.w	r2, [r3, #1]!
 80040cc:	e7f8      	b.n	80040c0 <memmove+0x12>
 80040ce:	4402      	add	r2, r0
 80040d0:	4601      	mov	r1, r0
 80040d2:	428a      	cmp	r2, r1
 80040d4:	d100      	bne.n	80040d8 <memmove+0x2a>
 80040d6:	bd10      	pop	{r4, pc}
 80040d8:	f813 4d01 	ldrb.w	r4, [r3, #-1]!
 80040dc:	f802 4d01 	strb.w	r4, [r2, #-1]!
 80040e0:	e7f7      	b.n	80040d2 <memmove+0x24>
	...

080040e4 <_close_r>:
 80040e4:	b538      	push	{r3, r4, r5, lr}
 80040e6:	4d06      	ldr	r5, [pc, #24]	@ (8004100 <_close_r+0x1c>)
 80040e8:	2300      	movs	r3, #0
 80040ea:	4604      	mov	r4, r0
 80040ec:	4608      	mov	r0, r1
 80040ee:	602b      	str	r3, [r5, #0]
 80040f0:	f7fd fc87 	bl	8001a02 <_close>
 80040f4:	1c43      	adds	r3, r0, #1
 80040f6:	d102      	bne.n	80040fe <_close_r+0x1a>
 80040f8:	682b      	ldr	r3, [r5, #0]
 80040fa:	b103      	cbz	r3, 80040fe <_close_r+0x1a>
 80040fc:	6023      	str	r3, [r4, #0]
 80040fe:	bd38      	pop	{r3, r4, r5, pc}
 8004100:	20000600 	.word	0x20000600

08004104 <_lseek_r>:
 8004104:	b538      	push	{r3, r4, r5, lr}
 8004106:	4d07      	ldr	r5, [pc, #28]	@ (8004124 <_lseek_r+0x20>)
 8004108:	4604      	mov	r4, r0
 800410a:	4608      	mov	r0, r1
 800410c:	4611      	mov	r1, r2
 800410e:	2200      	movs	r2, #0
 8004110:	602a      	str	r2, [r5, #0]
 8004112:	461a      	mov	r2, r3
 8004114:	f7fd fc99 	bl	8001a4a <_lseek>
 8004118:	1c43      	adds	r3, r0, #1
 800411a:	d102      	bne.n	8004122 <_lseek_r+0x1e>
 800411c:	682b      	ldr	r3, [r5, #0]
 800411e:	b103      	cbz	r3, 8004122 <_lseek_r+0x1e>
 8004120:	6023      	str	r3, [r4, #0]
 8004122:	bd38      	pop	{r3, r4, r5, pc}
 8004124:	20000600 	.word	0x20000600

08004128 <_read_r>:
 8004128:	b538      	push	{r3, r4, r5, lr}
 800412a:	4d07      	ldr	r5, [pc, #28]	@ (8004148 <_read_r+0x20>)
 800412c:	4604      	mov	r4, r0
 800412e:	4608      	mov	r0, r1
 8004130:	4611      	mov	r1, r2
 8004132:	2200      	movs	r2, #0
 8004134:	602a      	str	r2, [r5, #0]
 8004136:	461a      	mov	r2, r3
 8004138:	f7fd fc2a 	bl	8001990 <_read>
 800413c:	1c43      	adds	r3, r0, #1
 800413e:	d102      	bne.n	8004146 <_read_r+0x1e>
 8004140:	682b      	ldr	r3, [r5, #0]
 8004142:	b103      	cbz	r3, 8004146 <_read_r+0x1e>
 8004144:	6023      	str	r3, [r4, #0]
 8004146:	bd38      	pop	{r3, r4, r5, pc}
 8004148:	20000600 	.word	0x20000600

0800414c <_write_r>:
 800414c:	b538      	push	{r3, r4, r5, lr}
 800414e:	4d07      	ldr	r5, [pc, #28]	@ (800416c <_write_r+0x20>)
 8004150:	4604      	mov	r4, r0
 8004152:	4608      	mov	r0, r1
 8004154:	4611      	mov	r1, r2
 8004156:	2200      	movs	r2, #0
 8004158:	602a      	str	r2, [r5, #0]
 800415a:	461a      	mov	r2, r3
 800415c:	f7fd fc35 	bl	80019ca <_write>
 8004160:	1c43      	adds	r3, r0, #1
 8004162:	d102      	bne.n	800416a <_write_r+0x1e>
 8004164:	682b      	ldr	r3, [r5, #0]
 8004166:	b103      	cbz	r3, 800416a <_write_r+0x1e>
 8004168:	6023      	str	r3, [r4, #0]
 800416a:	bd38      	pop	{r3, r4, r5, pc}
 800416c:	20000600 	.word	0x20000600

08004170 <memcpy>:
 8004170:	440a      	add	r2, r1
 8004172:	4291      	cmp	r1, r2
 8004174:	f100 33ff 	add.w	r3, r0, #4294967295	@ 0xffffffff
 8004178:	d100      	bne.n	800417c <memcpy+0xc>
 800417a:	4770      	bx	lr
 800417c:	b510      	push	{r4, lr}
 800417e:	f811 4b01 	ldrb.w	r4, [r1], #1
 8004182:	f803 4f01 	strb.w	r4, [r3, #1]!
 8004186:	4291      	cmp	r1, r2
 8004188:	d1f9      	bne.n	800417e <memcpy+0xe>
 800418a:	bd10      	pop	{r4, pc}

0800418c <__assert_func>:
 800418c:	b51f      	push	{r0, r1, r2, r3, r4, lr}
 800418e:	4614      	mov	r4, r2
 8004190:	461a      	mov	r2, r3
 8004192:	4b09      	ldr	r3, [pc, #36]	@ (80041b8 <__assert_func+0x2c>)
 8004194:	681b      	ldr	r3, [r3, #0]
 8004196:	4605      	mov	r5, r0
 8004198:	68d8      	ldr	r0, [r3, #12]
 800419a:	b954      	cbnz	r4, 80041b2 <__assert_func+0x26>
 800419c:	4b07      	ldr	r3, [pc, #28]	@ (80041bc <__assert_func+0x30>)
 800419e:	461c      	mov	r4, r3
 80041a0:	e9cd 3401 	strd	r3, r4, [sp, #4]
 80041a4:	9100      	str	r1, [sp, #0]
 80041a6:	462b      	mov	r3, r5
 80041a8:	4905      	ldr	r1, [pc, #20]	@ (80041c0 <__assert_func+0x34>)
 80041aa:	f000 f83b 	bl	8004224 <fiprintf>
 80041ae:	f000 f858 	bl	8004262 <abort>
 80041b2:	4b04      	ldr	r3, [pc, #16]	@ (80041c4 <__assert_func+0x38>)
 80041b4:	e7f4      	b.n	80041a0 <__assert_func+0x14>
 80041b6:	bf00      	nop
 80041b8:	20000040 	.word	0x20000040
 80041bc:	08004ca6 	.word	0x08004ca6
 80041c0:	08004c78 	.word	0x08004c78
 80041c4:	08004c6b 	.word	0x08004c6b

080041c8 <_calloc_r>:
 80041c8:	b570      	push	{r4, r5, r6, lr}
 80041ca:	fba1 5402 	umull	r5, r4, r1, r2
 80041ce:	b93c      	cbnz	r4, 80041e0 <_calloc_r+0x18>
 80041d0:	4629      	mov	r1, r5
 80041d2:	f7fd ff9b 	bl	800210c <_malloc_r>
 80041d6:	4606      	mov	r6, r0
 80041d8:	b928      	cbnz	r0, 80041e6 <_calloc_r+0x1e>
 80041da:	2600      	movs	r6, #0
 80041dc:	4630      	mov	r0, r6
 80041de:	bd70      	pop	{r4, r5, r6, pc}
 80041e0:	220c      	movs	r2, #12
 80041e2:	6002      	str	r2, [r0, #0]
 80041e4:	e7f9      	b.n	80041da <_calloc_r+0x12>
 80041e6:	462a      	mov	r2, r5
 80041e8:	4621      	mov	r1, r4
 80041ea:	f7fe fa8b 	bl	8002704 <memset>
 80041ee:	e7f5      	b.n	80041dc <_calloc_r+0x14>

080041f0 <__ascii_mbtowc>:
 80041f0:	b082      	sub	sp, #8
 80041f2:	b901      	cbnz	r1, 80041f6 <__ascii_mbtowc+0x6>
 80041f4:	a901      	add	r1, sp, #4
 80041f6:	b142      	cbz	r2, 800420a <__ascii_mbtowc+0x1a>
 80041f8:	b14b      	cbz	r3, 800420e <__ascii_mbtowc+0x1e>
 80041fa:	7813      	ldrb	r3, [r2, #0]
 80041fc:	600b      	str	r3, [r1, #0]
 80041fe:	7812      	ldrb	r2, [r2, #0]
 8004200:	1e10      	subs	r0, r2, #0
 8004202:	bf18      	it	ne
 8004204:	2001      	movne	r0, #1
 8004206:	b002      	add	sp, #8
 8004208:	4770      	bx	lr
 800420a:	4610      	mov	r0, r2
 800420c:	e7fb      	b.n	8004206 <__ascii_mbtowc+0x16>
 800420e:	f06f 0001 	mvn.w	r0, #1
 8004212:	e7f8      	b.n	8004206 <__ascii_mbtowc+0x16>

08004214 <_malloc_usable_size_r>:
 8004214:	f851 3c04 	ldr.w	r3, [r1, #-4]
 8004218:	1f18      	subs	r0, r3, #4
 800421a:	2b00      	cmp	r3, #0
 800421c:	bfbc      	itt	lt
 800421e:	580b      	ldrlt	r3, [r1, r0]
 8004220:	18c0      	addlt	r0, r0, r3
 8004222:	4770      	bx	lr

08004224 <fiprintf>:
 8004224:	b40e      	push	{r1, r2, r3}
 8004226:	b503      	push	{r0, r1, lr}
 8004228:	4601      	mov	r1, r0
 800422a:	ab03      	add	r3, sp, #12
 800422c:	4805      	ldr	r0, [pc, #20]	@ (8004244 <fiprintf+0x20>)
 800422e:	f853 2b04 	ldr.w	r2, [r3], #4
 8004232:	6800      	ldr	r0, [r0, #0]
 8004234:	9301      	str	r3, [sp, #4]
 8004236:	f000 f843 	bl	80042c0 <_vfiprintf_r>
 800423a:	b002      	add	sp, #8
 800423c:	f85d eb04 	ldr.w	lr, [sp], #4
 8004240:	b003      	add	sp, #12
 8004242:	4770      	bx	lr
 8004244:	20000040 	.word	0x20000040

08004248 <__ascii_wctomb>:
 8004248:	4603      	mov	r3, r0
 800424a:	4608      	mov	r0, r1
 800424c:	b141      	cbz	r1, 8004260 <__ascii_wctomb+0x18>
 800424e:	2aff      	cmp	r2, #255	@ 0xff
 8004250:	d904      	bls.n	800425c <__ascii_wctomb+0x14>
 8004252:	228a      	movs	r2, #138	@ 0x8a
 8004254:	601a      	str	r2, [r3, #0]
 8004256:	f04f 30ff 	mov.w	r0, #4294967295	@ 0xffffffff
 800425a:	4770      	bx	lr
 800425c:	700a      	strb	r2, [r1, #0]
 800425e:	2001      	movs	r0, #1
 8004260:	4770      	bx	lr

08004262 <abort>:
 8004262:	b508      	push	{r3, lr}
 8004264:	2006      	movs	r0, #6
 8004266:	f000 fa83 	bl	8004770 <raise>
 800426a:	2001      	movs	r0, #1
 800426c:	f7fd fb85 	bl	800197a <_exit>

08004270 <__sfputc_r>:
 8004270:	6893      	ldr	r3, [r2, #8]
 8004272:	3b01      	subs	r3, #1
 8004274:	2b00      	cmp	r3, #0
 8004276:	b410      	push	{r4}
 8004278:	6093      	str	r3, [r2, #8]
 800427a:	da07      	bge.n	800428c <__sfputc_r+0x1c>
 800427c:	6994      	ldr	r4, [r2, #24]
 800427e:	42a3      	cmp	r3, r4
 8004280:	db01      	blt.n	8004286 <__sfputc_r+0x16>
 8004282:	290a      	cmp	r1, #10
 8004284:	d102      	bne.n	800428c <__sfputc_r+0x1c>
 8004286:	bc10      	pop	{r4}
 8004288:	f000 b932 	b.w	80044f0 <__swbuf_r>
 800428c:	6813      	ldr	r3, [r2, #0]
 800428e:	1c58      	adds	r0, r3, #1
 8004290:	6010      	str	r0, [r2, #0]
 8004292:	7019      	strb	r1, [r3, #0]
 8004294:	4608      	mov	r0, r1
 8004296:	bc10      	pop	{r4}
 8004298:	4770      	bx	lr

0800429a <__sfputs_r>:
 800429a:	b5f8      	push	{r3, r4, r5, r6, r7, lr}
 800429c:	4606      	mov	r6, r0
 800429e:	460f      	mov	r7, r1
 80042a0:	4614      	mov	r4, r2
 80042a2:	18d5      	adds	r5, r2, r3
 80042a4:	42ac      	cmp	r4, r5
 80042a6:	d101      	bne.n	80042ac <__sfputs_r+0x12>
 80042a8:	2000      	movs	r0, #0
 80042aa:	e007      	b.n	80042bc <__sfputs_r+0x22>
 80042ac:	f814 1b01 	ldrb.w	r1, [r4], #1
 80042b0:	463a      	mov	r2, r7
 80042b2:	4630      	mov	r0, r6
 80042b4:	f7ff ffdc 	bl	8004270 <__sfputc_r>
 80042b8:	1c43      	adds	r3, r0, #1
 80042ba:	d1f3      	bne.n	80042a4 <__sfputs_r+0xa>
 80042bc:	bdf8      	pop	{r3, r4, r5, r6, r7, pc}
	...

080042c0 <_vfiprintf_r>:
 80042c0:	e92d 4ff0 	stmdb	sp!, {r4, r5, r6, r7, r8, r9, sl, fp, lr}
 80042c4:	460d      	mov	r5, r1
 80042c6:	b09d      	sub	sp, #116	@ 0x74
 80042c8:	4614      	mov	r4, r2
 80042ca:	4698      	mov	r8, r3
 80042cc:	4606      	mov	r6, r0
 80042ce:	b118      	cbz	r0, 80042d8 <_vfiprintf_r+0x18>
 80042d0:	6a03      	ldr	r3, [r0, #32]
 80042d2:	b90b      	cbnz	r3, 80042d8 <_vfiprintf_r+0x18>
 80042d4:	f7fe f9e0 	bl	8002698 <__sinit>
 80042d8:	6e6b      	ldr	r3, [r5, #100]	@ 0x64
 80042da:	07d9      	lsls	r1, r3, #31
 80042dc:	d405      	bmi.n	80042ea <_vfiprintf_r+0x2a>
 80042de:	89ab      	ldrh	r3, [r5, #12]
 80042e0:	059a      	lsls	r2, r3, #22
 80042e2:	d402      	bmi.n	80042ea <_vfiprintf_r+0x2a>
 80042e4:	6da8      	ldr	r0, [r5, #88]	@ 0x58
 80042e6:	f7fe fa54 	bl	8002792 <__retarget_lock_acquire_recursive>
 80042ea:	89ab      	ldrh	r3, [r5, #12]
 80042ec:	071b      	lsls	r3, r3, #28
 80042ee:	d501      	bpl.n	80042f4 <_vfiprintf_r+0x34>
 80042f0:	692b      	ldr	r3, [r5, #16]
 80042f2:	b99b      	cbnz	r3, 800431c <_vfiprintf_r+0x5c>
 80042f4:	4629      	mov	r1, r5
 80042f6:	4630      	mov	r0, r6
 80042f8:	f000 f938 	bl	800456c <__swsetup_r>
 80042fc:	b170      	cbz	r0, 800431c <_vfiprintf_r+0x5c>
 80042fe:	6e6b      	ldr	r3, [r5, #100]	@ 0x64
 8004300:	07dc      	lsls	r4, r3, #31
 8004302:	d504      	bpl.n	800430e <_vfiprintf_r+0x4e>
 8004304:	f04f 30ff 	mov.w	r0, #4294967295	@ 0xffffffff
 8004308:	b01d      	add	sp, #116	@ 0x74
 800430a:	e8bd 8ff0 	ldmia.w	sp!, {r4, r5, r6, r7, r8, r9, sl, fp, pc}
 800430e:	89ab      	ldrh	r3, [r5, #12]
 8004310:	0598      	lsls	r0, r3, #22
 8004312:	d4f7      	bmi.n	8004304 <_vfiprintf_r+0x44>
 8004314:	6da8      	ldr	r0, [r5, #88]	@ 0x58
 8004316:	f7fe fa3d 	bl	8002794 <__retarget_lock_release_recursive>
 800431a:	e7f3      	b.n	8004304 <_vfiprintf_r+0x44>
 800431c:	2300      	movs	r3, #0
 800431e:	9309      	str	r3, [sp, #36]	@ 0x24
 8004320:	2320      	movs	r3, #32
 8004322:	f88d 3029 	strb.w	r3, [sp, #41]	@ 0x29
 8004326:	f8cd 800c 	str.w	r8, [sp, #12]
 800432a:	2330      	movs	r3, #48	@ 0x30
 800432c:	f8df 81ac 	ldr.w	r8, [pc, #428]	@ 80044dc <_vfiprintf_r+0x21c>
 8004330:	f88d 302a 	strb.w	r3, [sp, #42]	@ 0x2a
 8004334:	f04f 0901 	mov.w	r9, #1
 8004338:	4623      	mov	r3, r4
 800433a:	469a      	mov	sl, r3
 800433c:	f813 2b01 	ldrb.w	r2, [r3], #1
 8004340:	b10a      	cbz	r2, 8004346 <_vfiprintf_r+0x86>
 8004342:	2a25      	cmp	r2, #37	@ 0x25
 8004344:	d1f9      	bne.n	800433a <_vfiprintf_r+0x7a>
 8004346:	ebba 0b04 	subs.w	fp, sl, r4
 800434a:	d00b      	beq.n	8004364 <_vfiprintf_r+0xa4>
 800434c:	465b      	mov	r3, fp
 800434e:	4622      	mov	r2, r4
 8004350:	4629      	mov	r1, r5
 8004352:	4630      	mov	r0, r6
 8004354:	f7ff ffa1 	bl	800429a <__sfputs_r>
 8004358:	3001      	adds	r0, #1
 800435a:	f000 80a7 	beq.w	80044ac <_vfiprintf_r+0x1ec>
 800435e:	9a09      	ldr	r2, [sp, #36]	@ 0x24
 8004360:	445a      	add	r2, fp
 8004362:	9209      	str	r2, [sp, #36]	@ 0x24
 8004364:	f89a 3000 	ldrb.w	r3, [sl]
 8004368:	2b00      	cmp	r3, #0
 800436a:	f000 809f 	beq.w	80044ac <_vfiprintf_r+0x1ec>
 800436e:	2300      	movs	r3, #0
 8004370:	f04f 32ff 	mov.w	r2, #4294967295	@ 0xffffffff
 8004374:	e9cd 2305 	strd	r2, r3, [sp, #20]
 8004378:	f10a 0a01 	add.w	sl, sl, #1
 800437c:	9304      	str	r3, [sp, #16]
 800437e:	9307      	str	r3, [sp, #28]
 8004380:	f88d 3053 	strb.w	r3, [sp, #83]	@ 0x53
 8004384:	931a      	str	r3, [sp, #104]	@ 0x68
 8004386:	4654      	mov	r4, sl
 8004388:	2205      	movs	r2, #5
 800438a:	f814 1b01 	ldrb.w	r1, [r4], #1
 800438e:	4853      	ldr	r0, [pc, #332]	@ (80044dc <_vfiprintf_r+0x21c>)
 8004390:	f7fb ff26 	bl	80001e0 <memchr>
 8004394:	9a04      	ldr	r2, [sp, #16]
 8004396:	b9d8      	cbnz	r0, 80043d0 <_vfiprintf_r+0x110>
 8004398:	06d1      	lsls	r1, r2, #27
 800439a:	bf44      	itt	mi
 800439c:	2320      	movmi	r3, #32
 800439e:	f88d 3053 	strbmi.w	r3, [sp, #83]	@ 0x53
 80043a2:	0713      	lsls	r3, r2, #28
 80043a4:	bf44      	itt	mi
 80043a6:	232b      	movmi	r3, #43	@ 0x2b
 80043a8:	f88d 3053 	strbmi.w	r3, [sp, #83]	@ 0x53
 80043ac:	f89a 3000 	ldrb.w	r3, [sl]
 80043b0:	2b2a      	cmp	r3, #42	@ 0x2a
 80043b2:	d015      	beq.n	80043e0 <_vfiprintf_r+0x120>
 80043b4:	9a07      	ldr	r2, [sp, #28]
 80043b6:	4654      	mov	r4, sl
 80043b8:	2000      	movs	r0, #0
 80043ba:	f04f 0c0a 	mov.w	ip, #10
 80043be:	4621      	mov	r1, r4
 80043c0:	f811 3b01 	ldrb.w	r3, [r1], #1
 80043c4:	3b30      	subs	r3, #48	@ 0x30
 80043c6:	2b09      	cmp	r3, #9
 80043c8:	d94b      	bls.n	8004462 <_vfiprintf_r+0x1a2>
 80043ca:	b1b0      	cbz	r0, 80043fa <_vfiprintf_r+0x13a>
 80043cc:	9207      	str	r2, [sp, #28]
 80043ce:	e014      	b.n	80043fa <_vfiprintf_r+0x13a>
 80043d0:	eba0 0308 	sub.w	r3, r0, r8
 80043d4:	fa09 f303 	lsl.w	r3, r9, r3
 80043d8:	4313      	orrs	r3, r2
 80043da:	9304      	str	r3, [sp, #16]
 80043dc:	46a2      	mov	sl, r4
 80043de:	e7d2      	b.n	8004386 <_vfiprintf_r+0xc6>
 80043e0:	9b03      	ldr	r3, [sp, #12]
 80043e2:	1d19      	adds	r1, r3, #4
 80043e4:	681b      	ldr	r3, [r3, #0]
 80043e6:	9103      	str	r1, [sp, #12]
 80043e8:	2b00      	cmp	r3, #0
 80043ea:	bfbb      	ittet	lt
 80043ec:	425b      	neglt	r3, r3
 80043ee:	f042 0202 	orrlt.w	r2, r2, #2
 80043f2:	9307      	strge	r3, [sp, #28]
 80043f4:	9307      	strlt	r3, [sp, #28]
 80043f6:	bfb8      	it	lt
 80043f8:	9204      	strlt	r2, [sp, #16]
 80043fa:	7823      	ldrb	r3, [r4, #0]
 80043fc:	2b2e      	cmp	r3, #46	@ 0x2e
 80043fe:	d10a      	bne.n	8004416 <_vfiprintf_r+0x156>
 8004400:	7863      	ldrb	r3, [r4, #1]
 8004402:	2b2a      	cmp	r3, #42	@ 0x2a
 8004404:	d132      	bne.n	800446c <_vfiprintf_r+0x1ac>
 8004406:	9b03      	ldr	r3, [sp, #12]
 8004408:	1d1a      	adds	r2, r3, #4
 800440a:	681b      	ldr	r3, [r3, #0]
 800440c:	9203      	str	r2, [sp, #12]
 800440e:	ea43 73e3 	orr.w	r3, r3, r3, asr #31
 8004412:	3402      	adds	r4, #2
 8004414:	9305      	str	r3, [sp, #20]
 8004416:	f8df a0c8 	ldr.w	sl, [pc, #200]	@ 80044e0 <_vfiprintf_r+0x220>
 800441a:	7821      	ldrb	r1, [r4, #0]
 800441c:	2203      	movs	r2, #3
 800441e:	4650      	mov	r0, sl
 8004420:	f7fb fede 	bl	80001e0 <memchr>
 8004424:	b138      	cbz	r0, 8004436 <_vfiprintf_r+0x176>
 8004426:	9b04      	ldr	r3, [sp, #16]
 8004428:	eba0 000a 	sub.w	r0, r0, sl
 800442c:	2240      	movs	r2, #64	@ 0x40
 800442e:	4082      	lsls	r2, r0
 8004430:	4313      	orrs	r3, r2
 8004432:	3401      	adds	r4, #1
 8004434:	9304      	str	r3, [sp, #16]
 8004436:	f814 1b01 	ldrb.w	r1, [r4], #1
 800443a:	482a      	ldr	r0, [pc, #168]	@ (80044e4 <_vfiprintf_r+0x224>)
 800443c:	f88d 1028 	strb.w	r1, [sp, #40]	@ 0x28
 8004440:	2206      	movs	r2, #6
 8004442:	f7fb fecd 	bl	80001e0 <memchr>
 8004446:	2800      	cmp	r0, #0
 8004448:	d03f      	beq.n	80044ca <_vfiprintf_r+0x20a>
 800444a:	4b27      	ldr	r3, [pc, #156]	@ (80044e8 <_vfiprintf_r+0x228>)
 800444c:	bb1b      	cbnz	r3, 8004496 <_vfiprintf_r+0x1d6>
 800444e:	9b03      	ldr	r3, [sp, #12]
 8004450:	3307      	adds	r3, #7
 8004452:	f023 0307 	bic.w	r3, r3, #7
 8004456:	3308      	adds	r3, #8
 8004458:	9303      	str	r3, [sp, #12]
 800445a:	9b09      	ldr	r3, [sp, #36]	@ 0x24
 800445c:	443b      	add	r3, r7
 800445e:	9309      	str	r3, [sp, #36]	@ 0x24
 8004460:	e76a      	b.n	8004338 <_vfiprintf_r+0x78>
 8004462:	fb0c 3202 	mla	r2, ip, r2, r3
 8004466:	460c      	mov	r4, r1
 8004468:	2001      	movs	r0, #1
 800446a:	e7a8      	b.n	80043be <_vfiprintf_r+0xfe>
 800446c:	2300      	movs	r3, #0
 800446e:	3401      	adds	r4, #1
 8004470:	9305      	str	r3, [sp, #20]
 8004472:	4619      	mov	r1, r3
 8004474:	f04f 0c0a 	mov.w	ip, #10
 8004478:	4620      	mov	r0, r4
 800447a:	f810 2b01 	ldrb.w	r2, [r0], #1
 800447e:	3a30      	subs	r2, #48	@ 0x30
 8004480:	2a09      	cmp	r2, #9
 8004482:	d903      	bls.n	800448c <_vfiprintf_r+0x1cc>
 8004484:	2b00      	cmp	r3, #0
 8004486:	d0c6      	beq.n	8004416 <_vfiprintf_r+0x156>
 8004488:	9105      	str	r1, [sp, #20]
 800448a:	e7c4      	b.n	8004416 <_vfiprintf_r+0x156>
 800448c:	fb0c 2101 	mla	r1, ip, r1, r2
 8004490:	4604      	mov	r4, r0
 8004492:	2301      	movs	r3, #1
 8004494:	e7f0      	b.n	8004478 <_vfiprintf_r+0x1b8>
 8004496:	ab03      	add	r3, sp, #12
 8004498:	9300      	str	r3, [sp, #0]
 800449a:	462a      	mov	r2, r5
 800449c:	4b13      	ldr	r3, [pc, #76]	@ (80044ec <_vfiprintf_r+0x22c>)
 800449e:	a904      	add	r1, sp, #16
 80044a0:	4630      	mov	r0, r6
 80044a2:	f7fd fbdd 	bl	8001c60 <_printf_float>
 80044a6:	4607      	mov	r7, r0
 80044a8:	1c78      	adds	r0, r7, #1
 80044aa:	d1d6      	bne.n	800445a <_vfiprintf_r+0x19a>
 80044ac:	6e6b      	ldr	r3, [r5, #100]	@ 0x64
 80044ae:	07d9      	lsls	r1, r3, #31
 80044b0:	d405      	bmi.n	80044be <_vfiprintf_r+0x1fe>
 80044b2:	89ab      	ldrh	r3, [r5, #12]
 80044b4:	059a      	lsls	r2, r3, #22
 80044b6:	d402      	bmi.n	80044be <_vfiprintf_r+0x1fe>
 80044b8:	6da8      	ldr	r0, [r5, #88]	@ 0x58
 80044ba:	f7fe f96b 	bl	8002794 <__retarget_lock_release_recursive>
 80044be:	89ab      	ldrh	r3, [r5, #12]
 80044c0:	065b      	lsls	r3, r3, #25
 80044c2:	f53f af1f 	bmi.w	8004304 <_vfiprintf_r+0x44>
 80044c6:	9809      	ldr	r0, [sp, #36]	@ 0x24
 80044c8:	e71e      	b.n	8004308 <_vfiprintf_r+0x48>
 80044ca:	ab03      	add	r3, sp, #12
 80044cc:	9300      	str	r3, [sp, #0]
 80044ce:	462a      	mov	r2, r5
 80044d0:	4b06      	ldr	r3, [pc, #24]	@ (80044ec <_vfiprintf_r+0x22c>)
 80044d2:	a904      	add	r1, sp, #16
 80044d4:	4630      	mov	r0, r6
 80044d6:	f7fd ff07 	bl	80022e8 <_printf_i>
 80044da:	e7e4      	b.n	80044a6 <_vfiprintf_r+0x1e6>
 80044dc:	080049fa 	.word	0x080049fa
 80044e0:	08004a00 	.word	0x08004a00
 80044e4:	08004a04 	.word	0x08004a04
 80044e8:	08001c61 	.word	0x08001c61
 80044ec:	0800429b 	.word	0x0800429b

080044f0 <__swbuf_r>:
 80044f0:	b5f8      	push	{r3, r4, r5, r6, r7, lr}
 80044f2:	460e      	mov	r6, r1
 80044f4:	4614      	mov	r4, r2
 80044f6:	4605      	mov	r5, r0
 80044f8:	b118      	cbz	r0, 8004502 <__swbuf_r+0x12>
 80044fa:	6a03      	ldr	r3, [r0, #32]
 80044fc:	b90b      	cbnz	r3, 8004502 <__swbuf_r+0x12>
 80044fe:	f7fe f8cb 	bl	8002698 <__sinit>
 8004502:	69a3      	ldr	r3, [r4, #24]
 8004504:	60a3      	str	r3, [r4, #8]
 8004506:	89a3      	ldrh	r3, [r4, #12]
 8004508:	071a      	lsls	r2, r3, #28
 800450a:	d501      	bpl.n	8004510 <__swbuf_r+0x20>
 800450c:	6923      	ldr	r3, [r4, #16]
 800450e:	b943      	cbnz	r3, 8004522 <__swbuf_r+0x32>
 8004510:	4621      	mov	r1, r4
 8004512:	4628      	mov	r0, r5
 8004514:	f000 f82a 	bl	800456c <__swsetup_r>
 8004518:	b118      	cbz	r0, 8004522 <__swbuf_r+0x32>
 800451a:	f04f 37ff 	mov.w	r7, #4294967295	@ 0xffffffff
 800451e:	4638      	mov	r0, r7
 8004520:	bdf8      	pop	{r3, r4, r5, r6, r7, pc}
 8004522:	6823      	ldr	r3, [r4, #0]
 8004524:	6922      	ldr	r2, [r4, #16]
 8004526:	1a98      	subs	r0, r3, r2
 8004528:	6963      	ldr	r3, [r4, #20]
 800452a:	b2f6      	uxtb	r6, r6
 800452c:	4283      	cmp	r3, r0
 800452e:	4637      	mov	r7, r6
 8004530:	dc05      	bgt.n	800453e <__swbuf_r+0x4e>
 8004532:	4621      	mov	r1, r4
 8004534:	4628      	mov	r0, r5
 8004536:	f7ff f9a1 	bl	800387c <_fflush_r>
 800453a:	2800      	cmp	r0, #0
 800453c:	d1ed      	bne.n	800451a <__swbuf_r+0x2a>
 800453e:	68a3      	ldr	r3, [r4, #8]
 8004540:	3b01      	subs	r3, #1
 8004542:	60a3      	str	r3, [r4, #8]
 8004544:	6823      	ldr	r3, [r4, #0]
 8004546:	1c5a      	adds	r2, r3, #1
 8004548:	6022      	str	r2, [r4, #0]
 800454a:	701e      	strb	r6, [r3, #0]
 800454c:	6962      	ldr	r2, [r4, #20]
 800454e:	1c43      	adds	r3, r0, #1
 8004550:	429a      	cmp	r2, r3
 8004552:	d004      	beq.n	800455e <__swbuf_r+0x6e>
 8004554:	89a3      	ldrh	r3, [r4, #12]
 8004556:	07db      	lsls	r3, r3, #31
 8004558:	d5e1      	bpl.n	800451e <__swbuf_r+0x2e>
 800455a:	2e0a      	cmp	r6, #10
 800455c:	d1df      	bne.n	800451e <__swbuf_r+0x2e>
 800455e:	4621      	mov	r1, r4
 8004560:	4628      	mov	r0, r5
 8004562:	f7ff f98b 	bl	800387c <_fflush_r>
 8004566:	2800      	cmp	r0, #0
 8004568:	d0d9      	beq.n	800451e <__swbuf_r+0x2e>
 800456a:	e7d6      	b.n	800451a <__swbuf_r+0x2a>

0800456c <__swsetup_r>:
 800456c:	b538      	push	{r3, r4, r5, lr}
 800456e:	4b29      	ldr	r3, [pc, #164]	@ (8004614 <__swsetup_r+0xa8>)
 8004570:	4605      	mov	r5, r0
 8004572:	6818      	ldr	r0, [r3, #0]
 8004574:	460c      	mov	r4, r1
 8004576:	b118      	cbz	r0, 8004580 <__swsetup_r+0x14>
 8004578:	6a03      	ldr	r3, [r0, #32]
 800457a:	b90b      	cbnz	r3, 8004580 <__swsetup_r+0x14>
 800457c:	f7fe f88c 	bl	8002698 <__sinit>
 8004580:	f9b4 300c 	ldrsh.w	r3, [r4, #12]
 8004584:	0719      	lsls	r1, r3, #28
 8004586:	d422      	bmi.n	80045ce <__swsetup_r+0x62>
 8004588:	06da      	lsls	r2, r3, #27
 800458a:	d407      	bmi.n	800459c <__swsetup_r+0x30>
 800458c:	2209      	movs	r2, #9
 800458e:	602a      	str	r2, [r5, #0]
 8004590:	f043 0340 	orr.w	r3, r3, #64	@ 0x40
 8004594:	81a3      	strh	r3, [r4, #12]
 8004596:	f04f 30ff 	mov.w	r0, #4294967295	@ 0xffffffff
 800459a:	e033      	b.n	8004604 <__swsetup_r+0x98>
 800459c:	0758      	lsls	r0, r3, #29
 800459e:	d512      	bpl.n	80045c6 <__swsetup_r+0x5a>
 80045a0:	6b61      	ldr	r1, [r4, #52]	@ 0x34
 80045a2:	b141      	cbz	r1, 80045b6 <__swsetup_r+0x4a>
 80045a4:	f104 0344 	add.w	r3, r4, #68	@ 0x44
 80045a8:	4299      	cmp	r1, r3
 80045aa:	d002      	beq.n	80045b2 <__swsetup_r+0x46>
 80045ac:	4628      	mov	r0, r5
 80045ae:	f7fe ff43 	bl	8003438 <_free_r>
 80045b2:	2300      	movs	r3, #0
 80045b4:	6363      	str	r3, [r4, #52]	@ 0x34
 80045b6:	89a3      	ldrh	r3, [r4, #12]
 80045b8:	f023 0324 	bic.w	r3, r3, #36	@ 0x24
 80045bc:	81a3      	strh	r3, [r4, #12]
 80045be:	2300      	movs	r3, #0
 80045c0:	6063      	str	r3, [r4, #4]
 80045c2:	6923      	ldr	r3, [r4, #16]
 80045c4:	6023      	str	r3, [r4, #0]
 80045c6:	89a3      	ldrh	r3, [r4, #12]
 80045c8:	f043 0308 	orr.w	r3, r3, #8
 80045cc:	81a3      	strh	r3, [r4, #12]
 80045ce:	6923      	ldr	r3, [r4, #16]
 80045d0:	b94b      	cbnz	r3, 80045e6 <__swsetup_r+0x7a>
 80045d2:	89a3      	ldrh	r3, [r4, #12]
 80045d4:	f403 7320 	and.w	r3, r3, #640	@ 0x280
 80045d8:	f5b3 7f00 	cmp.w	r3, #512	@ 0x200
 80045dc:	d003      	beq.n	80045e6 <__swsetup_r+0x7a>
 80045de:	4621      	mov	r1, r4
 80045e0:	4628      	mov	r0, r5
 80045e2:	f000 f83f 	bl	8004664 <__smakebuf_r>
 80045e6:	f9b4 300c 	ldrsh.w	r3, [r4, #12]
 80045ea:	f013 0201 	ands.w	r2, r3, #1
 80045ee:	d00a      	beq.n	8004606 <__swsetup_r+0x9a>
 80045f0:	2200      	movs	r2, #0
 80045f2:	60a2      	str	r2, [r4, #8]
 80045f4:	6962      	ldr	r2, [r4, #20]
 80045f6:	4252      	negs	r2, r2
 80045f8:	61a2      	str	r2, [r4, #24]
 80045fa:	6922      	ldr	r2, [r4, #16]
 80045fc:	b942      	cbnz	r2, 8004610 <__swsetup_r+0xa4>
 80045fe:	f013 0080 	ands.w	r0, r3, #128	@ 0x80
 8004602:	d1c5      	bne.n	8004590 <__swsetup_r+0x24>
 8004604:	bd38      	pop	{r3, r4, r5, pc}
 8004606:	0799      	lsls	r1, r3, #30
 8004608:	bf58      	it	pl
 800460a:	6962      	ldrpl	r2, [r4, #20]
 800460c:	60a2      	str	r2, [r4, #8]
 800460e:	e7f4      	b.n	80045fa <__swsetup_r+0x8e>
 8004610:	2000      	movs	r0, #0
 8004612:	e7f7      	b.n	8004604 <__swsetup_r+0x98>
 8004614:	20000040 	.word	0x20000040

08004618 <__swhatbuf_r>:
 8004618:	b570      	push	{r4, r5, r6, lr}
 800461a:	460c      	mov	r4, r1
 800461c:	f9b1 100e 	ldrsh.w	r1, [r1, #14]
 8004620:	2900      	cmp	r1, #0
 8004622:	b096      	sub	sp, #88	@ 0x58
 8004624:	4615      	mov	r5, r2
 8004626:	461e      	mov	r6, r3
 8004628:	da0d      	bge.n	8004646 <__swhatbuf_r+0x2e>
 800462a:	89a3      	ldrh	r3, [r4, #12]
 800462c:	f013 0f80 	tst.w	r3, #128	@ 0x80
 8004630:	f04f 0100 	mov.w	r1, #0
 8004634:	bf14      	ite	ne
 8004636:	2340      	movne	r3, #64	@ 0x40
 8004638:	f44f 6380 	moveq.w	r3, #1024	@ 0x400
 800463c:	2000      	movs	r0, #0
 800463e:	6031      	str	r1, [r6, #0]
 8004640:	602b      	str	r3, [r5, #0]
 8004642:	b016      	add	sp, #88	@ 0x58
 8004644:	bd70      	pop	{r4, r5, r6, pc}
 8004646:	466a      	mov	r2, sp
 8004648:	f000 f848 	bl	80046dc <_fstat_r>
 800464c:	2800      	cmp	r0, #0
 800464e:	dbec      	blt.n	800462a <__swhatbuf_r+0x12>
 8004650:	9901      	ldr	r1, [sp, #4]
 8004652:	f401 4170 	and.w	r1, r1, #61440	@ 0xf000
 8004656:	f5a1 5300 	sub.w	r3, r1, #8192	@ 0x2000
 800465a:	4259      	negs	r1, r3
 800465c:	4159      	adcs	r1, r3
 800465e:	f44f 6380 	mov.w	r3, #1024	@ 0x400
 8004662:	e7eb      	b.n	800463c <__swhatbuf_r+0x24>

08004664 <__smakebuf_r>:
 8004664:	898b      	ldrh	r3, [r1, #12]
 8004666:	b5f7      	push	{r0, r1, r2, r4, r5, r6, r7, lr}
 8004668:	079d      	lsls	r5, r3, #30
 800466a:	4606      	mov	r6, r0
 800466c:	460c      	mov	r4, r1
 800466e:	d507      	bpl.n	8004680 <__smakebuf_r+0x1c>
 8004670:	f104 0347 	add.w	r3, r4, #71	@ 0x47
 8004674:	6023      	str	r3, [r4, #0]
 8004676:	6123      	str	r3, [r4, #16]
 8004678:	2301      	movs	r3, #1
 800467a:	6163      	str	r3, [r4, #20]
 800467c:	b003      	add	sp, #12
 800467e:	bdf0      	pop	{r4, r5, r6, r7, pc}
 8004680:	ab01      	add	r3, sp, #4
 8004682:	466a      	mov	r2, sp
 8004684:	f7ff ffc8 	bl	8004618 <__swhatbuf_r>
 8004688:	9f00      	ldr	r7, [sp, #0]
 800468a:	4605      	mov	r5, r0
 800468c:	4639      	mov	r1, r7
 800468e:	4630      	mov	r0, r6
 8004690:	f7fd fd3c 	bl	800210c <_malloc_r>
 8004694:	b948      	cbnz	r0, 80046aa <__smakebuf_r+0x46>
 8004696:	f9b4 300c 	ldrsh.w	r3, [r4, #12]
 800469a:	059a      	lsls	r2, r3, #22
 800469c:	d4ee      	bmi.n	800467c <__smakebuf_r+0x18>
 800469e:	f023 0303 	bic.w	r3, r3, #3
 80046a2:	f043 0302 	orr.w	r3, r3, #2
 80046a6:	81a3      	strh	r3, [r4, #12]
 80046a8:	e7e2      	b.n	8004670 <__smakebuf_r+0xc>
 80046aa:	89a3      	ldrh	r3, [r4, #12]
 80046ac:	6020      	str	r0, [r4, #0]
 80046ae:	f043 0380 	orr.w	r3, r3, #128	@ 0x80
 80046b2:	81a3      	strh	r3, [r4, #12]
 80046b4:	9b01      	ldr	r3, [sp, #4]
 80046b6:	e9c4 0704 	strd	r0, r7, [r4, #16]
 80046ba:	b15b      	cbz	r3, 80046d4 <__smakebuf_r+0x70>
 80046bc:	f9b4 100e 	ldrsh.w	r1, [r4, #14]
 80046c0:	4630      	mov	r0, r6
 80046c2:	f000 f81d 	bl	8004700 <_isatty_r>
 80046c6:	b128      	cbz	r0, 80046d4 <__smakebuf_r+0x70>
 80046c8:	89a3      	ldrh	r3, [r4, #12]
 80046ca:	f023 0303 	bic.w	r3, r3, #3
 80046ce:	f043 0301 	orr.w	r3, r3, #1
 80046d2:	81a3      	strh	r3, [r4, #12]
 80046d4:	89a3      	ldrh	r3, [r4, #12]
 80046d6:	431d      	orrs	r5, r3
 80046d8:	81a5      	strh	r5, [r4, #12]
 80046da:	e7cf      	b.n	800467c <__smakebuf_r+0x18>

080046dc <_fstat_r>:
 80046dc:	b538      	push	{r3, r4, r5, lr}
 80046de:	4d07      	ldr	r5, [pc, #28]	@ (80046fc <_fstat_r+0x20>)
 80046e0:	2300      	movs	r3, #0
 80046e2:	4604      	mov	r4, r0
 80046e4:	4608      	mov	r0, r1
 80046e6:	4611      	mov	r1, r2
 80046e8:	602b      	str	r3, [r5, #0]
 80046ea:	f7fd f995 	bl	8001a18 <_fstat>
 80046ee:	1c43      	adds	r3, r0, #1
 80046f0:	d102      	bne.n	80046f8 <_fstat_r+0x1c>
 80046f2:	682b      	ldr	r3, [r5, #0]
 80046f4:	b103      	cbz	r3, 80046f8 <_fstat_r+0x1c>
 80046f6:	6023      	str	r3, [r4, #0]
 80046f8:	bd38      	pop	{r3, r4, r5, pc}
 80046fa:	bf00      	nop
 80046fc:	20000600 	.word	0x20000600

08004700 <_isatty_r>:
 8004700:	b538      	push	{r3, r4, r5, lr}
 8004702:	4d06      	ldr	r5, [pc, #24]	@ (800471c <_isatty_r+0x1c>)
 8004704:	2300      	movs	r3, #0
 8004706:	4604      	mov	r4, r0
 8004708:	4608      	mov	r0, r1
 800470a:	602b      	str	r3, [r5, #0]
 800470c:	f7fd f993 	bl	8001a36 <_isatty>
 8004710:	1c43      	adds	r3, r0, #1
 8004712:	d102      	bne.n	800471a <_isatty_r+0x1a>
 8004714:	682b      	ldr	r3, [r5, #0]
 8004716:	b103      	cbz	r3, 800471a <_isatty_r+0x1a>
 8004718:	6023      	str	r3, [r4, #0]
 800471a:	bd38      	pop	{r3, r4, r5, pc}
 800471c:	20000600 	.word	0x20000600

08004720 <_raise_r>:
 8004720:	291f      	cmp	r1, #31
 8004722:	b538      	push	{r3, r4, r5, lr}
 8004724:	4605      	mov	r5, r0
 8004726:	460c      	mov	r4, r1
 8004728:	d904      	bls.n	8004734 <_raise_r+0x14>
 800472a:	2316      	movs	r3, #22
 800472c:	6003      	str	r3, [r0, #0]
 800472e:	f04f 30ff 	mov.w	r0, #4294967295	@ 0xffffffff
 8004732:	bd38      	pop	{r3, r4, r5, pc}
 8004734:	6bc2      	ldr	r2, [r0, #60]	@ 0x3c
 8004736:	b112      	cbz	r2, 800473e <_raise_r+0x1e>
 8004738:	f852 3021 	ldr.w	r3, [r2, r1, lsl #2]
 800473c:	b94b      	cbnz	r3, 8004752 <_raise_r+0x32>
 800473e:	4628      	mov	r0, r5
 8004740:	f000 f830 	bl	80047a4 <_getpid_r>
 8004744:	4622      	mov	r2, r4
 8004746:	4601      	mov	r1, r0
 8004748:	4628      	mov	r0, r5
 800474a:	e8bd 4038 	ldmia.w	sp!, {r3, r4, r5, lr}
 800474e:	f000 b817 	b.w	8004780 <_kill_r>
 8004752:	2b01      	cmp	r3, #1
 8004754:	d00a      	beq.n	800476c <_raise_r+0x4c>
 8004756:	1c59      	adds	r1, r3, #1
 8004758:	d103      	bne.n	8004762 <_raise_r+0x42>
 800475a:	2316      	movs	r3, #22
 800475c:	6003      	str	r3, [r0, #0]
 800475e:	2001      	movs	r0, #1
 8004760:	e7e7      	b.n	8004732 <_raise_r+0x12>
 8004762:	2100      	movs	r1, #0
 8004764:	f842 1024 	str.w	r1, [r2, r4, lsl #2]
 8004768:	4620      	mov	r0, r4
 800476a:	4798      	blx	r3
 800476c:	2000      	movs	r0, #0
 800476e:	e7e0      	b.n	8004732 <_raise_r+0x12>

08004770 <raise>:
 8004770:	4b02      	ldr	r3, [pc, #8]	@ (800477c <raise+0xc>)
 8004772:	4601      	mov	r1, r0
 8004774:	6818      	ldr	r0, [r3, #0]
 8004776:	f7ff bfd3 	b.w	8004720 <_raise_r>
 800477a:	bf00      	nop
 800477c:	20000040 	.word	0x20000040

08004780 <_kill_r>:
 8004780:	b538      	push	{r3, r4, r5, lr}
 8004782:	4d07      	ldr	r5, [pc, #28]	@ (80047a0 <_kill_r+0x20>)
 8004784:	2300      	movs	r3, #0
 8004786:	4604      	mov	r4, r0
 8004788:	4608      	mov	r0, r1
 800478a:	4611      	mov	r1, r2
 800478c:	602b      	str	r3, [r5, #0]
 800478e:	f7fd f8e4 	bl	800195a <_kill>
 8004792:	1c43      	adds	r3, r0, #1
 8004794:	d102      	bne.n	800479c <_kill_r+0x1c>
 8004796:	682b      	ldr	r3, [r5, #0]
 8004798:	b103      	cbz	r3, 800479c <_kill_r+0x1c>
 800479a:	6023      	str	r3, [r4, #0]
 800479c:	bd38      	pop	{r3, r4, r5, pc}
 800479e:	bf00      	nop
 80047a0:	20000600 	.word	0x20000600

080047a4 <_getpid_r>:
 80047a4:	f7fd b8d2 	b.w	800194c <_getpid>

080047a8 <_init>:
 80047a8:	b5f8      	push	{r3, r4, r5, r6, r7, lr}
 80047aa:	bf00      	nop
 80047ac:	bcf8      	pop	{r3, r4, r5, r6, r7}
 80047ae:	bc08      	pop	{r3}
 80047b0:	469e      	mov	lr, r3
 80047b2:	4770      	bx	lr

080047b4 <_fini>:
 80047b4:	b5f8      	push	{r3, r4, r5, r6, r7, lr}
 80047b6:	bf00      	nop
 80047b8:	bcf8      	pop	{r3, r4, r5, r6, r7}
 80047ba:	bc08      	pop	{r3}
 80047bc:	469e      	mov	lr, r3
 80047be:	4770      	bx	lr
