
comoen son!!!.elf:     file format elf32-littlearm

Sections:
Idx Name          Size      VMA       LMA       File off  Algn
  0 .isr_vector   00000194  08000000  08000000  00001000  2**0
                  CONTENTS, ALLOC, LOAD, READONLY, DATA
  1 .text         00003830  080001a0  080001a0  000011a0  2**4
                  CONTENTS, ALLOC, LOAD, READONLY, CODE
  2 .rodata       00000400  080039d0  080039d0  000049d0  2**3
                  CONTENTS, ALLOC, LOAD, READONLY, DATA
  3 .ARM.extab    00000000  08003dd0  08003dd0  000051f0  2**0
                  CONTENTS
  4 .ARM          00000008  08003dd0  08003dd0  00004dd0  2**2
                  CONTENTS, ALLOC, LOAD, READONLY, DATA
  5 .preinit_array 00000000  08003dd8  08003dd8  000051f0  2**0
                  CONTENTS, ALLOC, LOAD, DATA
  6 .init_array   00000004  08003dd8  08003dd8  00004dd8  2**2
                  CONTENTS, ALLOC, LOAD, DATA
  7 .fini_array   00000004  08003ddc  08003ddc  00004ddc  2**2
                  CONTENTS, ALLOC, LOAD, DATA
  8 .data         000001f0  20000000  08003de0  00005000  2**2
                  CONTENTS, ALLOC, LOAD, DATA
  9 .ccmram       00000000  10000000  10000000  000051f0  2**0
                  CONTENTS
 10 .bss          000001d8  200001f0  200001f0  000051f0  2**2
                  ALLOC
 11 ._user_heap_stack 00000600  200003c8  200003c8  000051f0  2**0
                  ALLOC
 12 .ARM.attributes 0000002a  00000000  00000000  000051f0  2**0
                  CONTENTS, READONLY
 13 .debug_info   00001261  00000000  00000000  0000521a  2**0
                  CONTENTS, READONLY, DEBUGGING, OCTETS
 14 .debug_abbrev 0000062d  00000000  00000000  0000647b  2**0
                  CONTENTS, READONLY, DEBUGGING, OCTETS
 15 .debug_aranges 00000170  00000000  00000000  00006aa8  2**3
                  CONTENTS, READONLY, DEBUGGING, OCTETS
 16 .debug_rnglists 000000fe  00000000  00000000  00006c18  2**0
                  CONTENTS, READONLY, DEBUGGING, OCTETS
 17 .debug_macro  00016c37  00000000  00000000  00006d16  2**0
                  CONTENTS, READONLY, DEBUGGING, OCTETS
 18 .debug_line   00001bf3  00000000  00000000  0001d94d  2**0
                  CONTENTS, READONLY, DEBUGGING, OCTETS
 19 .debug_str    0007808b  00000000  00000000  0001f540  2**0
                  CONTENTS, READONLY, DEBUGGING, OCTETS
 20 .comment      00000043  00000000  00000000  000975cb  2**0
                  CONTENTS, READONLY
 21 .debug_frame  000014d0  00000000  00000000  00097610  2**2
                  CONTENTS, READONLY, DEBUGGING, OCTETS
 22 .debug_line_str 00000060  00000000  00000000  00098ae0  2**0
                  CONTENTS, READONLY, DEBUGGING, OCTETS

Disassembly of section .text:

080001a0 <__do_global_dtors_aux>:
 80001a0:	b510      	push	{r4, lr}
 80001a2:	4c05      	ldr	r4, [pc, #20]	@ (80001b8 <__do_global_dtors_aux+0x18>)
 80001a4:	7823      	ldrb	r3, [r4, #0]
 80001a6:	b933      	cbnz	r3, 80001b6 <__do_global_dtors_aux+0x16>
 80001a8:	4b04      	ldr	r3, [pc, #16]	@ (80001bc <__do_global_dtors_aux+0x1c>)
 80001aa:	b113      	cbz	r3, 80001b2 <__do_global_dtors_aux+0x12>
 80001ac:	4804      	ldr	r0, [pc, #16]	@ (80001c0 <__do_global_dtors_aux+0x20>)
 80001ae:	f3af 8000 	nop.w
 80001b2:	2301      	movs	r3, #1
 80001b4:	7023      	strb	r3, [r4, #0]
 80001b6:	bd10      	pop	{r4, pc}
 80001b8:	200001f0 	.word	0x200001f0
 80001bc:	00000000 	.word	0x00000000
 80001c0:	080039b8 	.word	0x080039b8

080001c4 <frame_dummy>:
 80001c4:	b508      	push	{r3, lr}
 80001c6:	4b03      	ldr	r3, [pc, #12]	@ (80001d4 <frame_dummy+0x10>)
 80001c8:	b11b      	cbz	r3, 80001d2 <frame_dummy+0xe>
 80001ca:	4903      	ldr	r1, [pc, #12]	@ (80001d8 <frame_dummy+0x14>)
 80001cc:	4803      	ldr	r0, [pc, #12]	@ (80001dc <frame_dummy+0x18>)
 80001ce:	f3af 8000 	nop.w
 80001d2:	bd08      	pop	{r3, pc}
 80001d4:	00000000 	.word	0x00000000
 80001d8:	200001f4 	.word	0x200001f4
 80001dc:	080039b8 	.word	0x080039b8

080001e0 <memchr>:
 80001e0:	f001 01ff 	and.w	r1, r1, #255	@ 0xff
 80001e4:	2a10      	cmp	r2, #16
 80001e6:	db2b      	blt.n	8000240 <memchr+0x60>
 80001e8:	f010 0f07 	tst.w	r0, #7
 80001ec:	d008      	beq.n	8000200 <memchr+0x20>
 80001ee:	f810 3b01 	ldrb.w	r3, [r0], #1
 80001f2:	3a01      	subs	r2, #1
 80001f4:	428b      	cmp	r3, r1
 80001f6:	d02d      	beq.n	8000254 <memchr+0x74>
 80001f8:	f010 0f07 	tst.w	r0, #7
 80001fc:	b342      	cbz	r2, 8000250 <memchr+0x70>
 80001fe:	d1f6      	bne.n	80001ee <memchr+0xe>
 8000200:	b4f0      	push	{r4, r5, r6, r7}
 8000202:	ea41 2101 	orr.w	r1, r1, r1, lsl #8
 8000206:	ea41 4101 	orr.w	r1, r1, r1, lsl #16
 800020a:	f022 0407 	bic.w	r4, r2, #7
 800020e:	f07f 0700 	mvns.w	r7, #0
 8000212:	2300      	movs	r3, #0
 8000214:	e8f0 5602 	ldrd	r5, r6, [r0], #8
 8000218:	3c08      	subs	r4, #8
 800021a:	ea85 0501 	eor.w	r5, r5, r1
 800021e:	ea86 0601 	eor.w	r6, r6, r1
 8000222:	fa85 f547 	uadd8	r5, r5, r7
 8000226:	faa3 f587 	sel	r5, r3, r7
 800022a:	fa86 f647 	uadd8	r6, r6, r7
 800022e:	faa5 f687 	sel	r6, r5, r7
 8000232:	b98e      	cbnz	r6, 8000258 <memchr+0x78>
 8000234:	d1ee      	bne.n	8000214 <memchr+0x34>
 8000236:	bcf0      	pop	{r4, r5, r6, r7}
 8000238:	f001 01ff 	and.w	r1, r1, #255	@ 0xff
 800023c:	f002 0207 	and.w	r2, r2, #7
 8000240:	b132      	cbz	r2, 8000250 <memchr+0x70>
 8000242:	f810 3b01 	ldrb.w	r3, [r0], #1
 8000246:	3a01      	subs	r2, #1
 8000248:	ea83 0301 	eor.w	r3, r3, r1
 800024c:	b113      	cbz	r3, 8000254 <memchr+0x74>
 800024e:	d1f8      	bne.n	8000242 <memchr+0x62>
 8000250:	2000      	movs	r0, #0
 8000252:	4770      	bx	lr
 8000254:	3801      	subs	r0, #1
 8000256:	4770      	bx	lr
 8000258:	2d00      	cmp	r5, #0
 800025a:	bf06      	itte	eq
 800025c:	4635      	moveq	r5, r6
 800025e:	3803      	subeq	r0, #3
 8000260:	3807      	subne	r0, #7
 8000262:	f015 0f01 	tst.w	r5, #1
 8000266:	d107      	bne.n	8000278 <memchr+0x98>
 8000268:	3001      	adds	r0, #1
 800026a:	f415 7f80 	tst.w	r5, #256	@ 0x100
 800026e:	bf02      	ittt	eq
 8000270:	3001      	addeq	r0, #1
 8000272:	f415 3fc0 	tsteq.w	r5, #98304	@ 0x18000
 8000276:	3001      	addeq	r0, #1
 8000278:	bcf0      	pop	{r4, r5, r6, r7}
 800027a:	3801      	subs	r0, #1
 800027c:	4770      	bx	lr
 800027e:	bf00      	nop

08000280 <strlen>:
 8000280:	4603      	mov	r3, r0
 8000282:	f813 2b01 	ldrb.w	r2, [r3], #1
 8000286:	2a00      	cmp	r2, #0
 8000288:	d1fb      	bne.n	8000282 <strlen+0x2>
 800028a:	1a18      	subs	r0, r3, r0
 800028c:	3801      	subs	r0, #1
 800028e:	4770      	bx	lr

08000290 <strcmp>:
 8000290:	f810 2b01 	ldrb.w	r2, [r0], #1
 8000294:	f811 3b01 	ldrb.w	r3, [r1], #1
 8000298:	2a01      	cmp	r2, #1
 800029a:	bf28      	it	cs
 800029c:	429a      	cmpcs	r2, r3
 800029e:	d0f7      	beq.n	8000290 <strcmp>
 80002a0:	1ad0      	subs	r0, r2, r3
 80002a2:	4770      	bx	lr

080002a4 <__aeabi_drsub>:
 80002a4:	f081 4100 	eor.w	r1, r1, #2147483648	@ 0x80000000
 80002a8:	e002      	b.n	80002b0 <__adddf3>
 80002aa:	bf00      	nop

080002ac <__aeabi_dsub>:
 80002ac:	f083 4300 	eor.w	r3, r3, #2147483648	@ 0x80000000

080002b0 <__adddf3>:
 80002b0:	b530      	push	{r4, r5, lr}
 80002b2:	ea4f 0441 	mov.w	r4, r1, lsl #1
 80002b6:	ea4f 0543 	mov.w	r5, r3, lsl #1
 80002ba:	ea94 0f05 	teq	r4, r5
 80002be:	bf08      	it	eq
 80002c0:	ea90 0f02 	teqeq	r0, r2
 80002c4:	bf1f      	itttt	ne
 80002c6:	ea54 0c00 	orrsne.w	ip, r4, r0
 80002ca:	ea55 0c02 	orrsne.w	ip, r5, r2
 80002ce:	ea7f 5c64 	mvnsne.w	ip, r4, asr #21
 80002d2:	ea7f 5c65 	mvnsne.w	ip, r5, asr #21
 80002d6:	f000 80e2 	beq.w	800049e <__adddf3+0x1ee>
 80002da:	ea4f 5454 	mov.w	r4, r4, lsr #21
 80002de:	ebd4 5555 	rsbs	r5, r4, r5, lsr #21
 80002e2:	bfb8      	it	lt
 80002e4:	426d      	neglt	r5, r5
 80002e6:	dd0c      	ble.n	8000302 <__adddf3+0x52>
 80002e8:	442c      	add	r4, r5
 80002ea:	ea80 0202 	eor.w	r2, r0, r2
 80002ee:	ea81 0303 	eor.w	r3, r1, r3
 80002f2:	ea82 0000 	eor.w	r0, r2, r0
 80002f6:	ea83 0101 	eor.w	r1, r3, r1
 80002fa:	ea80 0202 	eor.w	r2, r0, r2
 80002fe:	ea81 0303 	eor.w	r3, r1, r3
 8000302:	2d36      	cmp	r5, #54	@ 0x36
 8000304:	bf88      	it	hi
 8000306:	bd30      	pophi	{r4, r5, pc}
 8000308:	f011 4f00 	tst.w	r1, #2147483648	@ 0x80000000
 800030c:	ea4f 3101 	mov.w	r1, r1, lsl #12
 8000310:	f44f 1c80 	mov.w	ip, #1048576	@ 0x100000
 8000314:	ea4c 3111 	orr.w	r1, ip, r1, lsr #12
 8000318:	d002      	beq.n	8000320 <__adddf3+0x70>
 800031a:	4240      	negs	r0, r0
 800031c:	eb61 0141 	sbc.w	r1, r1, r1, lsl #1
 8000320:	f013 4f00 	tst.w	r3, #2147483648	@ 0x80000000
 8000324:	ea4f 3303 	mov.w	r3, r3, lsl #12
 8000328:	ea4c 3313 	orr.w	r3, ip, r3, lsr #12
 800032c:	d002      	beq.n	8000334 <__adddf3+0x84>
 800032e:	4252      	negs	r2, r2
 8000330:	eb63 0343 	sbc.w	r3, r3, r3, lsl #1
 8000334:	ea94 0f05 	teq	r4, r5
 8000338:	f000 80a7 	beq.w	800048a <__adddf3+0x1da>
 800033c:	f1a4 0401 	sub.w	r4, r4, #1
 8000340:	f1d5 0e20 	rsbs	lr, r5, #32
 8000344:	db0d      	blt.n	8000362 <__adddf3+0xb2>
 8000346:	fa02 fc0e 	lsl.w	ip, r2, lr
 800034a:	fa22 f205 	lsr.w	r2, r2, r5
 800034e:	1880      	adds	r0, r0, r2
 8000350:	f141 0100 	adc.w	r1, r1, #0
 8000354:	fa03 f20e 	lsl.w	r2, r3, lr
 8000358:	1880      	adds	r0, r0, r2
 800035a:	fa43 f305 	asr.w	r3, r3, r5
 800035e:	4159      	adcs	r1, r3
 8000360:	e00e      	b.n	8000380 <__adddf3+0xd0>
 8000362:	f1a5 0520 	sub.w	r5, r5, #32
 8000366:	f10e 0e20 	add.w	lr, lr, #32
 800036a:	2a01      	cmp	r2, #1
 800036c:	fa03 fc0e 	lsl.w	ip, r3, lr
 8000370:	bf28      	it	cs
 8000372:	f04c 0c02 	orrcs.w	ip, ip, #2
 8000376:	fa43 f305 	asr.w	r3, r3, r5
 800037a:	18c0      	adds	r0, r0, r3
 800037c:	eb51 71e3 	adcs.w	r1, r1, r3, asr #31
 8000380:	f001 4500 	and.w	r5, r1, #2147483648	@ 0x80000000
 8000384:	d507      	bpl.n	8000396 <__adddf3+0xe6>
 8000386:	f04f 0e00 	mov.w	lr, #0
 800038a:	f1dc 0c00 	rsbs	ip, ip, #0
 800038e:	eb7e 0000 	sbcs.w	r0, lr, r0
 8000392:	eb6e 0101 	sbc.w	r1, lr, r1
 8000396:	f5b1 1f80 	cmp.w	r1, #1048576	@ 0x100000
 800039a:	d31b      	bcc.n	80003d4 <__adddf3+0x124>
 800039c:	f5b1 1f00 	cmp.w	r1, #2097152	@ 0x200000
 80003a0:	d30c      	bcc.n	80003bc <__adddf3+0x10c>
 80003a2:	0849      	lsrs	r1, r1, #1
 80003a4:	ea5f 0030 	movs.w	r0, r0, rrx
 80003a8:	ea4f 0c3c 	mov.w	ip, ip, rrx
 80003ac:	f104 0401 	add.w	r4, r4, #1
 80003b0:	ea4f 5244 	mov.w	r2, r4, lsl #21
 80003b4:	f512 0f80 	cmn.w	r2, #4194304	@ 0x400000
 80003b8:	f080 809a 	bcs.w	80004f0 <__adddf3+0x240>
 80003bc:	f1bc 4f00 	cmp.w	ip, #2147483648	@ 0x80000000
 80003c0:	bf08      	it	eq
 80003c2:	ea5f 0c50 	movseq.w	ip, r0, lsr #1
 80003c6:	f150 0000 	adcs.w	r0, r0, #0
 80003ca:	eb41 5104 	adc.w	r1, r1, r4, lsl #20
 80003ce:	ea41 0105 	orr.w	r1, r1, r5
 80003d2:	bd30      	pop	{r4, r5, pc}
 80003d4:	ea5f 0c4c 	movs.w	ip, ip, lsl #1
 80003d8:	4140      	adcs	r0, r0
 80003da:	eb41 0101 	adc.w	r1, r1, r1
 80003de:	3c01      	subs	r4, #1
 80003e0:	bf28      	it	cs
 80003e2:	f5b1 1f80 	cmpcs.w	r1, #1048576	@ 0x100000
 80003e6:	d2e9      	bcs.n	80003bc <__adddf3+0x10c>
 80003e8:	f091 0f00 	teq	r1, #0
 80003ec:	bf04      	itt	eq
 80003ee:	4601      	moveq	r1, r0
 80003f0:	2000      	moveq	r0, #0
 80003f2:	fab1 f381 	clz	r3, r1
 80003f6:	bf08      	it	eq
 80003f8:	3320      	addeq	r3, #32
 80003fa:	f1a3 030b 	sub.w	r3, r3, #11
 80003fe:	f1b3 0220 	subs.w	r2, r3, #32
 8000402:	da0c      	bge.n	800041e <__adddf3+0x16e>
 8000404:	320c      	adds	r2, #12
 8000406:	dd08      	ble.n	800041a <__adddf3+0x16a>
 8000408:	f102 0c14 	add.w	ip, r2, #20
 800040c:	f1c2 020c 	rsb	r2, r2, #12
 8000410:	fa01 f00c 	lsl.w	r0, r1, ip
 8000414:	fa21 f102 	lsr.w	r1, r1, r2
 8000418:	e00c      	b.n	8000434 <__adddf3+0x184>
 800041a:	f102 0214 	add.w	r2, r2, #20
 800041e:	bfd8      	it	le
 8000420:	f1c2 0c20 	rsble	ip, r2, #32
 8000424:	fa01 f102 	lsl.w	r1, r1, r2
 8000428:	fa20 fc0c 	lsr.w	ip, r0, ip
 800042c:	bfdc      	itt	le
 800042e:	ea41 010c 	orrle.w	r1, r1, ip
 8000432:	4090      	lslle	r0, r2
 8000434:	1ae4      	subs	r4, r4, r3
 8000436:	bfa2      	ittt	ge
 8000438:	eb01 5104 	addge.w	r1, r1, r4, lsl #20
 800043c:	4329      	orrge	r1, r5
 800043e:	bd30      	popge	{r4, r5, pc}
 8000440:	ea6f 0404 	mvn.w	r4, r4
 8000444:	3c1f      	subs	r4, #31
 8000446:	da1c      	bge.n	8000482 <__adddf3+0x1d2>
 8000448:	340c      	adds	r4, #12
 800044a:	dc0e      	bgt.n	800046a <__adddf3+0x1ba>
 800044c:	f104 0414 	add.w	r4, r4, #20
 8000450:	f1c4 0220 	rsb	r2, r4, #32
 8000454:	fa20 f004 	lsr.w	r0, r0, r4
 8000458:	fa01 f302 	lsl.w	r3, r1, r2
 800045c:	ea40 0003 	orr.w	r0, r0, r3
 8000460:	fa21 f304 	lsr.w	r3, r1, r4
 8000464:	ea45 0103 	orr.w	r1, r5, r3
 8000468:	bd30      	pop	{r4, r5, pc}
 800046a:	f1c4 040c 	rsb	r4, r4, #12
 800046e:	f1c4 0220 	rsb	r2, r4, #32
 8000472:	fa20 f002 	lsr.w	r0, r0, r2
 8000476:	fa01 f304 	lsl.w	r3, r1, r4
 800047a:	ea40 0003 	orr.w	r0, r0, r3
 800047e:	4629      	mov	r1, r5
 8000480:	bd30      	pop	{r4, r5, pc}
 8000482:	fa21 f004 	lsr.w	r0, r1, r4
 8000486:	4629      	mov	r1, r5
 8000488:	bd30      	pop	{r4, r5, pc}
 800048a:	f094 0f00 	teq	r4, #0
 800048e:	f483 1380 	eor.w	r3, r3, #1048576	@ 0x100000
 8000492:	bf06      	itte	eq
 8000494:	f481 1180 	eoreq.w	r1, r1, #1048576	@ 0x100000
 8000498:	3401      	addeq	r4, #1
 800049a:	3d01      	subne	r5, #1
 800049c:	e74e      	b.n	800033c <__adddf3+0x8c>
 800049e:	ea7f 5c64 	mvns.w	ip, r4, asr #21
 80004a2:	bf18      	it	ne
 80004a4:	ea7f 5c65 	mvnsne.w	ip, r5, asr #21
 80004a8:	d029      	beq.n	80004fe <__adddf3+0x24e>
 80004aa:	ea94 0f05 	teq	r4, r5
 80004ae:	bf08      	it	eq
 80004b0:	ea90 0f02 	teqeq	r0, r2
 80004b4:	d005      	beq.n	80004c2 <__adddf3+0x212>
 80004b6:	ea54 0c00 	orrs.w	ip, r4, r0
 80004ba:	bf04      	itt	eq
 80004bc:	4619      	moveq	r1, r3
 80004be:	4610      	moveq	r0, r2
 80004c0:	bd30      	pop	{r4, r5, pc}
 80004c2:	ea91 0f03 	teq	r1, r3
 80004c6:	bf1e      	ittt	ne
 80004c8:	2100      	movne	r1, #0
 80004ca:	2000      	movne	r0, #0
 80004cc:	bd30      	popne	{r4, r5, pc}
 80004ce:	ea5f 5c54 	movs.w	ip, r4, lsr #21
 80004d2:	d105      	bne.n	80004e0 <__adddf3+0x230>
 80004d4:	0040      	lsls	r0, r0, #1
 80004d6:	4149      	adcs	r1, r1
 80004d8:	bf28      	it	cs
 80004da:	f041 4100 	orrcs.w	r1, r1, #2147483648	@ 0x80000000
 80004de:	bd30      	pop	{r4, r5, pc}
 80004e0:	f514 0480 	adds.w	r4, r4, #4194304	@ 0x400000
 80004e4:	bf3c      	itt	cc
 80004e6:	f501 1180 	addcc.w	r1, r1, #1048576	@ 0x100000
 80004ea:	bd30      	popcc	{r4, r5, pc}
 80004ec:	f001 4500 	and.w	r5, r1, #2147483648	@ 0x80000000
 80004f0:	f045 41fe 	orr.w	r1, r5, #2130706432	@ 0x7f000000
 80004f4:	f441 0170 	orr.w	r1, r1, #15728640	@ 0xf00000
 80004f8:	f04f 0000 	mov.w	r0, #0
 80004fc:	bd30      	pop	{r4, r5, pc}
 80004fe:	ea7f 5c64 	mvns.w	ip, r4, asr #21
 8000502:	bf1a      	itte	ne
 8000504:	4619      	movne	r1, r3
 8000506:	4610      	movne	r0, r2
 8000508:	ea7f 5c65 	mvnseq.w	ip, r5, asr #21
 800050c:	bf1c      	itt	ne
 800050e:	460b      	movne	r3, r1
 8000510:	4602      	movne	r2, r0
 8000512:	ea50 3401 	orrs.w	r4, r0, r1, lsl #12
 8000516:	bf06      	itte	eq
 8000518:	ea52 3503 	orrseq.w	r5, r2, r3, lsl #12
 800051c:	ea91 0f03 	teqeq	r1, r3
 8000520:	f441 2100 	orrne.w	r1, r1, #524288	@ 0x80000
 8000524:	bd30      	pop	{r4, r5, pc}
 8000526:	bf00      	nop

08000528 <__aeabi_ui2d>:
 8000528:	f090 0f00 	teq	r0, #0
 800052c:	bf04      	itt	eq
 800052e:	2100      	moveq	r1, #0
 8000530:	4770      	bxeq	lr
 8000532:	b530      	push	{r4, r5, lr}
 8000534:	f44f 6480 	mov.w	r4, #1024	@ 0x400
 8000538:	f104 0432 	add.w	r4, r4, #50	@ 0x32
 800053c:	f04f 0500 	mov.w	r5, #0
 8000540:	f04f 0100 	mov.w	r1, #0
 8000544:	e750      	b.n	80003e8 <__adddf3+0x138>
 8000546:	bf00      	nop

08000548 <__aeabi_i2d>:
 8000548:	f090 0f00 	teq	r0, #0
 800054c:	bf04      	itt	eq
 800054e:	2100      	moveq	r1, #0
 8000550:	4770      	bxeq	lr
 8000552:	b530      	push	{r4, r5, lr}
 8000554:	f44f 6480 	mov.w	r4, #1024	@ 0x400
 8000558:	f104 0432 	add.w	r4, r4, #50	@ 0x32
 800055c:	f010 4500 	ands.w	r5, r0, #2147483648	@ 0x80000000
 8000560:	bf48      	it	mi
 8000562:	4240      	negmi	r0, r0
 8000564:	f04f 0100 	mov.w	r1, #0
 8000568:	e73e      	b.n	80003e8 <__adddf3+0x138>
 800056a:	bf00      	nop

0800056c <__aeabi_f2d>:
 800056c:	0042      	lsls	r2, r0, #1
 800056e:	ea4f 01e2 	mov.w	r1, r2, asr #3
 8000572:	ea4f 0131 	mov.w	r1, r1, rrx
 8000576:	ea4f 7002 	mov.w	r0, r2, lsl #28
 800057a:	bf1f      	itttt	ne
 800057c:	f012 437f 	andsne.w	r3, r2, #4278190080	@ 0xff000000
 8000580:	f093 4f7f 	teqne	r3, #4278190080	@ 0xff000000
 8000584:	f081 5160 	eorne.w	r1, r1, #939524096	@ 0x38000000
 8000588:	4770      	bxne	lr
 800058a:	f032 427f 	bics.w	r2, r2, #4278190080	@ 0xff000000
 800058e:	bf08      	it	eq
 8000590:	4770      	bxeq	lr
 8000592:	f093 4f7f 	teq	r3, #4278190080	@ 0xff000000
 8000596:	bf04      	itt	eq
 8000598:	f441 2100 	orreq.w	r1, r1, #524288	@ 0x80000
 800059c:	4770      	bxeq	lr
 800059e:	b530      	push	{r4, r5, lr}
 80005a0:	f44f 7460 	mov.w	r4, #896	@ 0x380
 80005a4:	f001 4500 	and.w	r5, r1, #2147483648	@ 0x80000000
 80005a8:	f021 4100 	bic.w	r1, r1, #2147483648	@ 0x80000000
 80005ac:	e71c      	b.n	80003e8 <__adddf3+0x138>
 80005ae:	bf00      	nop

080005b0 <__aeabi_ul2d>:
 80005b0:	ea50 0201 	orrs.w	r2, r0, r1
 80005b4:	bf08      	it	eq
 80005b6:	4770      	bxeq	lr
 80005b8:	b530      	push	{r4, r5, lr}
 80005ba:	f04f 0500 	mov.w	r5, #0
 80005be:	e00a      	b.n	80005d6 <__aeabi_l2d+0x16>

080005c0 <__aeabi_l2d>:
 80005c0:	ea50 0201 	orrs.w	r2, r0, r1
 80005c4:	bf08      	it	eq
 80005c6:	4770      	bxeq	lr
 80005c8:	b530      	push	{r4, r5, lr}
 80005ca:	f011 4500 	ands.w	r5, r1, #2147483648	@ 0x80000000
 80005ce:	d502      	bpl.n	80005d6 <__aeabi_l2d+0x16>
 80005d0:	4240      	negs	r0, r0
 80005d2:	eb61 0141 	sbc.w	r1, r1, r1, lsl #1
 80005d6:	f44f 6480 	mov.w	r4, #1024	@ 0x400
 80005da:	f104 0432 	add.w	r4, r4, #50	@ 0x32
 80005de:	ea5f 5c91 	movs.w	ip, r1, lsr #22
 80005e2:	f43f aed8 	beq.w	8000396 <__adddf3+0xe6>
 80005e6:	f04f 0203 	mov.w	r2, #3
 80005ea:	ea5f 0cdc 	movs.w	ip, ip, lsr #3
 80005ee:	bf18      	it	ne
 80005f0:	3203      	addne	r2, #3
 80005f2:	ea5f 0cdc 	movs.w	ip, ip, lsr #3
 80005f6:	bf18      	it	ne
 80005f8:	3203      	addne	r2, #3
 80005fa:	eb02 02dc 	add.w	r2, r2, ip, lsr #3
 80005fe:	f1c2 0320 	rsb	r3, r2, #32
 8000602:	fa00 fc03 	lsl.w	ip, r0, r3
 8000606:	fa20 f002 	lsr.w	r0, r0, r2
 800060a:	fa01 fe03 	lsl.w	lr, r1, r3
 800060e:	ea40 000e 	orr.w	r0, r0, lr
 8000612:	fa21 f102 	lsr.w	r1, r1, r2
 8000616:	4414      	add	r4, r2
 8000618:	e6bd      	b.n	8000396 <__adddf3+0xe6>
 800061a:	bf00      	nop

0800061c <__aeabi_dmul>:
 800061c:	b570      	push	{r4, r5, r6, lr}
 800061e:	f04f 0cff 	mov.w	ip, #255	@ 0xff
 8000622:	f44c 6ce0 	orr.w	ip, ip, #1792	@ 0x700
 8000626:	ea1c 5411 	ands.w	r4, ip, r1, lsr #20
 800062a:	bf1d      	ittte	ne
 800062c:	ea1c 5513 	andsne.w	r5, ip, r3, lsr #20
 8000630:	ea94 0f0c 	teqne	r4, ip
 8000634:	ea95 0f0c 	teqne	r5, ip
 8000638:	f000 f8de 	bleq	80007f8 <__aeabi_dmul+0x1dc>
 800063c:	442c      	add	r4, r5
 800063e:	ea81 0603 	eor.w	r6, r1, r3
 8000642:	ea21 514c 	bic.w	r1, r1, ip, lsl #21
 8000646:	ea23 534c 	bic.w	r3, r3, ip, lsl #21
 800064a:	ea50 3501 	orrs.w	r5, r0, r1, lsl #12
 800064e:	bf18      	it	ne
 8000650:	ea52 3503 	orrsne.w	r5, r2, r3, lsl #12
 8000654:	f441 1180 	orr.w	r1, r1, #1048576	@ 0x100000
 8000658:	f443 1380 	orr.w	r3, r3, #1048576	@ 0x100000
 800065c:	d038      	beq.n	80006d0 <__aeabi_dmul+0xb4>
 800065e:	fba0 ce02 	umull	ip, lr, r0, r2
 8000662:	f04f 0500 	mov.w	r5, #0
 8000666:	fbe1 e502 	umlal	lr, r5, r1, r2
 800066a:	f006 4200 	and.w	r2, r6, #2147483648	@ 0x80000000
 800066e:	fbe0 e503 	umlal	lr, r5, r0, r3
 8000672:	f04f 0600 	mov.w	r6, #0
 8000676:	fbe1 5603 	umlal	r5, r6, r1, r3
 800067a:	f09c 0f00 	teq	ip, #0
 800067e:	bf18      	it	ne
 8000680:	f04e 0e01 	orrne.w	lr, lr, #1
 8000684:	f1a4 04ff 	sub.w	r4, r4, #255	@ 0xff
 8000688:	f5b6 7f00 	cmp.w	r6, #512	@ 0x200
 800068c:	f564 7440 	sbc.w	r4, r4, #768	@ 0x300
 8000690:	d204      	bcs.n	800069c <__aeabi_dmul+0x80>
 8000692:	ea5f 0e4e 	movs.w	lr, lr, lsl #1
 8000696:	416d      	adcs	r5, r5
 8000698:	eb46 0606 	adc.w	r6, r6, r6
 800069c:	ea42 21c6 	orr.w	r1, r2, r6, lsl #11
 80006a0:	ea41 5155 	orr.w	r1, r1, r5, lsr #21
 80006a4:	ea4f 20c5 	mov.w	r0, r5, lsl #11
 80006a8:	ea40 505e 	orr.w	r0, r0, lr, lsr #21
 80006ac:	ea4f 2ece 	mov.w	lr, lr, lsl #11
 80006b0:	f1b4 0cfd 	subs.w	ip, r4, #253	@ 0xfd
 80006b4:	bf88      	it	hi
 80006b6:	f5bc 6fe0 	cmphi.w	ip, #1792	@ 0x700
 80006ba:	d81e      	bhi.n	80006fa <__aeabi_dmul+0xde>
 80006bc:	f1be 4f00 	cmp.w	lr, #2147483648	@ 0x80000000
 80006c0:	bf08      	it	eq
 80006c2:	ea5f 0e50 	movseq.w	lr, r0, lsr #1
 80006c6:	f150 0000 	adcs.w	r0, r0, #0
 80006ca:	eb41 5104 	adc.w	r1, r1, r4, lsl #20
 80006ce:	bd70      	pop	{r4, r5, r6, pc}
 80006d0:	f006 4600 	and.w	r6, r6, #2147483648	@ 0x80000000
 80006d4:	ea46 0101 	orr.w	r1, r6, r1
 80006d8:	ea40 0002 	orr.w	r0, r0, r2
 80006dc:	ea81 0103 	eor.w	r1, r1, r3
 80006e0:	ebb4 045c 	subs.w	r4, r4, ip, lsr #1
 80006e4:	bfc2      	ittt	gt
 80006e6:	ebd4 050c 	rsbsgt	r5, r4, ip
 80006ea:	ea41 5104 	orrgt.w	r1, r1, r4, lsl #20
 80006ee:	bd70      	popgt	{r4, r5, r6, pc}
 80006f0:	f441 1180 	orr.w	r1, r1, #1048576	@ 0x100000
 80006f4:	f04f 0e00 	mov.w	lr, #0
 80006f8:	3c01      	subs	r4, #1
 80006fa:	f300 80ab 	bgt.w	8000854 <__aeabi_dmul+0x238>
 80006fe:	f114 0f36 	cmn.w	r4, #54	@ 0x36
 8000702:	bfde      	ittt	le
 8000704:	2000      	movle	r0, #0
 8000706:	f001 4100 	andle.w	r1, r1, #2147483648	@ 0x80000000
 800070a:	bd70      	pople	{r4, r5, r6, pc}
 800070c:	f1c4 0400 	rsb	r4, r4, #0
 8000710:	3c20      	subs	r4, #32
 8000712:	da35      	bge.n	8000780 <__aeabi_dmul+0x164>
 8000714:	340c      	adds	r4, #12
 8000716:	dc1b      	bgt.n	8000750 <__aeabi_dmul+0x134>
 8000718:	f104 0414 	add.w	r4, r4, #20
 800071c:	f1c4 0520 	rsb	r5, r4, #32
 8000720:	fa00 f305 	lsl.w	r3, r0, r5
 8000724:	fa20 f004 	lsr.w	r0, r0, r4
 8000728:	fa01 f205 	lsl.w	r2, r1, r5
 800072c:	ea40 0002 	orr.w	r0, r0, r2
 8000730:	f001 4200 	and.w	r2, r1, #2147483648	@ 0x80000000
 8000734:	f021 4100 	bic.w	r1, r1, #2147483648	@ 0x80000000
 8000738:	eb10 70d3 	adds.w	r0, r0, r3, lsr #31
 800073c:	fa21 f604 	lsr.w	r6, r1, r4
 8000740:	eb42 0106 	adc.w	r1, r2, r6
 8000744:	ea5e 0e43 	orrs.w	lr, lr, r3, lsl #1
 8000748:	bf08      	it	eq
 800074a:	ea20 70d3 	biceq.w	r0, r0, r3, lsr #31
 800074e:	bd70      	pop	{r4, r5, r6, pc}
 8000750:	f1c4 040c 	rsb	r4, r4, #12
 8000754:	f1c4 0520 	rsb	r5, r4, #32
 8000758:	fa00 f304 	lsl.w	r3, r0, r4
 800075c:	fa20 f005 	lsr.w	r0, r0, r5
 8000760:	fa01 f204 	lsl.w	r2, r1, r4
 8000764:	ea40 0002 	orr.w	r0, r0, r2
 8000768:	f001 4100 	and.w	r1, r1, #2147483648	@ 0x80000000
 800076c:	eb10 70d3 	adds.w	r0, r0, r3, lsr #31
 8000770:	f141 0100 	adc.w	r1, r1, #0
 8000774:	ea5e 0e43 	orrs.w	lr, lr, r3, lsl #1
 8000778:	bf08      	it	eq
 800077a:	ea20 70d3 	biceq.w	r0, r0, r3, lsr #31
 800077e:	bd70      	pop	{r4, r5, r6, pc}
 8000780:	f1c4 0520 	rsb	r5, r4, #32
 8000784:	fa00 f205 	lsl.w	r2, r0, r5
 8000788:	ea4e 0e02 	orr.w	lr, lr, r2
 800078c:	fa20 f304 	lsr.w	r3, r0, r4
 8000790:	fa01 f205 	lsl.w	r2, r1, r5
 8000794:	ea43 0302 	orr.w	r3, r3, r2
 8000798:	fa21 f004 	lsr.w	r0, r1, r4
 800079c:	f001 4100 	and.w	r1, r1, #2147483648	@ 0x80000000
 80007a0:	fa21 f204 	lsr.w	r2, r1, r4
 80007a4:	ea20 0002 	bic.w	r0, r0, r2
 80007a8:	eb00 70d3 	add.w	r0, r0, r3, lsr #31
 80007ac:	ea5e 0e43 	orrs.w	lr, lr, r3, lsl #1
 80007b0:	bf08      	it	eq
 80007b2:	ea20 70d3 	biceq.w	r0, r0, r3, lsr #31
 80007b6:	bd70      	pop	{r4, r5, r6, pc}
 80007b8:	f094 0f00 	teq	r4, #0
 80007bc:	d10f      	bne.n	80007de <__aeabi_dmul+0x1c2>
 80007be:	f001 4600 	and.w	r6, r1, #2147483648	@ 0x80000000
 80007c2:	0040      	lsls	r0, r0, #1
 80007c4:	eb41 0101 	adc.w	r1, r1, r1
 80007c8:	f411 1f80 	tst.w	r1, #1048576	@ 0x100000
 80007cc:	bf08      	it	eq
 80007ce:	3c01      	subeq	r4, #1
 80007d0:	d0f7      	beq.n	80007c2 <__aeabi_dmul+0x1a6>
 80007d2:	ea41 0106 	orr.w	r1, r1, r6
 80007d6:	f095 0f00 	teq	r5, #0
 80007da:	bf18      	it	ne
 80007dc:	4770      	bxne	lr
 80007de:	f003 4600 	and.w	r6, r3, #2147483648	@ 0x80000000
 80007e2:	0052      	lsls	r2, r2, #1
 80007e4:	eb43 0303 	adc.w	r3, r3, r3
 80007e8:	f413 1f80 	tst.w	r3, #1048576	@ 0x100000
 80007ec:	bf08      	it	eq
 80007ee:	3d01      	subeq	r5, #1
 80007f0:	d0f7      	beq.n	80007e2 <__aeabi_dmul+0x1c6>
 80007f2:	ea43 0306 	orr.w	r3, r3, r6
 80007f6:	4770      	bx	lr
 80007f8:	ea94 0f0c 	teq	r4, ip
 80007fc:	ea0c 5513 	and.w	r5, ip, r3, lsr #20
 8000800:	bf18      	it	ne
 8000802:	ea95 0f0c 	teqne	r5, ip
 8000806:	d00c      	beq.n	8000822 <__aeabi_dmul+0x206>
 8000808:	ea50 0641 	orrs.w	r6, r0, r1, lsl #1
 800080c:	bf18      	it	ne
 800080e:	ea52 0643 	orrsne.w	r6, r2, r3, lsl #1
 8000812:	d1d1      	bne.n	80007b8 <__aeabi_dmul+0x19c>
 8000814:	ea81 0103 	eor.w	r1, r1, r3
 8000818:	f001 4100 	and.w	r1, r1, #2147483648	@ 0x80000000
 800081c:	f04f 0000 	mov.w	r0, #0
 8000820:	bd70      	pop	{r4, r5, r6, pc}
 8000822:	ea50 0641 	orrs.w	r6, r0, r1, lsl #1
 8000826:	bf06      	itte	eq
 8000828:	4610      	moveq	r0, r2
 800082a:	4619      	moveq	r1, r3
 800082c:	ea52 0643 	orrsne.w	r6, r2, r3, lsl #1
 8000830:	d019      	beq.n	8000866 <__aeabi_dmul+0x24a>
 8000832:	ea94 0f0c 	teq	r4, ip
 8000836:	d102      	bne.n	800083e <__aeabi_dmul+0x222>
 8000838:	ea50 3601 	orrs.w	r6, r0, r1, lsl #12
 800083c:	d113      	bne.n	8000866 <__aeabi_dmul+0x24a>
 800083e:	ea95 0f0c 	teq	r5, ip
 8000842:	d105      	bne.n	8000850 <__aeabi_dmul+0x234>
 8000844:	ea52 3603 	orrs.w	r6, r2, r3, lsl #12
 8000848:	bf1c      	itt	ne
 800084a:	4610      	movne	r0, r2
 800084c:	4619      	movne	r1, r3
 800084e:	d10a      	bne.n	8000866 <__aeabi_dmul+0x24a>
 8000850:	ea81 0103 	eor.w	r1, r1, r3
 8000854:	f001 4100 	and.w	r1, r1, #2147483648	@ 0x80000000
 8000858:	f041 41fe 	orr.w	r1, r1, #2130706432	@ 0x7f000000
 800085c:	f441 0170 	orr.w	r1, r1, #15728640	@ 0xf00000
 8000860:	f04f 0000 	mov.w	r0, #0
 8000864:	bd70      	pop	{r4, r5, r6, pc}
 8000866:	f041 41fe 	orr.w	r1, r1, #2130706432	@ 0x7f000000
 800086a:	f441 0178 	orr.w	r1, r1, #16252928	@ 0xf80000
 800086e:	bd70      	pop	{r4, r5, r6, pc}

08000870 <__aeabi_ddiv>:
 8000870:	b570      	push	{r4, r5, r6, lr}
 8000872:	f04f 0cff 	mov.w	ip, #255	@ 0xff
 8000876:	f44c 6ce0 	orr.w	ip, ip, #1792	@ 0x700
 800087a:	ea1c 5411 	ands.w	r4, ip, r1, lsr #20
 800087e:	bf1d      	ittte	ne
 8000880:	ea1c 5513 	andsne.w	r5, ip, r3, lsr #20
 8000884:	ea94 0f0c 	teqne	r4, ip
 8000888:	ea95 0f0c 	teqne	r5, ip
 800088c:	f000 f8a7 	bleq	80009de <__aeabi_ddiv+0x16e>
 8000890:	eba4 0405 	sub.w	r4, r4, r5
 8000894:	ea81 0e03 	eor.w	lr, r1, r3
 8000898:	ea52 3503 	orrs.w	r5, r2, r3, lsl #12
 800089c:	ea4f 3101 	mov.w	r1, r1, lsl #12
 80008a0:	f000 8088 	beq.w	80009b4 <__aeabi_ddiv+0x144>
 80008a4:	ea4f 3303 	mov.w	r3, r3, lsl #12
 80008a8:	f04f 5580 	mov.w	r5, #268435456	@ 0x10000000
 80008ac:	ea45 1313 	orr.w	r3, r5, r3, lsr #4
 80008b0:	ea43 6312 	orr.w	r3, r3, r2, lsr #24
 80008b4:	ea4f 2202 	mov.w	r2, r2, lsl #8
 80008b8:	ea45 1511 	orr.w	r5, r5, r1, lsr #4
 80008bc:	ea45 6510 	orr.w	r5, r5, r0, lsr #24
 80008c0:	ea4f 2600 	mov.w	r6, r0, lsl #8
 80008c4:	f00e 4100 	and.w	r1, lr, #2147483648	@ 0x80000000
 80008c8:	429d      	cmp	r5, r3
 80008ca:	bf08      	it	eq
 80008cc:	4296      	cmpeq	r6, r2
 80008ce:	f144 04fd 	adc.w	r4, r4, #253	@ 0xfd
 80008d2:	f504 7440 	add.w	r4, r4, #768	@ 0x300
 80008d6:	d202      	bcs.n	80008de <__aeabi_ddiv+0x6e>
 80008d8:	085b      	lsrs	r3, r3, #1
 80008da:	ea4f 0232 	mov.w	r2, r2, rrx
 80008de:	1ab6      	subs	r6, r6, r2
 80008e0:	eb65 0503 	sbc.w	r5, r5, r3
 80008e4:	085b      	lsrs	r3, r3, #1
 80008e6:	ea4f 0232 	mov.w	r2, r2, rrx
 80008ea:	f44f 1080 	mov.w	r0, #1048576	@ 0x100000
 80008ee:	f44f 2c00 	mov.w	ip, #524288	@ 0x80000
 80008f2:	ebb6 0e02 	subs.w	lr, r6, r2
 80008f6:	eb75 0e03 	sbcs.w	lr, r5, r3
 80008fa:	bf22      	ittt	cs
 80008fc:	1ab6      	subcs	r6, r6, r2
 80008fe:	4675      	movcs	r5, lr
 8000900:	ea40 000c 	orrcs.w	r0, r0, ip
 8000904:	085b      	lsrs	r3, r3, #1
 8000906:	ea4f 0232 	mov.w	r2, r2, rrx
 800090a:	ebb6 0e02 	subs.w	lr, r6, r2
 800090e:	eb75 0e03 	sbcs.w	lr, r5, r3
 8000912:	bf22      	ittt	cs
 8000914:	1ab6      	subcs	r6, r6, r2
 8000916:	4675      	movcs	r5, lr
 8000918:	ea40 005c 	orrcs.w	r0, r0, ip, lsr #1
 800091c:	085b      	lsrs	r3, r3, #1
 800091e:	ea4f 0232 	mov.w	r2, r2, rrx
 8000922:	ebb6 0e02 	subs.w	lr, r6, r2
 8000926:	eb75 0e03 	sbcs.w	lr, r5, r3
 800092a:	bf22      	ittt	cs
 800092c:	1ab6      	subcs	r6, r6, r2
 800092e:	4675      	movcs	r5, lr
 8000930:	ea40 009c 	orrcs.w	r0, r0, ip, lsr #2
 8000934:	085b      	lsrs	r3, r3, #1
 8000936:	ea4f 0232 	mov.w	r2, r2, rrx
 800093a:	ebb6 0e02 	subs.w	lr, r6, r2
 800093e:	eb75 0e03 	sbcs.w	lr, r5, r3
 8000942:	bf22      	ittt	cs
 8000944:	1ab6      	subcs	r6, r6, r2
 8000946:	4675      	movcs	r5, lr
 8000948:	ea40 00dc 	orrcs.w	r0, r0, ip, lsr #3
 800094c:	ea55 0e06 	orrs.w	lr, r5, r6
 8000950:	d018      	beq.n	8000984 <__aeabi_ddiv+0x114>
 8000952:	ea4f 1505 	mov.w	r5, r5, lsl #4
 8000956:	ea45 7516 	orr.w	r5, r5, r6, lsr #28
 800095a:	ea4f 1606 	mov.w	r6, r6, lsl #4
 800095e:	ea4f 03c3 	mov.w	r3, r3, lsl #3
 8000962:	ea43 7352 	orr.w	r3, r3, r2, lsr #29
 8000966:	ea4f 02c2 	mov.w	r2, r2, lsl #3
 800096a:	ea5f 1c1c 	movs.w	ip, ip, lsr #4
 800096e:	d1c0      	bne.n	80008f2 <__aeabi_ddiv+0x82>
 8000970:	f411 1f80 	tst.w	r1, #1048576	@ 0x100000
 8000974:	d10b      	bne.n	800098e <__aeabi_ddiv+0x11e>
 8000976:	ea41 0100 	orr.w	r1, r1, r0
 800097a:	f04f 0000 	mov.w	r0, #0
 800097e:	f04f 4c00 	mov.w	ip, #2147483648	@ 0x80000000
 8000982:	e7b6      	b.n	80008f2 <__aeabi_ddiv+0x82>
 8000984:	f411 1f80 	tst.w	r1, #1048576	@ 0x100000
 8000988:	bf04      	itt	eq
 800098a:	4301      	orreq	r1, r0
 800098c:	2000      	moveq	r0, #0
 800098e:	f1b4 0cfd 	subs.w	ip, r4, #253	@ 0xfd
 8000992:	bf88      	it	hi
 8000994:	f5bc 6fe0 	cmphi.w	ip, #1792	@ 0x700
 8000998:	f63f aeaf 	bhi.w	80006fa <__aeabi_dmul+0xde>
 800099c:	ebb5 0c03 	subs.w	ip, r5, r3
 80009a0:	bf04      	itt	eq
 80009a2:	ebb6 0c02 	subseq.w	ip, r6, r2
 80009a6:	ea5f 0c50 	movseq.w	ip, r0, lsr #1
 80009aa:	f150 0000 	adcs.w	r0, r0, #0
 80009ae:	eb41 5104 	adc.w	r1, r1, r4, lsl #20
 80009b2:	bd70      	pop	{r4, r5, r6, pc}
 80009b4:	f00e 4e00 	and.w	lr, lr, #2147483648	@ 0x80000000
 80009b8:	ea4e 3111 	orr.w	r1, lr, r1, lsr #12
 80009bc:	eb14 045c 	adds.w	r4, r4, ip, lsr #1
 80009c0:	bfc2      	ittt	gt
 80009c2:	ebd4 050c 	rsbsgt	r5, r4, ip
 80009c6:	ea41 5104 	orrgt.w	r1, r1, r4, lsl #20
 80009ca:	bd70      	popgt	{r4, r5, r6, pc}
 80009cc:	f441 1180 	orr.w	r1, r1, #1048576	@ 0x100000
 80009d0:	f04f 0e00 	mov.w	lr, #0
 80009d4:	3c01      	subs	r4, #1
 80009d6:	e690      	b.n	80006fa <__aeabi_dmul+0xde>
 80009d8:	ea45 0e06 	orr.w	lr, r5, r6
 80009dc:	e68d      	b.n	80006fa <__aeabi_dmul+0xde>
 80009de:	ea0c 5513 	and.w	r5, ip, r3, lsr #20
 80009e2:	ea94 0f0c 	teq	r4, ip
 80009e6:	bf08      	it	eq
 80009e8:	ea95 0f0c 	teqeq	r5, ip
 80009ec:	f43f af3b 	beq.w	8000866 <__aeabi_dmul+0x24a>
 80009f0:	ea94 0f0c 	teq	r4, ip
 80009f4:	d10a      	bne.n	8000a0c <__aeabi_ddiv+0x19c>
 80009f6:	ea50 3401 	orrs.w	r4, r0, r1, lsl #12
 80009fa:	f47f af34 	bne.w	8000866 <__aeabi_dmul+0x24a>
 80009fe:	ea95 0f0c 	teq	r5, ip
 8000a02:	f47f af25 	bne.w	8000850 <__aeabi_dmul+0x234>
 8000a06:	4610      	mov	r0, r2
 8000a08:	4619      	mov	r1, r3
 8000a0a:	e72c      	b.n	8000866 <__aeabi_dmul+0x24a>
 8000a0c:	ea95 0f0c 	teq	r5, ip
 8000a10:	d106      	bne.n	8000a20 <__aeabi_ddiv+0x1b0>
 8000a12:	ea52 3503 	orrs.w	r5, r2, r3, lsl #12
 8000a16:	f43f aefd 	beq.w	8000814 <__aeabi_dmul+0x1f8>
 8000a1a:	4610      	mov	r0, r2
 8000a1c:	4619      	mov	r1, r3
 8000a1e:	e722      	b.n	8000866 <__aeabi_dmul+0x24a>
 8000a20:	ea50 0641 	orrs.w	r6, r0, r1, lsl #1
 8000a24:	bf18      	it	ne
 8000a26:	ea52 0643 	orrsne.w	r6, r2, r3, lsl #1
 8000a2a:	f47f aec5 	bne.w	80007b8 <__aeabi_dmul+0x19c>
 8000a2e:	ea50 0441 	orrs.w	r4, r0, r1, lsl #1
 8000a32:	f47f af0d 	bne.w	8000850 <__aeabi_dmul+0x234>
 8000a36:	ea52 0543 	orrs.w	r5, r2, r3, lsl #1
 8000a3a:	f47f aeeb 	bne.w	8000814 <__aeabi_dmul+0x1f8>
 8000a3e:	e712      	b.n	8000866 <__aeabi_dmul+0x24a>

08000a40 <__gedf2>:
 8000a40:	f04f 3cff 	mov.w	ip, #4294967295	@ 0xffffffff
 8000a44:	e006      	b.n	8000a54 <__cmpdf2+0x4>
 8000a46:	bf00      	nop

08000a48 <__ledf2>:
 8000a48:	f04f 0c01 	mov.w	ip, #1
 8000a4c:	e002      	b.n	8000a54 <__cmpdf2+0x4>
 8000a4e:	bf00      	nop

08000a50 <__cmpdf2>:
 8000a50:	f04f 0c01 	mov.w	ip, #1
 8000a54:	f84d cd04 	str.w	ip, [sp, #-4]!
 8000a58:	ea4f 0c41 	mov.w	ip, r1, lsl #1
 8000a5c:	ea7f 5c6c 	mvns.w	ip, ip, asr #21
 8000a60:	ea4f 0c43 	mov.w	ip, r3, lsl #1
 8000a64:	bf18      	it	ne
 8000a66:	ea7f 5c6c 	mvnsne.w	ip, ip, asr #21
 8000a6a:	d01b      	beq.n	8000aa4 <__cmpdf2+0x54>
 8000a6c:	b001      	add	sp, #4
 8000a6e:	ea50 0c41 	orrs.w	ip, r0, r1, lsl #1
 8000a72:	bf0c      	ite	eq
 8000a74:	ea52 0c43 	orrseq.w	ip, r2, r3, lsl #1
 8000a78:	ea91 0f03 	teqne	r1, r3
 8000a7c:	bf02      	ittt	eq
 8000a7e:	ea90 0f02 	teqeq	r0, r2
 8000a82:	2000      	moveq	r0, #0
 8000a84:	4770      	bxeq	lr
 8000a86:	f110 0f00 	cmn.w	r0, #0
 8000a8a:	ea91 0f03 	teq	r1, r3
 8000a8e:	bf58      	it	pl
 8000a90:	4299      	cmppl	r1, r3
 8000a92:	bf08      	it	eq
 8000a94:	4290      	cmpeq	r0, r2
 8000a96:	bf2c      	ite	cs
 8000a98:	17d8      	asrcs	r0, r3, #31
 8000a9a:	ea6f 70e3 	mvncc.w	r0, r3, asr #31
 8000a9e:	f040 0001 	orr.w	r0, r0, #1
 8000aa2:	4770      	bx	lr
 8000aa4:	ea4f 0c41 	mov.w	ip, r1, lsl #1
 8000aa8:	ea7f 5c6c 	mvns.w	ip, ip, asr #21
 8000aac:	d102      	bne.n	8000ab4 <__cmpdf2+0x64>
 8000aae:	ea50 3c01 	orrs.w	ip, r0, r1, lsl #12
 8000ab2:	d107      	bne.n	8000ac4 <__cmpdf2+0x74>
 8000ab4:	ea4f 0c43 	mov.w	ip, r3, lsl #1
 8000ab8:	ea7f 5c6c 	mvns.w	ip, ip, asr #21
 8000abc:	d1d6      	bne.n	8000a6c <__cmpdf2+0x1c>
 8000abe:	ea52 3c03 	orrs.w	ip, r2, r3, lsl #12
 8000ac2:	d0d3      	beq.n	8000a6c <__cmpdf2+0x1c>
 8000ac4:	f85d 0b04 	ldr.w	r0, [sp], #4
 8000ac8:	4770      	bx	lr
 8000aca:	bf00      	nop

08000acc <__aeabi_cdrcmple>:
 8000acc:	4684      	mov	ip, r0
 8000ace:	4610      	mov	r0, r2
 8000ad0:	4662      	mov	r2, ip
 8000ad2:	468c      	mov	ip, r1
 8000ad4:	4619      	mov	r1, r3
 8000ad6:	4663      	mov	r3, ip
 8000ad8:	e000      	b.n	8000adc <__aeabi_cdcmpeq>
 8000ada:	bf00      	nop

08000adc <__aeabi_cdcmpeq>:
 8000adc:	b501      	push	{r0, lr}
 8000ade:	f7ff ffb7 	bl	8000a50 <__cmpdf2>
 8000ae2:	2800      	cmp	r0, #0
 8000ae4:	bf48      	it	mi
 8000ae6:	f110 0f00 	cmnmi.w	r0, #0
 8000aea:	bd01      	pop	{r0, pc}

08000aec <__aeabi_dcmpeq>:
 8000aec:	f84d ed08 	str.w	lr, [sp, #-8]!
 8000af0:	f7ff fff4 	bl	8000adc <__aeabi_cdcmpeq>
 8000af4:	bf0c      	ite	eq
 8000af6:	2001      	moveq	r0, #1
 8000af8:	2000      	movne	r0, #0
 8000afa:	f85d fb08 	ldr.w	pc, [sp], #8
 8000afe:	bf00      	nop

08000b00 <__aeabi_dcmplt>:
 8000b00:	f84d ed08 	str.w	lr, [sp, #-8]!
 8000b04:	f7ff ffea 	bl	8000adc <__aeabi_cdcmpeq>
 8000b08:	bf34      	ite	cc
 8000b0a:	2001      	movcc	r0, #1
 8000b0c:	2000      	movcs	r0, #0
 8000b0e:	f85d fb08 	ldr.w	pc, [sp], #8
 8000b12:	bf00      	nop

08000b14 <__aeabi_dcmple>:
 8000b14:	f84d ed08 	str.w	lr, [sp, #-8]!
 8000b18:	f7ff ffe0 	bl	8000adc <__aeabi_cdcmpeq>
 8000b1c:	bf94      	ite	ls
 8000b1e:	2001      	movls	r0, #1
 8000b20:	2000      	movhi	r0, #0
 8000b22:	f85d fb08 	ldr.w	pc, [sp], #8
 8000b26:	bf00      	nop

08000b28 <__aeabi_dcmpge>:
 8000b28:	f84d ed08 	str.w	lr, [sp, #-8]!
 8000b2c:	f7ff ffce 	bl	8000acc <__aeabi_cdrcmple>
 8000b30:	bf94      	ite	ls
 8000b32:	2001      	movls	r0, #1
 8000b34:	2000      	movhi	r0, #0
 8000b36:	f85d fb08 	ldr.w	pc, [sp], #8
 8000b3a:	bf00      	nop

08000b3c <__aeabi_dcmpgt>:
 8000b3c:	f84d ed08 	str.w	lr, [sp, #-8]!
 8000b40:	f7ff ffc4 	bl	8000acc <__aeabi_cdrcmple>
 8000b44:	bf34      	ite	cc
 8000b46:	2001      	movcc	r0, #1
 8000b48:	2000      	movcs	r0, #0
 8000b4a:	f85d fb08 	ldr.w	pc, [sp], #8
 8000b4e:	bf00      	nop

08000b50 <__aeabi_dcmpun>:
 8000b50:	ea4f 0c41 	mov.w	ip, r1, lsl #1
 8000b54:	ea7f 5c6c 	mvns.w	ip, ip, asr #21
 8000b58:	d102      	bne.n	8000b60 <__aeabi_dcmpun+0x10>
 8000b5a:	ea50 3c01 	orrs.w	ip, r0, r1, lsl #12
 8000b5e:	d10a      	bne.n	8000b76 <__aeabi_dcmpun+0x26>
 8000b60:	ea4f 0c43 	mov.w	ip, r3, lsl #1
 8000b64:	ea7f 5c6c 	mvns.w	ip, ip, asr #21
 8000b68:	d102      	bne.n	8000b70 <__aeabi_dcmpun+0x20>
 8000b6a:	ea52 3c03 	orrs.w	ip, r2, r3, lsl #12
 8000b6e:	d102      	bne.n	8000b76 <__aeabi_dcmpun+0x26>
 8000b70:	f04f 0000 	mov.w	r0, #0
 8000b74:	4770      	bx	lr
 8000b76:	f04f 0001 	mov.w	r0, #1
 8000b7a:	4770      	bx	lr

08000b7c <__aeabi_d2iz>:
 8000b7c:	ea4f 0241 	mov.w	r2, r1, lsl #1
 8000b80:	f512 1200 	adds.w	r2, r2, #2097152	@ 0x200000
 8000b84:	d215      	bcs.n	8000bb2 <__aeabi_d2iz+0x36>
 8000b86:	d511      	bpl.n	8000bac <__aeabi_d2iz+0x30>
 8000b88:	f46f 7378 	mvn.w	r3, #992	@ 0x3e0
 8000b8c:	ebb3 5262 	subs.w	r2, r3, r2, asr #21
 8000b90:	d912      	bls.n	8000bb8 <__aeabi_d2iz+0x3c>
 8000b92:	ea4f 23c1 	mov.w	r3, r1, lsl #11
 8000b96:	f043 4300 	orr.w	r3, r3, #2147483648	@ 0x80000000
 8000b9a:	ea43 5350 	orr.w	r3, r3, r0, lsr #21
 8000b9e:	f011 4f00 	tst.w	r1, #2147483648	@ 0x80000000
 8000ba2:	fa23 f002 	lsr.w	r0, r3, r2
 8000ba6:	bf18      	it	ne
 8000ba8:	4240      	negne	r0, r0
 8000baa:	4770      	bx	lr
 8000bac:	f04f 0000 	mov.w	r0, #0
 8000bb0:	4770      	bx	lr
 8000bb2:	ea50 3001 	orrs.w	r0, r0, r1, lsl #12
 8000bb6:	d105      	bne.n	8000bc4 <__aeabi_d2iz+0x48>
 8000bb8:	f011 4000 	ands.w	r0, r1, #2147483648	@ 0x80000000
 8000bbc:	bf08      	it	eq
 8000bbe:	f06f 4000 	mvneq.w	r0, #2147483648	@ 0x80000000
 8000bc2:	4770      	bx	lr
 8000bc4:	f04f 0000 	mov.w	r0, #0
 8000bc8:	4770      	bx	lr
 8000bca:	bf00      	nop

08000bcc <finished_transmission>:
#endif

//  Function to check if input is the command "start"
int is_start_command(char *input);
// Optional visual delay after transmission
void finished_transmission(uint32_t bytes_sent) {
 8000bcc:	b480      	push	{r7}
 8000bce:	b085      	sub	sp, #20
 8000bd0:	af00      	add	r7, sp, #0
 8000bd2:	6078      	str	r0, [r7, #4]
    for (volatile uint32_t i = 0; i < 0x3ffff; i++) { }
 8000bd4:	2300      	movs	r3, #0
 8000bd6:	60fb      	str	r3, [r7, #12]
 8000bd8:	e002      	b.n	8000be0 <finished_transmission+0x14>
 8000bda:	68fb      	ldr	r3, [r7, #12]
 8000bdc:	3301      	adds	r3, #1
 8000bde:	60fb      	str	r3, [r7, #12]
 8000be0:	68fb      	ldr	r3, [r7, #12]
 8000be2:	4a04      	ldr	r2, [pc, #16]	@ (8000bf4 <finished_transmission+0x28>)
 8000be4:	4293      	cmp	r3, r2
 8000be6:	d9f8      	bls.n	8000bda <finished_transmission+0xe>
}
 8000be8:	bf00      	nop
 8000bea:	bf00      	nop
 8000bec:	3714      	adds	r7, #20
 8000bee:	46bd      	mov	sp, r7
 8000bf0:	bc80      	pop	{r7}
 8000bf2:	4770      	bx	lr
 8000bf4:	0003fffe 	.word	0x0003fffe

08000bf8 <main>:
void read_write_start(void);
const int NUMBER_OF_SHAPES = 16;


int main(void)
{
 8000bf8:	b580      	push	{r7, lr}
 8000bfa:	b082      	sub	sp, #8
 8000bfc:	af00      	add	r7, sp, #0
	char *string_to_send = "I'm on a roll!\r\n";
 8000bfe:	4b09      	ldr	r3, [pc, #36]	@ (8000c24 <main+0x2c>)
 8000c00:	607b      	str	r3, [r7, #4]
	SerialInitialise(BAUD_115200, &USART1_PORT, &finished_transmission);
 8000c02:	4a09      	ldr	r2, [pc, #36]	@ (8000c28 <main+0x30>)
 8000c04:	4909      	ldr	r1, [pc, #36]	@ (8000c2c <main+0x34>)
 8000c06:	2004      	movs	r0, #4
 8000c08:	f000 f888 	bl	8000d1c <SerialInitialise>
	SerialOutputString((char *)"sup bitch ass \r\n", &USART1_PORT);
 8000c0c:	4907      	ldr	r1, [pc, #28]	@ (8000c2c <main+0x34>)
 8000c0e:	4808      	ldr	r0, [pc, #32]	@ (8000c30 <main+0x38>)
 8000c10:	f000 f91a 	bl	8000e48 <SerialOutputString>
	read_write_start();
 8000c14:	f000 f80e 	bl	8000c34 <read_write_start>

	//ShapeDemo();

	/* Loop forever */
	for(;;) {
		SerialOutputString(string_to_send, &USART1_PORT);
 8000c18:	4904      	ldr	r1, [pc, #16]	@ (8000c2c <main+0x34>)
 8000c1a:	6878      	ldr	r0, [r7, #4]
 8000c1c:	f000 f914 	bl	8000e48 <SerialOutputString>
 8000c20:	e7fa      	b.n	8000c18 <main+0x20>
 8000c22:	bf00      	nop
 8000c24:	080039d0 	.word	0x080039d0
 8000c28:	08000bcd 	.word	0x08000bcd
 8000c2c:	20000000 	.word	0x20000000
 8000c30:	080039e4 	.word	0x080039e4

08000c34 <read_write_start>:





void read_write_start(void) {
 8000c34:	b5b0      	push	{r4, r5, r7, lr}
 8000c36:	b088      	sub	sp, #32
 8000c38:	af00      	add	r7, sp, #0
while (!input_received_flag){
 8000c3a:	e05d      	b.n	8000cf8 <read_write_start+0xc4>
	while (SerialInputAvailable(&USART1_PORT)) {
        uint8_t c = SerialReadChar(&USART1_PORT);
 8000c3c:	4832      	ldr	r0, [pc, #200]	@ (8000d08 <read_write_start+0xd4>)
 8000c3e:	f000 f931 	bl	8000ea4 <SerialReadChar>
 8000c42:	4603      	mov	r3, r0
 8000c44:	76fb      	strb	r3, [r7, #27]
        if (string_index < MAX_BUFFER_LENGTH - 1) {
 8000c46:	4b31      	ldr	r3, [pc, #196]	@ (8000d0c <read_write_start+0xd8>)
 8000c48:	681b      	ldr	r3, [r3, #0]
 8000c4a:	2b62      	cmp	r3, #98	@ 0x62
 8000c4c:	d817      	bhi.n	8000c7e <read_write_start+0x4a>
            received_string[string_index++] = c;
 8000c4e:	4b2f      	ldr	r3, [pc, #188]	@ (8000d0c <read_write_start+0xd8>)
 8000c50:	681b      	ldr	r3, [r3, #0]
 8000c52:	1c5a      	adds	r2, r3, #1
 8000c54:	492d      	ldr	r1, [pc, #180]	@ (8000d0c <read_write_start+0xd8>)
 8000c56:	600a      	str	r2, [r1, #0]
 8000c58:	492d      	ldr	r1, [pc, #180]	@ (8000d10 <read_write_start+0xdc>)
 8000c5a:	7efa      	ldrb	r2, [r7, #27]
 8000c5c:	54ca      	strb	r2, [r1, r3]
            if (c == '\n' || c == '\r') {
 8000c5e:	7efb      	ldrb	r3, [r7, #27]
 8000c60:	2b0a      	cmp	r3, #10
 8000c62:	d002      	beq.n	8000c6a <read_write_start+0x36>
 8000c64:	7efb      	ldrb	r3, [r7, #27]
 8000c66:	2b0d      	cmp	r3, #13
 8000c68:	d10e      	bne.n	8000c88 <read_write_start+0x54>
                received_string[string_index - 1] = '\0'; // null-terminate
 8000c6a:	4b28      	ldr	r3, [pc, #160]	@ (8000d0c <read_write_start+0xd8>)
 8000c6c:	681b      	ldr	r3, [r3, #0]
 8000c6e:	3b01      	subs	r3, #1
 8000c70:	4a27      	ldr	r2, [pc, #156]	@ (8000d10 <read_write_start+0xdc>)
 8000c72:	2100      	movs	r1, #0
 8000c74:	54d1      	strb	r1, [r2, r3]
                input_received_flag = 1;
 8000c76:	4b27      	ldr	r3, [pc, #156]	@ (8000d14 <read_write_start+0xe0>)
 8000c78:	2201      	movs	r2, #1
 8000c7a:	701a      	strb	r2, [r3, #0]
 8000c7c:	e004      	b.n	8000c88 <read_write_start+0x54>
            }
        }
        else {
            string_index = 0;
 8000c7e:	4b23      	ldr	r3, [pc, #140]	@ (8000d0c <read_write_start+0xd8>)
 8000c80:	2200      	movs	r2, #0
 8000c82:	601a      	str	r2, [r3, #0]
            read_write_start();
 8000c84:	f7ff ffd6 	bl	8000c34 <read_write_start>
	while (SerialInputAvailable(&USART1_PORT)) {
 8000c88:	481f      	ldr	r0, [pc, #124]	@ (8000d08 <read_write_start+0xd4>)
 8000c8a:	f000 f8fd 	bl	8000e88 <SerialInputAvailable>
 8000c8e:	4603      	mov	r3, r0
 8000c90:	2b00      	cmp	r3, #0
 8000c92:	d1d3      	bne.n	8000c3c <read_write_start+0x8>

        }
	}

    if (input_received_flag == 1) {
 8000c94:	4b1f      	ldr	r3, [pc, #124]	@ (8000d14 <read_write_start+0xe0>)
 8000c96:	781b      	ldrb	r3, [r3, #0]
 8000c98:	b2db      	uxtb	r3, r3
 8000c9a:	2b01      	cmp	r3, #1
 8000c9c:	d12c      	bne.n	8000cf8 <read_write_start+0xc4>
        SerialOutputString((uint8_t *)received_string, &USART1_PORT);
 8000c9e:	491a      	ldr	r1, [pc, #104]	@ (8000d08 <read_write_start+0xd4>)
 8000ca0:	481b      	ldr	r0, [pc, #108]	@ (8000d10 <read_write_start+0xdc>)
 8000ca2:	f000 f8d1 	bl	8000e48 <SerialOutputString>
        //  Check if the command is "start" // if not - restart the while loop
        if (is_start_command(received_string) == 1) {
 8000ca6:	481a      	ldr	r0, [pc, #104]	@ (8000d10 <read_write_start+0xdc>)
 8000ca8:	f000 f90a 	bl	8000ec0 <is_start_command>
 8000cac:	4603      	mov	r3, r0
 8000cae:	2b01      	cmp	r3, #1
 8000cb0:	d10e      	bne.n	8000cd0 <read_write_start+0x9c>
            uint8_t response[] = "\nCommand START received.\n";
 8000cb2:	4b19      	ldr	r3, [pc, #100]	@ (8000d18 <read_write_start+0xe4>)
 8000cb4:	463c      	mov	r4, r7
 8000cb6:	461d      	mov	r5, r3
 8000cb8:	cd0f      	ldmia	r5!, {r0, r1, r2, r3}
 8000cba:	c40f      	stmia	r4!, {r0, r1, r2, r3}
 8000cbc:	e895 0007 	ldmia.w	r5, {r0, r1, r2}
 8000cc0:	c403      	stmia	r4!, {r0, r1}
 8000cc2:	8022      	strh	r2, [r4, #0]
            SerialOutputString(response, &USART1_PORT);
 8000cc4:	463b      	mov	r3, r7
 8000cc6:	4910      	ldr	r1, [pc, #64]	@ (8000d08 <read_write_start+0xd4>)
 8000cc8:	4618      	mov	r0, r3
 8000cca:	f000 f8bd 	bl	8000e48 <SerialOutputString>
 8000cce:	e018      	b.n	8000d02 <read_write_start+0xce>
            return;
        }
        // Reset
        string_index = 0;
 8000cd0:	4b0e      	ldr	r3, [pc, #56]	@ (8000d0c <read_write_start+0xd8>)
 8000cd2:	2200      	movs	r2, #0
 8000cd4:	601a      	str	r2, [r3, #0]
        input_received_flag = 0;
 8000cd6:	4b0f      	ldr	r3, [pc, #60]	@ (8000d14 <read_write_start+0xe0>)
 8000cd8:	2200      	movs	r2, #0
 8000cda:	701a      	strb	r2, [r3, #0]

        for (uint32_t i = 0; i < MAX_BUFFER_LENGTH; i++) {
 8000cdc:	2300      	movs	r3, #0
 8000cde:	61fb      	str	r3, [r7, #28]
 8000ce0:	e007      	b.n	8000cf2 <read_write_start+0xbe>
       	received_string[i] = 0;
 8000ce2:	4a0b      	ldr	r2, [pc, #44]	@ (8000d10 <read_write_start+0xdc>)
 8000ce4:	69fb      	ldr	r3, [r7, #28]
 8000ce6:	4413      	add	r3, r2
 8000ce8:	2200      	movs	r2, #0
 8000cea:	701a      	strb	r2, [r3, #0]
        for (uint32_t i = 0; i < MAX_BUFFER_LENGTH; i++) {
 8000cec:	69fb      	ldr	r3, [r7, #28]
 8000cee:	3301      	adds	r3, #1
 8000cf0:	61fb      	str	r3, [r7, #28]
 8000cf2:	69fb      	ldr	r3, [r7, #28]
 8000cf4:	2b63      	cmp	r3, #99	@ 0x63
 8000cf6:	d9f4      	bls.n	8000ce2 <read_write_start+0xae>
while (!input_received_flag){
 8000cf8:	4b06      	ldr	r3, [pc, #24]	@ (8000d14 <read_write_start+0xe0>)
 8000cfa:	781b      	ldrb	r3, [r3, #0]
 8000cfc:	b2db      	uxtb	r3, r3
 8000cfe:	2b00      	cmp	r3, #0
 8000d00:	d0c2      	beq.n	8000c88 <read_write_start+0x54>
        }
    }
}
}
 8000d02:	3720      	adds	r7, #32
 8000d04:	46bd      	mov	sp, r7
 8000d06:	bdb0      	pop	{r4, r5, r7, pc}
 8000d08:	20000000 	.word	0x20000000
 8000d0c:	20000274 	.word	0x20000274
 8000d10:	20000210 	.word	0x20000210
 8000d14:	2000020c 	.word	0x2000020c
 8000d18:	08003a40 	.word	0x08003a40

08000d1c <SerialInitialise>:
		};


// InitialiseSerial - Initialise the serial port
// Input: baudRate is from an enumerated set
void SerialInitialise(uint32_t baudRate, SerialPort *serial_port, void (*completion_function)(uint32_t)) {
 8000d1c:	b480      	push	{r7}
 8000d1e:	b087      	sub	sp, #28
 8000d20:	af00      	add	r7, sp, #0
 8000d22:	60f8      	str	r0, [r7, #12]
 8000d24:	60b9      	str	r1, [r7, #8]
 8000d26:	607a      	str	r2, [r7, #4]

	serial_port->completion_function = completion_function;
 8000d28:	68bb      	ldr	r3, [r7, #8]
 8000d2a:	687a      	ldr	r2, [r7, #4]
 8000d2c:	625a      	str	r2, [r3, #36]	@ 0x24

	// enable clock power, system configuration clock and GPIOC
	// common to all UARTs
	RCC->APB1ENR |= RCC_APB1ENR_PWREN;
 8000d2e:	4b39      	ldr	r3, [pc, #228]	@ (8000e14 <SerialInitialise+0xf8>)
 8000d30:	69db      	ldr	r3, [r3, #28]
 8000d32:	4a38      	ldr	r2, [pc, #224]	@ (8000e14 <SerialInitialise+0xf8>)
 8000d34:	f043 5380 	orr.w	r3, r3, #268435456	@ 0x10000000
 8000d38:	61d3      	str	r3, [r2, #28]
	RCC->APB2ENR |= RCC_APB2ENR_SYSCFGEN;
 8000d3a:	4b36      	ldr	r3, [pc, #216]	@ (8000e14 <SerialInitialise+0xf8>)
 8000d3c:	699b      	ldr	r3, [r3, #24]
 8000d3e:	4a35      	ldr	r2, [pc, #212]	@ (8000e14 <SerialInitialise+0xf8>)
 8000d40:	f043 0301 	orr.w	r3, r3, #1
 8000d44:	6193      	str	r3, [r2, #24]

	// enable the GPIO which is on the AHB bus
	RCC->AHBENR |= serial_port->MaskAHBENR;
 8000d46:	68bb      	ldr	r3, [r7, #8]
 8000d48:	691a      	ldr	r2, [r3, #16]
 8000d4a:	4b32      	ldr	r3, [pc, #200]	@ (8000e14 <SerialInitialise+0xf8>)
 8000d4c:	695b      	ldr	r3, [r3, #20]
 8000d4e:	4931      	ldr	r1, [pc, #196]	@ (8000e14 <SerialInitialise+0xf8>)
 8000d50:	4313      	orrs	r3, r2
 8000d52:	614b      	str	r3, [r1, #20]

	// set pin mode to alternate function for the specific GPIO pins
	serial_port->GPIO->MODER = serial_port->SerialPinModeValue;
 8000d54:	68bb      	ldr	r3, [r7, #8]
 8000d56:	685b      	ldr	r3, [r3, #4]
 8000d58:	68ba      	ldr	r2, [r7, #8]
 8000d5a:	6952      	ldr	r2, [r2, #20]
 8000d5c:	601a      	str	r2, [r3, #0]

	// enable high speed clock for specific GPIO pins
	serial_port->GPIO->OSPEEDR = serial_port->SerialPinSpeedValue;
 8000d5e:	68bb      	ldr	r3, [r7, #8]
 8000d60:	685b      	ldr	r3, [r3, #4]
 8000d62:	68ba      	ldr	r2, [r7, #8]
 8000d64:	6992      	ldr	r2, [r2, #24]
 8000d66:	609a      	str	r2, [r3, #8]

	// set alternate function to enable USART to external pins
	serial_port->GPIO->AFR[0] |= serial_port->SerialPinAlternatePinValueLow;
 8000d68:	68bb      	ldr	r3, [r7, #8]
 8000d6a:	69d9      	ldr	r1, [r3, #28]
 8000d6c:	68bb      	ldr	r3, [r7, #8]
 8000d6e:	685b      	ldr	r3, [r3, #4]
 8000d70:	6a1a      	ldr	r2, [r3, #32]
 8000d72:	68bb      	ldr	r3, [r7, #8]
 8000d74:	685b      	ldr	r3, [r3, #4]
 8000d76:	430a      	orrs	r2, r1
 8000d78:	621a      	str	r2, [r3, #32]
	serial_port->GPIO->AFR[1] |= serial_port->SerialPinAlternatePinValueHigh;
 8000d7a:	68bb      	ldr	r3, [r7, #8]
 8000d7c:	6a19      	ldr	r1, [r3, #32]
 8000d7e:	68bb      	ldr	r3, [r7, #8]
 8000d80:	685b      	ldr	r3, [r3, #4]
 8000d82:	6a5a      	ldr	r2, [r3, #36]	@ 0x24
 8000d84:	68bb      	ldr	r3, [r7, #8]
 8000d86:	685b      	ldr	r3, [r3, #4]
 8000d88:	430a      	orrs	r2, r1
 8000d8a:	625a      	str	r2, [r3, #36]	@ 0x24

	// enable the device based on the bits defined in the serial port definition
	RCC->APB1ENR |= serial_port->MaskAPB1ENR;
 8000d8c:	68bb      	ldr	r3, [r7, #8]
 8000d8e:	68da      	ldr	r2, [r3, #12]
 8000d90:	4b20      	ldr	r3, [pc, #128]	@ (8000e14 <SerialInitialise+0xf8>)
 8000d92:	69db      	ldr	r3, [r3, #28]
 8000d94:	491f      	ldr	r1, [pc, #124]	@ (8000e14 <SerialInitialise+0xf8>)
 8000d96:	4313      	orrs	r3, r2
 8000d98:	61cb      	str	r3, [r1, #28]
	RCC->APB2ENR |= serial_port->MaskAPB2ENR;
 8000d9a:	68bb      	ldr	r3, [r7, #8]
 8000d9c:	689a      	ldr	r2, [r3, #8]
 8000d9e:	4b1d      	ldr	r3, [pc, #116]	@ (8000e14 <SerialInitialise+0xf8>)
 8000da0:	699b      	ldr	r3, [r3, #24]
 8000da2:	491c      	ldr	r1, [pc, #112]	@ (8000e14 <SerialInitialise+0xf8>)
 8000da4:	4313      	orrs	r3, r2
 8000da6:	618b      	str	r3, [r1, #24]

	// Get a pointer to the 16 bits of the BRR register that we want to change
	uint16_t *baud_rate_config = (uint16_t*)&serial_port->UART->BRR; // only 16 bits used!
 8000da8:	68bb      	ldr	r3, [r7, #8]
 8000daa:	681b      	ldr	r3, [r3, #0]
 8000dac:	330c      	adds	r3, #12
 8000dae:	617b      	str	r3, [r7, #20]

	// Baud rate calculation from datasheet
	switch(baudRate){
 8000db0:	68fb      	ldr	r3, [r7, #12]
 8000db2:	2b04      	cmp	r3, #4
 8000db4:	d820      	bhi.n	8000df8 <SerialInitialise+0xdc>
 8000db6:	a201      	add	r2, pc, #4	@ (adr r2, 8000dbc <SerialInitialise+0xa0>)
 8000db8:	f852 f023 	ldr.w	pc, [r2, r3, lsl #2]
 8000dbc:	08000dd1 	.word	0x08000dd1
 8000dc0:	08000dd9 	.word	0x08000dd9
 8000dc4:	08000de1 	.word	0x08000de1
 8000dc8:	08000de9 	.word	0x08000de9
 8000dcc:	08000df1 	.word	0x08000df1
	case BAUD_9600:
		// NEED TO FIX THIS !
		*baud_rate_config = 0x46;  // 115200 at 8MHz
 8000dd0:	697b      	ldr	r3, [r7, #20]
 8000dd2:	2246      	movs	r2, #70	@ 0x46
 8000dd4:	801a      	strh	r2, [r3, #0]
		break;
 8000dd6:	e00f      	b.n	8000df8 <SerialInitialise+0xdc>
	case BAUD_19200:
		// NEED TO FIX THIS !
		*baud_rate_config = 0x46;  // 115200 at 8MHz
 8000dd8:	697b      	ldr	r3, [r7, #20]
 8000dda:	2246      	movs	r2, #70	@ 0x46
 8000ddc:	801a      	strh	r2, [r3, #0]
		break;
 8000dde:	e00b      	b.n	8000df8 <SerialInitialise+0xdc>
	case BAUD_38400:
		// NEED TO FIX THIS !
		*baud_rate_config = 0x46;  // 115200 at 8MHz
 8000de0:	697b      	ldr	r3, [r7, #20]
 8000de2:	2246      	movs	r2, #70	@ 0x46
 8000de4:	801a      	strh	r2, [r3, #0]
		break;
 8000de6:	e007      	b.n	8000df8 <SerialInitialise+0xdc>
	case BAUD_57600:
		// NEED TO FIX THIS !
		*baud_rate_config = 0x46;  // 115200 at 8MHz
 8000de8:	697b      	ldr	r3, [r7, #20]
 8000dea:	2246      	movs	r2, #70	@ 0x46
 8000dec:	801a      	strh	r2, [r3, #0]
		break;
 8000dee:	e003      	b.n	8000df8 <SerialInitialise+0xdc>
	case BAUD_115200:
		*baud_rate_config = 0x46;  // 115200 at 8MHz
 8000df0:	697b      	ldr	r3, [r7, #20]
 8000df2:	2246      	movs	r2, #70	@ 0x46
 8000df4:	801a      	strh	r2, [r3, #0]
		break;
 8000df6:	bf00      	nop
	}


	// enable serial port for tx and rx
	serial_port->UART->CR1 |= USART_CR1_TE | USART_CR1_RE | USART_CR1_UE;
 8000df8:	68bb      	ldr	r3, [r7, #8]
 8000dfa:	681b      	ldr	r3, [r3, #0]
 8000dfc:	681a      	ldr	r2, [r3, #0]
 8000dfe:	68bb      	ldr	r3, [r7, #8]
 8000e00:	681b      	ldr	r3, [r3, #0]
 8000e02:	f042 020d 	orr.w	r2, r2, #13
 8000e06:	601a      	str	r2, [r3, #0]
}
 8000e08:	bf00      	nop
 8000e0a:	371c      	adds	r7, #28
 8000e0c:	46bd      	mov	sp, r7
 8000e0e:	bc80      	pop	{r7}
 8000e10:	4770      	bx	lr
 8000e12:	bf00      	nop
 8000e14:	40021000 	.word	0x40021000

08000e18 <SerialOutputChar>:


void SerialOutputChar(uint8_t data, SerialPort *serial_port) {
 8000e18:	b480      	push	{r7}
 8000e1a:	b083      	sub	sp, #12
 8000e1c:	af00      	add	r7, sp, #0
 8000e1e:	4603      	mov	r3, r0
 8000e20:	6039      	str	r1, [r7, #0]
 8000e22:	71fb      	strb	r3, [r7, #7]

	while((serial_port->UART->ISR & USART_ISR_TXE) == 0){
 8000e24:	bf00      	nop
 8000e26:	683b      	ldr	r3, [r7, #0]
 8000e28:	681b      	ldr	r3, [r3, #0]
 8000e2a:	69db      	ldr	r3, [r3, #28]
 8000e2c:	f003 0380 	and.w	r3, r3, #128	@ 0x80
 8000e30:	2b00      	cmp	r3, #0
 8000e32:	d0f8      	beq.n	8000e26 <SerialOutputChar+0xe>
	}

	serial_port->UART->TDR = data;
 8000e34:	683b      	ldr	r3, [r7, #0]
 8000e36:	681b      	ldr	r3, [r3, #0]
 8000e38:	79fa      	ldrb	r2, [r7, #7]
 8000e3a:	b292      	uxth	r2, r2
 8000e3c:	851a      	strh	r2, [r3, #40]	@ 0x28
}
 8000e3e:	bf00      	nop
 8000e40:	370c      	adds	r7, #12
 8000e42:	46bd      	mov	sp, r7
 8000e44:	bc80      	pop	{r7}
 8000e46:	4770      	bx	lr

08000e48 <SerialOutputString>:



void SerialOutputString(uint8_t *pt, SerialPort *serial_port) {
 8000e48:	b580      	push	{r7, lr}
 8000e4a:	b084      	sub	sp, #16
 8000e4c:	af00      	add	r7, sp, #0
 8000e4e:	6078      	str	r0, [r7, #4]
 8000e50:	6039      	str	r1, [r7, #0]

	uint32_t counter = 0;
 8000e52:	2300      	movs	r3, #0
 8000e54:	60fb      	str	r3, [r7, #12]
	while(*pt) {
 8000e56:	e00b      	b.n	8000e70 <SerialOutputString+0x28>
		SerialOutputChar(*pt, serial_port);
 8000e58:	687b      	ldr	r3, [r7, #4]
 8000e5a:	781b      	ldrb	r3, [r3, #0]
 8000e5c:	6839      	ldr	r1, [r7, #0]
 8000e5e:	4618      	mov	r0, r3
 8000e60:	f7ff ffda 	bl	8000e18 <SerialOutputChar>
		counter++;
 8000e64:	68fb      	ldr	r3, [r7, #12]
 8000e66:	3301      	adds	r3, #1
 8000e68:	60fb      	str	r3, [r7, #12]
		pt++;
 8000e6a:	687b      	ldr	r3, [r7, #4]
 8000e6c:	3301      	adds	r3, #1
 8000e6e:	607b      	str	r3, [r7, #4]
	while(*pt) {
 8000e70:	687b      	ldr	r3, [r7, #4]
 8000e72:	781b      	ldrb	r3, [r3, #0]
 8000e74:	2b00      	cmp	r3, #0
 8000e76:	d1ef      	bne.n	8000e58 <SerialOutputString+0x10>
	}

	serial_port->completion_function(counter);
 8000e78:	683b      	ldr	r3, [r7, #0]
 8000e7a:	6a5b      	ldr	r3, [r3, #36]	@ 0x24
 8000e7c:	68f8      	ldr	r0, [r7, #12]
 8000e7e:	4798      	blx	r3
}
 8000e80:	bf00      	nop
 8000e82:	3710      	adds	r7, #16
 8000e84:	46bd      	mov	sp, r7
 8000e86:	bd80      	pop	{r7, pc}

08000e88 <SerialInputAvailable>:

int SerialInputAvailable(SerialPort *serial_port) {
 8000e88:	b480      	push	{r7}
 8000e8a:	b083      	sub	sp, #12
 8000e8c:	af00      	add	r7, sp, #0
 8000e8e:	6078      	str	r0, [r7, #4]
    return (serial_port->UART->ISR & USART_ISR_RXNE);
 8000e90:	687b      	ldr	r3, [r7, #4]
 8000e92:	681b      	ldr	r3, [r3, #0]
 8000e94:	69db      	ldr	r3, [r3, #28]
 8000e96:	f003 0320 	and.w	r3, r3, #32
}
 8000e9a:	4618      	mov	r0, r3
 8000e9c:	370c      	adds	r7, #12
 8000e9e:	46bd      	mov	sp, r7
 8000ea0:	bc80      	pop	{r7}
 8000ea2:	4770      	bx	lr

08000ea4 <SerialReadChar>:

uint8_t SerialReadChar(SerialPort *serial_port) {
 8000ea4:	b480      	push	{r7}
 8000ea6:	b083      	sub	sp, #12
 8000ea8:	af00      	add	r7, sp, #0
 8000eaa:	6078      	str	r0, [r7, #4]
    return serial_port->UART->RDR;
 8000eac:	687b      	ldr	r3, [r7, #4]
 8000eae:	681b      	ldr	r3, [r3, #0]
 8000eb0:	8c9b      	ldrh	r3, [r3, #36]	@ 0x24
 8000eb2:	b29b      	uxth	r3, r3
 8000eb4:	b2db      	uxtb	r3, r3
}
 8000eb6:	4618      	mov	r0, r3
 8000eb8:	370c      	adds	r7, #12
 8000eba:	46bd      	mov	sp, r7
 8000ebc:	bc80      	pop	{r7}
 8000ebe:	4770      	bx	lr

08000ec0 <is_start_command>:

//  Function to check if input is the command "start"
int is_start_command(const uint8_t *input) {
 8000ec0:	b580      	push	{r7, lr}
 8000ec2:	b082      	sub	sp, #8
 8000ec4:	af00      	add	r7, sp, #0
 8000ec6:	6078      	str	r0, [r7, #4]
    return strcmp((const char *)input, "start") == 0;
 8000ec8:	4906      	ldr	r1, [pc, #24]	@ (8000ee4 <is_start_command+0x24>)
 8000eca:	6878      	ldr	r0, [r7, #4]
 8000ecc:	f7ff f9e0 	bl	8000290 <strcmp>
 8000ed0:	4603      	mov	r3, r0
 8000ed2:	2b00      	cmp	r3, #0
 8000ed4:	bf0c      	ite	eq
 8000ed6:	2301      	moveq	r3, #1
 8000ed8:	2300      	movne	r3, #0
 8000eda:	b2db      	uxtb	r3, r3
}
 8000edc:	4618      	mov	r0, r3
 8000ede:	3708      	adds	r7, #8
 8000ee0:	46bd      	mov	sp, r7
 8000ee2:	bd80      	pop	{r7, pc}
 8000ee4:	08003a5c 	.word	0x08003a5c

08000ee8 <_getpid>:
void initialise_monitor_handles()
{
}

int _getpid(void)
{
 8000ee8:	b480      	push	{r7}
 8000eea:	af00      	add	r7, sp, #0
	return 1;
 8000eec:	2301      	movs	r3, #1
}
 8000eee:	4618      	mov	r0, r3
 8000ef0:	46bd      	mov	sp, r7
 8000ef2:	bc80      	pop	{r7}
 8000ef4:	4770      	bx	lr

08000ef6 <_kill>:

int _kill(int pid, int sig)
{
 8000ef6:	b580      	push	{r7, lr}
 8000ef8:	b082      	sub	sp, #8
 8000efa:	af00      	add	r7, sp, #0
 8000efc:	6078      	str	r0, [r7, #4]
 8000efe:	6039      	str	r1, [r7, #0]
	errno = EINVAL;
 8000f00:	f000 feca 	bl	8001c98 <__errno>
 8000f04:	4603      	mov	r3, r0
 8000f06:	2216      	movs	r2, #22
 8000f08:	601a      	str	r2, [r3, #0]
	return -1;
 8000f0a:	f04f 33ff 	mov.w	r3, #4294967295	@ 0xffffffff
}
 8000f0e:	4618      	mov	r0, r3
 8000f10:	3708      	adds	r7, #8
 8000f12:	46bd      	mov	sp, r7
 8000f14:	bd80      	pop	{r7, pc}

08000f16 <_exit>:

void _exit (int status)
{
 8000f16:	b580      	push	{r7, lr}
 8000f18:	b082      	sub	sp, #8
 8000f1a:	af00      	add	r7, sp, #0
 8000f1c:	6078      	str	r0, [r7, #4]
	_kill(status, -1);
 8000f1e:	f04f 31ff 	mov.w	r1, #4294967295	@ 0xffffffff
 8000f22:	6878      	ldr	r0, [r7, #4]
 8000f24:	f7ff ffe7 	bl	8000ef6 <_kill>
	while (1) {}		/* Make sure we hang here */
 8000f28:	bf00      	nop
 8000f2a:	e7fd      	b.n	8000f28 <_exit+0x12>

08000f2c <_read>:
}

__attribute__((weak)) int _read(int file, char *ptr, int len)
{
 8000f2c:	b580      	push	{r7, lr}
 8000f2e:	b086      	sub	sp, #24
 8000f30:	af00      	add	r7, sp, #0
 8000f32:	60f8      	str	r0, [r7, #12]
 8000f34:	60b9      	str	r1, [r7, #8]
 8000f36:	607a      	str	r2, [r7, #4]
	int DataIdx;

	for (DataIdx = 0; DataIdx < len; DataIdx++)
 8000f38:	2300      	movs	r3, #0
 8000f3a:	617b      	str	r3, [r7, #20]
 8000f3c:	e00a      	b.n	8000f54 <_read+0x28>
	{
		*ptr++ = __io_getchar();
 8000f3e:	f3af 8000 	nop.w
 8000f42:	4601      	mov	r1, r0
 8000f44:	68bb      	ldr	r3, [r7, #8]
 8000f46:	1c5a      	adds	r2, r3, #1
 8000f48:	60ba      	str	r2, [r7, #8]
 8000f4a:	b2ca      	uxtb	r2, r1
 8000f4c:	701a      	strb	r2, [r3, #0]
	for (DataIdx = 0; DataIdx < len; DataIdx++)
 8000f4e:	697b      	ldr	r3, [r7, #20]
 8000f50:	3301      	adds	r3, #1
 8000f52:	617b      	str	r3, [r7, #20]
 8000f54:	697a      	ldr	r2, [r7, #20]
 8000f56:	687b      	ldr	r3, [r7, #4]
 8000f58:	429a      	cmp	r2, r3
 8000f5a:	dbf0      	blt.n	8000f3e <_read+0x12>
	}

return len;
 8000f5c:	687b      	ldr	r3, [r7, #4]
}
 8000f5e:	4618      	mov	r0, r3
 8000f60:	3718      	adds	r7, #24
 8000f62:	46bd      	mov	sp, r7
 8000f64:	bd80      	pop	{r7, pc}

08000f66 <_write>:

__attribute__((weak)) int _write(int file, char *ptr, int len)
{
 8000f66:	b580      	push	{r7, lr}
 8000f68:	b086      	sub	sp, #24
 8000f6a:	af00      	add	r7, sp, #0
 8000f6c:	60f8      	str	r0, [r7, #12]
 8000f6e:	60b9      	str	r1, [r7, #8]
 8000f70:	607a      	str	r2, [r7, #4]
	int DataIdx;

	for (DataIdx = 0; DataIdx < len; DataIdx++)
 8000f72:	2300      	movs	r3, #0
 8000f74:	617b      	str	r3, [r7, #20]
 8000f76:	e009      	b.n	8000f8c <_write+0x26>
	{
		__io_putchar(*ptr++);
 8000f78:	68bb      	ldr	r3, [r7, #8]
 8000f7a:	1c5a      	adds	r2, r3, #1
 8000f7c:	60ba      	str	r2, [r7, #8]
 8000f7e:	781b      	ldrb	r3, [r3, #0]
 8000f80:	4618      	mov	r0, r3
 8000f82:	f3af 8000 	nop.w
	for (DataIdx = 0; DataIdx < len; DataIdx++)
 8000f86:	697b      	ldr	r3, [r7, #20]
 8000f88:	3301      	adds	r3, #1
 8000f8a:	617b      	str	r3, [r7, #20]
 8000f8c:	697a      	ldr	r2, [r7, #20]
 8000f8e:	687b      	ldr	r3, [r7, #4]
 8000f90:	429a      	cmp	r2, r3
 8000f92:	dbf1      	blt.n	8000f78 <_write+0x12>
	}
	return len;
 8000f94:	687b      	ldr	r3, [r7, #4]
}
 8000f96:	4618      	mov	r0, r3
 8000f98:	3718      	adds	r7, #24
 8000f9a:	46bd      	mov	sp, r7
 8000f9c:	bd80      	pop	{r7, pc}

08000f9e <_close>:

int _close(int file)
{
 8000f9e:	b480      	push	{r7}
 8000fa0:	b083      	sub	sp, #12
 8000fa2:	af00      	add	r7, sp, #0
 8000fa4:	6078      	str	r0, [r7, #4]
	return -1;
 8000fa6:	f04f 33ff 	mov.w	r3, #4294967295	@ 0xffffffff
}
 8000faa:	4618      	mov	r0, r3
 8000fac:	370c      	adds	r7, #12
 8000fae:	46bd      	mov	sp, r7
 8000fb0:	bc80      	pop	{r7}
 8000fb2:	4770      	bx	lr

08000fb4 <_fstat>:


int _fstat(int file, struct stat *st)
{
 8000fb4:	b480      	push	{r7}
 8000fb6:	b083      	sub	sp, #12
 8000fb8:	af00      	add	r7, sp, #0
 8000fba:	6078      	str	r0, [r7, #4]
 8000fbc:	6039      	str	r1, [r7, #0]
	st->st_mode = S_IFCHR;
 8000fbe:	683b      	ldr	r3, [r7, #0]
 8000fc0:	f44f 5200 	mov.w	r2, #8192	@ 0x2000
 8000fc4:	605a      	str	r2, [r3, #4]
	return 0;
 8000fc6:	2300      	movs	r3, #0
}
 8000fc8:	4618      	mov	r0, r3
 8000fca:	370c      	adds	r7, #12
 8000fcc:	46bd      	mov	sp, r7
 8000fce:	bc80      	pop	{r7}
 8000fd0:	4770      	bx	lr

08000fd2 <_isatty>:

int _isatty(int file)
{
 8000fd2:	b480      	push	{r7}
 8000fd4:	b083      	sub	sp, #12
 8000fd6:	af00      	add	r7, sp, #0
 8000fd8:	6078      	str	r0, [r7, #4]
	return 1;
 8000fda:	2301      	movs	r3, #1
}
 8000fdc:	4618      	mov	r0, r3
 8000fde:	370c      	adds	r7, #12
 8000fe0:	46bd      	mov	sp, r7
 8000fe2:	bc80      	pop	{r7}
 8000fe4:	4770      	bx	lr

08000fe6 <_lseek>:

int _lseek(int file, int ptr, int dir)
{
 8000fe6:	b480      	push	{r7}
 8000fe8:	b085      	sub	sp, #20
 8000fea:	af00      	add	r7, sp, #0
 8000fec:	60f8      	str	r0, [r7, #12]
 8000fee:	60b9      	str	r1, [r7, #8]
 8000ff0:	607a      	str	r2, [r7, #4]
	return 0;
 8000ff2:	2300      	movs	r3, #0
}
 8000ff4:	4618      	mov	r0, r3
 8000ff6:	3714      	adds	r7, #20
 8000ff8:	46bd      	mov	sp, r7
 8000ffa:	bc80      	pop	{r7}
 8000ffc:	4770      	bx	lr
	...

08001000 <_sbrk>:
 *
 * @param incr Memory size
 * @return Pointer to allocated memory
 */
void *_sbrk(ptrdiff_t incr)
{
 8001000:	b580      	push	{r7, lr}
 8001002:	b086      	sub	sp, #24
 8001004:	af00      	add	r7, sp, #0
 8001006:	6078      	str	r0, [r7, #4]
  extern uint8_t _end; /* Symbol defined in the linker script */
  extern uint8_t _estack; /* Symbol defined in the linker script */
  extern uint32_t _Min_Stack_Size; /* Symbol defined in the linker script */
  const uint32_t stack_limit = (uint32_t)&_estack - (uint32_t)&_Min_Stack_Size;
 8001008:	4a14      	ldr	r2, [pc, #80]	@ (800105c <_sbrk+0x5c>)
 800100a:	4b15      	ldr	r3, [pc, #84]	@ (8001060 <_sbrk+0x60>)
 800100c:	1ad3      	subs	r3, r2, r3
 800100e:	617b      	str	r3, [r7, #20]
  const uint8_t *max_heap = (uint8_t *)stack_limit;
 8001010:	697b      	ldr	r3, [r7, #20]
 8001012:	613b      	str	r3, [r7, #16]
  uint8_t *prev_heap_end;

  /* Initialize heap end at first call */
  if (NULL == __sbrk_heap_end)
 8001014:	4b13      	ldr	r3, [pc, #76]	@ (8001064 <_sbrk+0x64>)
 8001016:	681b      	ldr	r3, [r3, #0]
 8001018:	2b00      	cmp	r3, #0
 800101a:	d102      	bne.n	8001022 <_sbrk+0x22>
  {
    __sbrk_heap_end = &_end;
 800101c:	4b11      	ldr	r3, [pc, #68]	@ (8001064 <_sbrk+0x64>)
 800101e:	4a12      	ldr	r2, [pc, #72]	@ (8001068 <_sbrk+0x68>)
 8001020:	601a      	str	r2, [r3, #0]
  }

  /* Protect heap from growing into the reserved MSP stack */
  if (__sbrk_heap_end + incr > max_heap)
 8001022:	4b10      	ldr	r3, [pc, #64]	@ (8001064 <_sbrk+0x64>)
 8001024:	681a      	ldr	r2, [r3, #0]
 8001026:	687b      	ldr	r3, [r7, #4]
 8001028:	4413      	add	r3, r2
 800102a:	693a      	ldr	r2, [r7, #16]
 800102c:	429a      	cmp	r2, r3
 800102e:	d207      	bcs.n	8001040 <_sbrk+0x40>
  {
    errno = ENOMEM;
 8001030:	f000 fe32 	bl	8001c98 <__errno>
 8001034:	4603      	mov	r3, r0
 8001036:	220c      	movs	r2, #12
 8001038:	601a      	str	r2, [r3, #0]
    return (void *)-1;
 800103a:	f04f 33ff 	mov.w	r3, #4294967295	@ 0xffffffff
 800103e:	e009      	b.n	8001054 <_sbrk+0x54>
  }

  prev_heap_end = __sbrk_heap_end;
 8001040:	4b08      	ldr	r3, [pc, #32]	@ (8001064 <_sbrk+0x64>)
 8001042:	681b      	ldr	r3, [r3, #0]
 8001044:	60fb      	str	r3, [r7, #12]
  __sbrk_heap_end += incr;
 8001046:	4b07      	ldr	r3, [pc, #28]	@ (8001064 <_sbrk+0x64>)
 8001048:	681a      	ldr	r2, [r3, #0]
 800104a:	687b      	ldr	r3, [r7, #4]
 800104c:	4413      	add	r3, r2
 800104e:	4a05      	ldr	r2, [pc, #20]	@ (8001064 <_sbrk+0x64>)
 8001050:	6013      	str	r3, [r2, #0]

  return (void *)prev_heap_end;
 8001052:	68fb      	ldr	r3, [r7, #12]
}
 8001054:	4618      	mov	r0, r3
 8001056:	3718      	adds	r7, #24
 8001058:	46bd      	mov	sp, r7
 800105a:	bd80      	pop	{r7, pc}
 800105c:	2000a000 	.word	0x2000a000
 8001060:	00000400 	.word	0x00000400
 8001064:	20000278 	.word	0x20000278
 8001068:	200003c8 	.word	0x200003c8

0800106c <Reset_Handler>:

  .section .text.Reset_Handler
  .weak Reset_Handler
  .type Reset_Handler, %function
Reset_Handler:
  ldr   r0, =_estack
 800106c:	480d      	ldr	r0, [pc, #52]	@ (80010a4 <LoopForever+0x2>)
  mov   sp, r0          /* set stack pointer */
 800106e:	4685      	mov	sp, r0
/* Call the clock system initialization function.*/
  bl  SystemInit
 8001070:	f3af 8000 	nop.w

/* Copy the data segment initializers from flash to SRAM */
  ldr r0, =_sdata
 8001074:	480c      	ldr	r0, [pc, #48]	@ (80010a8 <LoopForever+0x6>)
  ldr r1, =_edata
 8001076:	490d      	ldr	r1, [pc, #52]	@ (80010ac <LoopForever+0xa>)
  ldr r2, =_sidata
 8001078:	4a0d      	ldr	r2, [pc, #52]	@ (80010b0 <LoopForever+0xe>)
  movs r3, #0
 800107a:	2300      	movs	r3, #0
  b LoopCopyDataInit
 800107c:	e002      	b.n	8001084 <LoopCopyDataInit>

0800107e <CopyDataInit>:

CopyDataInit:
  ldr r4, [r2, r3]
 800107e:	58d4      	ldr	r4, [r2, r3]
  str r4, [r0, r3]
 8001080:	50c4      	str	r4, [r0, r3]
  adds r3, r3, #4
 8001082:	3304      	adds	r3, #4

08001084 <LoopCopyDataInit>:

LoopCopyDataInit:
  adds r4, r0, r3
 8001084:	18c4      	adds	r4, r0, r3
  cmp r4, r1
 8001086:	428c      	cmp	r4, r1
  bcc CopyDataInit
 8001088:	d3f9      	bcc.n	800107e <CopyDataInit>

/* Zero fill the bss segment. */
  ldr r2, =_sbss
 800108a:	4a0a      	ldr	r2, [pc, #40]	@ (80010b4 <LoopForever+0x12>)
  ldr r4, =_ebss
 800108c:	4c0a      	ldr	r4, [pc, #40]	@ (80010b8 <LoopForever+0x16>)
  movs r3, #0
 800108e:	2300      	movs	r3, #0
  b LoopFillZerobss
 8001090:	e001      	b.n	8001096 <LoopFillZerobss>

08001092 <FillZerobss>:

FillZerobss:
  str  r3, [r2]
 8001092:	6013      	str	r3, [r2, #0]
  adds r2, r2, #4
 8001094:	3204      	adds	r2, #4

08001096 <LoopFillZerobss>:

LoopFillZerobss:
  cmp r2, r4
 8001096:	42a2      	cmp	r2, r4
  bcc FillZerobss
 8001098:	d3fb      	bcc.n	8001092 <FillZerobss>

/* Call static constructors */
  bl __libc_init_array
 800109a:	f000 fe03 	bl	8001ca4 <__libc_init_array>
/* Call the application's entry point.*/
  bl main
 800109e:	f7ff fdab 	bl	8000bf8 <main>

080010a2 <LoopForever>:

LoopForever:
    b LoopForever
 80010a2:	e7fe      	b.n	80010a2 <LoopForever>
  ldr   r0, =_estack
 80010a4:	2000a000 	.word	0x2000a000
  ldr r0, =_sdata
 80010a8:	20000000 	.word	0x20000000
  ldr r1, =_edata
 80010ac:	200001f0 	.word	0x200001f0
  ldr r2, =_sidata
 80010b0:	08003de0 	.word	0x08003de0
  ldr r2, =_sbss
 80010b4:	200001f0 	.word	0x200001f0
  ldr r4, =_ebss
 80010b8:	200003c8 	.word	0x200003c8

080010bc <ADC1_2_IRQHandler>:
 * @retval : None
*/
  .section .text.Default_Handler,"ax",%progbits
Default_Handler:
Infinite_Loop:
  b Infinite_Loop
 80010bc:	e7fe      	b.n	80010bc <ADC1_2_IRQHandler>

080010be <__cvt>:
 80010be:	e92d 47f0 	stmdb	sp!, {r4, r5, r6, r7, r8, r9, sl, lr}
 80010c2:	b088      	sub	sp, #32
 80010c4:	2b00      	cmp	r3, #0
 80010c6:	461d      	mov	r5, r3
 80010c8:	4614      	mov	r4, r2
 80010ca:	bfbc      	itt	lt
 80010cc:	f103 4300 	addlt.w	r3, r3, #2147483648	@ 0x80000000
 80010d0:	4614      	movlt	r4, r2
 80010d2:	9a12      	ldr	r2, [sp, #72]	@ 0x48
 80010d4:	9e10      	ldr	r6, [sp, #64]	@ 0x40
 80010d6:	f8dd a04c 	ldr.w	sl, [sp, #76]	@ 0x4c
 80010da:	bfb6      	itet	lt
 80010dc:	461d      	movlt	r5, r3
 80010de:	2300      	movge	r3, #0
 80010e0:	232d      	movlt	r3, #45	@ 0x2d
 80010e2:	7013      	strb	r3, [r2, #0]
 80010e4:	9b14      	ldr	r3, [sp, #80]	@ 0x50
 80010e6:	f023 0820 	bic.w	r8, r3, #32
 80010ea:	f1b8 0f46 	cmp.w	r8, #70	@ 0x46
 80010ee:	d005      	beq.n	80010fc <__cvt+0x3e>
 80010f0:	f1b8 0f45 	cmp.w	r8, #69	@ 0x45
 80010f4:	d100      	bne.n	80010f8 <__cvt+0x3a>
 80010f6:	3601      	adds	r6, #1
 80010f8:	2302      	movs	r3, #2
 80010fa:	e000      	b.n	80010fe <__cvt+0x40>
 80010fc:	2303      	movs	r3, #3
 80010fe:	aa07      	add	r2, sp, #28
 8001100:	9204      	str	r2, [sp, #16]
 8001102:	aa06      	add	r2, sp, #24
 8001104:	e9cd a202 	strd	sl, r2, [sp, #8]
 8001108:	e9cd 3600 	strd	r3, r6, [sp]
 800110c:	4622      	mov	r2, r4
 800110e:	462b      	mov	r3, r5
 8001110:	f000 fe7a 	bl	8001e08 <_dtoa_r>
 8001114:	f1b8 0f47 	cmp.w	r8, #71	@ 0x47
 8001118:	4607      	mov	r7, r0
 800111a:	d119      	bne.n	8001150 <__cvt+0x92>
 800111c:	9b11      	ldr	r3, [sp, #68]	@ 0x44
 800111e:	07db      	lsls	r3, r3, #31
 8001120:	d50e      	bpl.n	8001140 <__cvt+0x82>
 8001122:	eb00 0906 	add.w	r9, r0, r6
 8001126:	2200      	movs	r2, #0
 8001128:	2300      	movs	r3, #0
 800112a:	4620      	mov	r0, r4
 800112c:	4629      	mov	r1, r5
 800112e:	f7ff fcdd 	bl	8000aec <__aeabi_dcmpeq>
 8001132:	b108      	cbz	r0, 8001138 <__cvt+0x7a>
 8001134:	f8cd 901c 	str.w	r9, [sp, #28]
 8001138:	2230      	movs	r2, #48	@ 0x30
 800113a:	9b07      	ldr	r3, [sp, #28]
 800113c:	454b      	cmp	r3, r9
 800113e:	d31e      	bcc.n	800117e <__cvt+0xc0>
 8001140:	9b07      	ldr	r3, [sp, #28]
 8001142:	9a15      	ldr	r2, [sp, #84]	@ 0x54
 8001144:	1bdb      	subs	r3, r3, r7
 8001146:	4638      	mov	r0, r7
 8001148:	6013      	str	r3, [r2, #0]
 800114a:	b008      	add	sp, #32
 800114c:	e8bd 87f0 	ldmia.w	sp!, {r4, r5, r6, r7, r8, r9, sl, pc}
 8001150:	f1b8 0f46 	cmp.w	r8, #70	@ 0x46
 8001154:	eb00 0906 	add.w	r9, r0, r6
 8001158:	d1e5      	bne.n	8001126 <__cvt+0x68>
 800115a:	7803      	ldrb	r3, [r0, #0]
 800115c:	2b30      	cmp	r3, #48	@ 0x30
 800115e:	d10a      	bne.n	8001176 <__cvt+0xb8>
 8001160:	2200      	movs	r2, #0
 8001162:	2300      	movs	r3, #0
 8001164:	4620      	mov	r0, r4
 8001166:	4629      	mov	r1, r5
 8001168:	f7ff fcc0 	bl	8000aec <__aeabi_dcmpeq>
 800116c:	b918      	cbnz	r0, 8001176 <__cvt+0xb8>
 800116e:	f1c6 0601 	rsb	r6, r6, #1
 8001172:	f8ca 6000 	str.w	r6, [sl]
 8001176:	f8da 3000 	ldr.w	r3, [sl]
 800117a:	4499      	add	r9, r3
 800117c:	e7d3      	b.n	8001126 <__cvt+0x68>
 800117e:	1c59      	adds	r1, r3, #1
 8001180:	9107      	str	r1, [sp, #28]
 8001182:	701a      	strb	r2, [r3, #0]
 8001184:	e7d9      	b.n	800113a <__cvt+0x7c>

08001186 <__exponent>:
 8001186:	b5f7      	push	{r0, r1, r2, r4, r5, r6, r7, lr}
 8001188:	2900      	cmp	r1, #0
 800118a:	bfba      	itte	lt
 800118c:	4249      	neglt	r1, r1
 800118e:	232d      	movlt	r3, #45	@ 0x2d
 8001190:	232b      	movge	r3, #43	@ 0x2b
 8001192:	2909      	cmp	r1, #9
 8001194:	7002      	strb	r2, [r0, #0]
 8001196:	7043      	strb	r3, [r0, #1]
 8001198:	dd29      	ble.n	80011ee <__exponent+0x68>
 800119a:	f10d 0307 	add.w	r3, sp, #7
 800119e:	461d      	mov	r5, r3
 80011a0:	270a      	movs	r7, #10
 80011a2:	461a      	mov	r2, r3
 80011a4:	fbb1 f6f7 	udiv	r6, r1, r7
 80011a8:	fb07 1416 	mls	r4, r7, r6, r1
 80011ac:	3430      	adds	r4, #48	@ 0x30
 80011ae:	f802 4c01 	strb.w	r4, [r2, #-1]
 80011b2:	460c      	mov	r4, r1
 80011b4:	2c63      	cmp	r4, #99	@ 0x63
 80011b6:	f103 33ff 	add.w	r3, r3, #4294967295	@ 0xffffffff
 80011ba:	4631      	mov	r1, r6
 80011bc:	dcf1      	bgt.n	80011a2 <__exponent+0x1c>
 80011be:	3130      	adds	r1, #48	@ 0x30
 80011c0:	1e94      	subs	r4, r2, #2
 80011c2:	f803 1c01 	strb.w	r1, [r3, #-1]
 80011c6:	1c41      	adds	r1, r0, #1
 80011c8:	4623      	mov	r3, r4
 80011ca:	42ab      	cmp	r3, r5
 80011cc:	d30a      	bcc.n	80011e4 <__exponent+0x5e>
 80011ce:	f10d 0309 	add.w	r3, sp, #9
 80011d2:	1a9b      	subs	r3, r3, r2
 80011d4:	42ac      	cmp	r4, r5
 80011d6:	bf88      	it	hi
 80011d8:	2300      	movhi	r3, #0
 80011da:	3302      	adds	r3, #2
 80011dc:	4403      	add	r3, r0
 80011de:	1a18      	subs	r0, r3, r0
 80011e0:	b003      	add	sp, #12
 80011e2:	bdf0      	pop	{r4, r5, r6, r7, pc}
 80011e4:	f813 6b01 	ldrb.w	r6, [r3], #1
 80011e8:	f801 6f01 	strb.w	r6, [r1, #1]!
 80011ec:	e7ed      	b.n	80011ca <__exponent+0x44>
 80011ee:	2330      	movs	r3, #48	@ 0x30
 80011f0:	3130      	adds	r1, #48	@ 0x30
 80011f2:	7083      	strb	r3, [r0, #2]
 80011f4:	70c1      	strb	r1, [r0, #3]
 80011f6:	1d03      	adds	r3, r0, #4
 80011f8:	e7f1      	b.n	80011de <__exponent+0x58>
	...

080011fc <_printf_float>:
 80011fc:	e92d 4ff0 	stmdb	sp!, {r4, r5, r6, r7, r8, r9, sl, fp, lr}
 8001200:	b091      	sub	sp, #68	@ 0x44
 8001202:	460c      	mov	r4, r1
 8001204:	f8dd 8068 	ldr.w	r8, [sp, #104]	@ 0x68
 8001208:	4616      	mov	r6, r2
 800120a:	461f      	mov	r7, r3
 800120c:	4605      	mov	r5, r0
 800120e:	f000 fd2f 	bl	8001c70 <_localeconv_r>
 8001212:	6803      	ldr	r3, [r0, #0]
 8001214:	9308      	str	r3, [sp, #32]
 8001216:	4618      	mov	r0, r3
 8001218:	f7ff f832 	bl	8000280 <strlen>
 800121c:	2300      	movs	r3, #0
 800121e:	930e      	str	r3, [sp, #56]	@ 0x38
 8001220:	f8d8 3000 	ldr.w	r3, [r8]
 8001224:	9009      	str	r0, [sp, #36]	@ 0x24
 8001226:	3307      	adds	r3, #7
 8001228:	f023 0307 	bic.w	r3, r3, #7
 800122c:	f103 0208 	add.w	r2, r3, #8
 8001230:	f894 a018 	ldrb.w	sl, [r4, #24]
 8001234:	f8d4 b000 	ldr.w	fp, [r4]
 8001238:	f8c8 2000 	str.w	r2, [r8]
 800123c:	e9d3 8900 	ldrd	r8, r9, [r3]
 8001240:	f029 4300 	bic.w	r3, r9, #2147483648	@ 0x80000000
 8001244:	930b      	str	r3, [sp, #44]	@ 0x2c
 8001246:	f8cd 8028 	str.w	r8, [sp, #40]	@ 0x28
 800124a:	e9c4 8912 	strd	r8, r9, [r4, #72]	@ 0x48
 800124e:	e9dd 010a 	ldrd	r0, r1, [sp, #40]	@ 0x28
 8001252:	4b9d      	ldr	r3, [pc, #628]	@ (80014c8 <_printf_float+0x2cc>)
 8001254:	f04f 32ff 	mov.w	r2, #4294967295	@ 0xffffffff
 8001258:	f7ff fc7a 	bl	8000b50 <__aeabi_dcmpun>
 800125c:	bb70      	cbnz	r0, 80012bc <_printf_float+0xc0>
 800125e:	e9dd 010a 	ldrd	r0, r1, [sp, #40]	@ 0x28
 8001262:	4b99      	ldr	r3, [pc, #612]	@ (80014c8 <_printf_float+0x2cc>)
 8001264:	f04f 32ff 	mov.w	r2, #4294967295	@ 0xffffffff
 8001268:	f7ff fc54 	bl	8000b14 <__aeabi_dcmple>
 800126c:	bb30      	cbnz	r0, 80012bc <_printf_float+0xc0>
 800126e:	2200      	movs	r2, #0
 8001270:	2300      	movs	r3, #0
 8001272:	4640      	mov	r0, r8
 8001274:	4649      	mov	r1, r9
 8001276:	f7ff fc43 	bl	8000b00 <__aeabi_dcmplt>
 800127a:	b110      	cbz	r0, 8001282 <_printf_float+0x86>
 800127c:	232d      	movs	r3, #45	@ 0x2d
 800127e:	f884 3043 	strb.w	r3, [r4, #67]	@ 0x43
 8001282:	4a92      	ldr	r2, [pc, #584]	@ (80014cc <_printf_float+0x2d0>)
 8001284:	4b92      	ldr	r3, [pc, #584]	@ (80014d0 <_printf_float+0x2d4>)
 8001286:	f1ba 0f47 	cmp.w	sl, #71	@ 0x47
 800128a:	bf94      	ite	ls
 800128c:	4690      	movls	r8, r2
 800128e:	4698      	movhi	r8, r3
 8001290:	2303      	movs	r3, #3
 8001292:	6123      	str	r3, [r4, #16]
 8001294:	f02b 0304 	bic.w	r3, fp, #4
 8001298:	6023      	str	r3, [r4, #0]
 800129a:	f04f 0900 	mov.w	r9, #0
 800129e:	9700      	str	r7, [sp, #0]
 80012a0:	4633      	mov	r3, r6
 80012a2:	aa0f      	add	r2, sp, #60	@ 0x3c
 80012a4:	4621      	mov	r1, r4
 80012a6:	4628      	mov	r0, r5
 80012a8:	f000 fa7e 	bl	80017a8 <_printf_common>
 80012ac:	3001      	adds	r0, #1
 80012ae:	f040 808f 	bne.w	80013d0 <_printf_float+0x1d4>
 80012b2:	f04f 30ff 	mov.w	r0, #4294967295	@ 0xffffffff
 80012b6:	b011      	add	sp, #68	@ 0x44
 80012b8:	e8bd 8ff0 	ldmia.w	sp!, {r4, r5, r6, r7, r8, r9, sl, fp, pc}
 80012bc:	4642      	mov	r2, r8
 80012be:	464b      	mov	r3, r9
 80012c0:	4640      	mov	r0, r8
 80012c2:	4649      	mov	r1, r9
 80012c4:	f7ff fc44 	bl	8000b50 <__aeabi_dcmpun>
 80012c8:	b140      	cbz	r0, 80012dc <_printf_float+0xe0>
 80012ca:	464b      	mov	r3, r9
 80012cc:	2b00      	cmp	r3, #0
 80012ce:	bfbc      	itt	lt
 80012d0:	232d      	movlt	r3, #45	@ 0x2d
 80012d2:	f884 3043 	strblt.w	r3, [r4, #67]	@ 0x43
 80012d6:	4a7f      	ldr	r2, [pc, #508]	@ (80014d4 <_printf_float+0x2d8>)
 80012d8:	4b7f      	ldr	r3, [pc, #508]	@ (80014d8 <_printf_float+0x2dc>)
 80012da:	e7d4      	b.n	8001286 <_printf_float+0x8a>
 80012dc:	6863      	ldr	r3, [r4, #4]
 80012de:	1c5a      	adds	r2, r3, #1
 80012e0:	f00a 01df 	and.w	r1, sl, #223	@ 0xdf
 80012e4:	d13f      	bne.n	8001366 <_printf_float+0x16a>
 80012e6:	2306      	movs	r3, #6
 80012e8:	6063      	str	r3, [r4, #4]
 80012ea:	f44b 6380 	orr.w	r3, fp, #1024	@ 0x400
 80012ee:	2200      	movs	r2, #0
 80012f0:	6023      	str	r3, [r4, #0]
 80012f2:	9206      	str	r2, [sp, #24]
 80012f4:	aa0e      	add	r2, sp, #56	@ 0x38
 80012f6:	e9cd a204 	strd	sl, r2, [sp, #16]
 80012fa:	aa0d      	add	r2, sp, #52	@ 0x34
 80012fc:	9203      	str	r2, [sp, #12]
 80012fe:	f10d 0233 	add.w	r2, sp, #51	@ 0x33
 8001302:	e9cd 3201 	strd	r3, r2, [sp, #4]
 8001306:	6863      	ldr	r3, [r4, #4]
 8001308:	9300      	str	r3, [sp, #0]
 800130a:	4642      	mov	r2, r8
 800130c:	464b      	mov	r3, r9
 800130e:	4628      	mov	r0, r5
 8001310:	910a      	str	r1, [sp, #40]	@ 0x28
 8001312:	f7ff fed4 	bl	80010be <__cvt>
 8001316:	990a      	ldr	r1, [sp, #40]	@ 0x28
 8001318:	2947      	cmp	r1, #71	@ 0x47
 800131a:	4680      	mov	r8, r0
 800131c:	990d      	ldr	r1, [sp, #52]	@ 0x34
 800131e:	d128      	bne.n	8001372 <_printf_float+0x176>
 8001320:	1cc8      	adds	r0, r1, #3
 8001322:	db02      	blt.n	800132a <_printf_float+0x12e>
 8001324:	6863      	ldr	r3, [r4, #4]
 8001326:	4299      	cmp	r1, r3
 8001328:	dd40      	ble.n	80013ac <_printf_float+0x1b0>
 800132a:	f1aa 0a02 	sub.w	sl, sl, #2
 800132e:	fa5f fa8a 	uxtb.w	sl, sl
 8001332:	3901      	subs	r1, #1
 8001334:	4652      	mov	r2, sl
 8001336:	f104 0050 	add.w	r0, r4, #80	@ 0x50
 800133a:	910d      	str	r1, [sp, #52]	@ 0x34
 800133c:	f7ff ff23 	bl	8001186 <__exponent>
 8001340:	9a0e      	ldr	r2, [sp, #56]	@ 0x38
 8001342:	1813      	adds	r3, r2, r0
 8001344:	2a01      	cmp	r2, #1
 8001346:	4681      	mov	r9, r0
 8001348:	6123      	str	r3, [r4, #16]
 800134a:	dc02      	bgt.n	8001352 <_printf_float+0x156>
 800134c:	6822      	ldr	r2, [r4, #0]
 800134e:	07d2      	lsls	r2, r2, #31
 8001350:	d501      	bpl.n	8001356 <_printf_float+0x15a>
 8001352:	3301      	adds	r3, #1
 8001354:	6123      	str	r3, [r4, #16]
 8001356:	f89d 3033 	ldrb.w	r3, [sp, #51]	@ 0x33
 800135a:	2b00      	cmp	r3, #0
 800135c:	d09f      	beq.n	800129e <_printf_float+0xa2>
 800135e:	232d      	movs	r3, #45	@ 0x2d
 8001360:	f884 3043 	strb.w	r3, [r4, #67]	@ 0x43
 8001364:	e79b      	b.n	800129e <_printf_float+0xa2>
 8001366:	2947      	cmp	r1, #71	@ 0x47
 8001368:	d1bf      	bne.n	80012ea <_printf_float+0xee>
 800136a:	2b00      	cmp	r3, #0
 800136c:	d1bd      	bne.n	80012ea <_printf_float+0xee>
 800136e:	2301      	movs	r3, #1
 8001370:	e7ba      	b.n	80012e8 <_printf_float+0xec>
 8001372:	f1ba 0f65 	cmp.w	sl, #101	@ 0x65
 8001376:	d9dc      	bls.n	8001332 <_printf_float+0x136>
 8001378:	f1ba 0f66 	cmp.w	sl, #102	@ 0x66
 800137c:	d118      	bne.n	80013b0 <_printf_float+0x1b4>
 800137e:	2900      	cmp	r1, #0
 8001380:	6863      	ldr	r3, [r4, #4]
 8001382:	dd0b      	ble.n	800139c <_printf_float+0x1a0>
 8001384:	6121      	str	r1, [r4, #16]
 8001386:	b913      	cbnz	r3, 800138e <_printf_float+0x192>
 8001388:	6822      	ldr	r2, [r4, #0]
 800138a:	07d0      	lsls	r0, r2, #31
 800138c:	d502      	bpl.n	8001394 <_printf_float+0x198>
 800138e:	3301      	adds	r3, #1
 8001390:	440b      	add	r3, r1
 8001392:	6123      	str	r3, [r4, #16]
 8001394:	65a1      	str	r1, [r4, #88]	@ 0x58
 8001396:	f04f 0900 	mov.w	r9, #0
 800139a:	e7dc      	b.n	8001356 <_printf_float+0x15a>
 800139c:	b913      	cbnz	r3, 80013a4 <_printf_float+0x1a8>
 800139e:	6822      	ldr	r2, [r4, #0]
 80013a0:	07d2      	lsls	r2, r2, #31
 80013a2:	d501      	bpl.n	80013a8 <_printf_float+0x1ac>
 80013a4:	3302      	adds	r3, #2
 80013a6:	e7f4      	b.n	8001392 <_printf_float+0x196>
 80013a8:	2301      	movs	r3, #1
 80013aa:	e7f2      	b.n	8001392 <_printf_float+0x196>
 80013ac:	f04f 0a67 	mov.w	sl, #103	@ 0x67
 80013b0:	9b0e      	ldr	r3, [sp, #56]	@ 0x38
 80013b2:	4299      	cmp	r1, r3
 80013b4:	db05      	blt.n	80013c2 <_printf_float+0x1c6>
 80013b6:	6823      	ldr	r3, [r4, #0]
 80013b8:	6121      	str	r1, [r4, #16]
 80013ba:	07d8      	lsls	r0, r3, #31
 80013bc:	d5ea      	bpl.n	8001394 <_printf_float+0x198>
 80013be:	1c4b      	adds	r3, r1, #1
 80013c0:	e7e7      	b.n	8001392 <_printf_float+0x196>
 80013c2:	2900      	cmp	r1, #0
 80013c4:	bfd4      	ite	le
 80013c6:	f1c1 0202 	rsble	r2, r1, #2
 80013ca:	2201      	movgt	r2, #1
 80013cc:	4413      	add	r3, r2
 80013ce:	e7e0      	b.n	8001392 <_printf_float+0x196>
 80013d0:	6823      	ldr	r3, [r4, #0]
 80013d2:	055a      	lsls	r2, r3, #21
 80013d4:	d407      	bmi.n	80013e6 <_printf_float+0x1ea>
 80013d6:	6923      	ldr	r3, [r4, #16]
 80013d8:	4642      	mov	r2, r8
 80013da:	4631      	mov	r1, r6
 80013dc:	4628      	mov	r0, r5
 80013de:	47b8      	blx	r7
 80013e0:	3001      	adds	r0, #1
 80013e2:	d12b      	bne.n	800143c <_printf_float+0x240>
 80013e4:	e765      	b.n	80012b2 <_printf_float+0xb6>
 80013e6:	f1ba 0f65 	cmp.w	sl, #101	@ 0x65
 80013ea:	f240 80dd 	bls.w	80015a8 <_printf_float+0x3ac>
 80013ee:	e9d4 0112 	ldrd	r0, r1, [r4, #72]	@ 0x48
 80013f2:	2200      	movs	r2, #0
 80013f4:	2300      	movs	r3, #0
 80013f6:	f7ff fb79 	bl	8000aec <__aeabi_dcmpeq>
 80013fa:	2800      	cmp	r0, #0
 80013fc:	d033      	beq.n	8001466 <_printf_float+0x26a>
 80013fe:	4a37      	ldr	r2, [pc, #220]	@ (80014dc <_printf_float+0x2e0>)
 8001400:	2301      	movs	r3, #1
 8001402:	4631      	mov	r1, r6
 8001404:	4628      	mov	r0, r5
 8001406:	47b8      	blx	r7
 8001408:	3001      	adds	r0, #1
 800140a:	f43f af52 	beq.w	80012b2 <_printf_float+0xb6>
 800140e:	e9dd 380d 	ldrd	r3, r8, [sp, #52]	@ 0x34
 8001412:	4543      	cmp	r3, r8
 8001414:	db02      	blt.n	800141c <_printf_float+0x220>
 8001416:	6823      	ldr	r3, [r4, #0]
 8001418:	07d8      	lsls	r0, r3, #31
 800141a:	d50f      	bpl.n	800143c <_printf_float+0x240>
 800141c:	e9dd 2308 	ldrd	r2, r3, [sp, #32]
 8001420:	4631      	mov	r1, r6
 8001422:	4628      	mov	r0, r5
 8001424:	47b8      	blx	r7
 8001426:	3001      	adds	r0, #1
 8001428:	f43f af43 	beq.w	80012b2 <_printf_float+0xb6>
 800142c:	f04f 0900 	mov.w	r9, #0
 8001430:	f108 38ff 	add.w	r8, r8, #4294967295	@ 0xffffffff
 8001434:	f104 0a1a 	add.w	sl, r4, #26
 8001438:	45c8      	cmp	r8, r9
 800143a:	dc09      	bgt.n	8001450 <_printf_float+0x254>
 800143c:	6823      	ldr	r3, [r4, #0]
 800143e:	079b      	lsls	r3, r3, #30
 8001440:	f100 8103 	bmi.w	800164a <_printf_float+0x44e>
 8001444:	68e0      	ldr	r0, [r4, #12]
 8001446:	9b0f      	ldr	r3, [sp, #60]	@ 0x3c
 8001448:	4298      	cmp	r0, r3
 800144a:	bfb8      	it	lt
 800144c:	4618      	movlt	r0, r3
 800144e:	e732      	b.n	80012b6 <_printf_float+0xba>
 8001450:	2301      	movs	r3, #1
 8001452:	4652      	mov	r2, sl
 8001454:	4631      	mov	r1, r6
 8001456:	4628      	mov	r0, r5
 8001458:	47b8      	blx	r7
 800145a:	3001      	adds	r0, #1
 800145c:	f43f af29 	beq.w	80012b2 <_printf_float+0xb6>
 8001460:	f109 0901 	add.w	r9, r9, #1
 8001464:	e7e8      	b.n	8001438 <_printf_float+0x23c>
 8001466:	9b0d      	ldr	r3, [sp, #52]	@ 0x34
 8001468:	2b00      	cmp	r3, #0
 800146a:	dc39      	bgt.n	80014e0 <_printf_float+0x2e4>
 800146c:	4a1b      	ldr	r2, [pc, #108]	@ (80014dc <_printf_float+0x2e0>)
 800146e:	2301      	movs	r3, #1
 8001470:	4631      	mov	r1, r6
 8001472:	4628      	mov	r0, r5
 8001474:	47b8      	blx	r7
 8001476:	3001      	adds	r0, #1
 8001478:	f43f af1b 	beq.w	80012b2 <_printf_float+0xb6>
 800147c:	e9dd 390d 	ldrd	r3, r9, [sp, #52]	@ 0x34
 8001480:	ea59 0303 	orrs.w	r3, r9, r3
 8001484:	d102      	bne.n	800148c <_printf_float+0x290>
 8001486:	6823      	ldr	r3, [r4, #0]
 8001488:	07d9      	lsls	r1, r3, #31
 800148a:	d5d7      	bpl.n	800143c <_printf_float+0x240>
 800148c:	e9dd 2308 	ldrd	r2, r3, [sp, #32]
 8001490:	4631      	mov	r1, r6
 8001492:	4628      	mov	r0, r5
 8001494:	47b8      	blx	r7
 8001496:	3001      	adds	r0, #1
 8001498:	f43f af0b 	beq.w	80012b2 <_printf_float+0xb6>
 800149c:	f04f 0a00 	mov.w	sl, #0
 80014a0:	f104 0b1a 	add.w	fp, r4, #26
 80014a4:	9b0d      	ldr	r3, [sp, #52]	@ 0x34
 80014a6:	425b      	negs	r3, r3
 80014a8:	4553      	cmp	r3, sl
 80014aa:	dc01      	bgt.n	80014b0 <_printf_float+0x2b4>
 80014ac:	464b      	mov	r3, r9
 80014ae:	e793      	b.n	80013d8 <_printf_float+0x1dc>
 80014b0:	2301      	movs	r3, #1
 80014b2:	465a      	mov	r2, fp
 80014b4:	4631      	mov	r1, r6
 80014b6:	4628      	mov	r0, r5
 80014b8:	47b8      	blx	r7
 80014ba:	3001      	adds	r0, #1
 80014bc:	f43f aef9 	beq.w	80012b2 <_printf_float+0xb6>
 80014c0:	f10a 0a01 	add.w	sl, sl, #1
 80014c4:	e7ee      	b.n	80014a4 <_printf_float+0x2a8>
 80014c6:	bf00      	nop
 80014c8:	7fefffff 	.word	0x7fefffff
 80014cc:	08003a62 	.word	0x08003a62
 80014d0:	08003a66 	.word	0x08003a66
 80014d4:	08003a6a 	.word	0x08003a6a
 80014d8:	08003a6e 	.word	0x08003a6e
 80014dc:	08003a72 	.word	0x08003a72
 80014e0:	6da3      	ldr	r3, [r4, #88]	@ 0x58
 80014e2:	f8dd a038 	ldr.w	sl, [sp, #56]	@ 0x38
 80014e6:	4553      	cmp	r3, sl
 80014e8:	bfa8      	it	ge
 80014ea:	4653      	movge	r3, sl
 80014ec:	2b00      	cmp	r3, #0
 80014ee:	4699      	mov	r9, r3
 80014f0:	dc36      	bgt.n	8001560 <_printf_float+0x364>
 80014f2:	f04f 0b00 	mov.w	fp, #0
 80014f6:	ea29 79e9 	bic.w	r9, r9, r9, asr #31
 80014fa:	f104 021a 	add.w	r2, r4, #26
 80014fe:	6da3      	ldr	r3, [r4, #88]	@ 0x58
 8001500:	930a      	str	r3, [sp, #40]	@ 0x28
 8001502:	eba3 0309 	sub.w	r3, r3, r9
 8001506:	455b      	cmp	r3, fp
 8001508:	dc31      	bgt.n	800156e <_printf_float+0x372>
 800150a:	9b0d      	ldr	r3, [sp, #52]	@ 0x34
 800150c:	459a      	cmp	sl, r3
 800150e:	dc3a      	bgt.n	8001586 <_printf_float+0x38a>
 8001510:	6823      	ldr	r3, [r4, #0]
 8001512:	07da      	lsls	r2, r3, #31
 8001514:	d437      	bmi.n	8001586 <_printf_float+0x38a>
 8001516:	9b0d      	ldr	r3, [sp, #52]	@ 0x34
 8001518:	ebaa 0903 	sub.w	r9, sl, r3
 800151c:	9b0a      	ldr	r3, [sp, #40]	@ 0x28
 800151e:	ebaa 0303 	sub.w	r3, sl, r3
 8001522:	4599      	cmp	r9, r3
 8001524:	bfa8      	it	ge
 8001526:	4699      	movge	r9, r3
 8001528:	f1b9 0f00 	cmp.w	r9, #0
 800152c:	dc33      	bgt.n	8001596 <_printf_float+0x39a>
 800152e:	f04f 0800 	mov.w	r8, #0
 8001532:	ea29 79e9 	bic.w	r9, r9, r9, asr #31
 8001536:	f104 0b1a 	add.w	fp, r4, #26
 800153a:	9b0d      	ldr	r3, [sp, #52]	@ 0x34
 800153c:	ebaa 0303 	sub.w	r3, sl, r3
 8001540:	eba3 0309 	sub.w	r3, r3, r9
 8001544:	4543      	cmp	r3, r8
 8001546:	f77f af79 	ble.w	800143c <_printf_float+0x240>
 800154a:	2301      	movs	r3, #1
 800154c:	465a      	mov	r2, fp
 800154e:	4631      	mov	r1, r6
 8001550:	4628      	mov	r0, r5
 8001552:	47b8      	blx	r7
 8001554:	3001      	adds	r0, #1
 8001556:	f43f aeac 	beq.w	80012b2 <_printf_float+0xb6>
 800155a:	f108 0801 	add.w	r8, r8, #1
 800155e:	e7ec      	b.n	800153a <_printf_float+0x33e>
 8001560:	4642      	mov	r2, r8
 8001562:	4631      	mov	r1, r6
 8001564:	4628      	mov	r0, r5
 8001566:	47b8      	blx	r7
 8001568:	3001      	adds	r0, #1
 800156a:	d1c2      	bne.n	80014f2 <_printf_float+0x2f6>
 800156c:	e6a1      	b.n	80012b2 <_printf_float+0xb6>
 800156e:	2301      	movs	r3, #1
 8001570:	4631      	mov	r1, r6
 8001572:	4628      	mov	r0, r5
 8001574:	920a      	str	r2, [sp, #40]	@ 0x28
 8001576:	47b8      	blx	r7
 8001578:	3001      	adds	r0, #1
 800157a:	f43f ae9a 	beq.w	80012b2 <_printf_float+0xb6>
 800157e:	9a0a      	ldr	r2, [sp, #40]	@ 0x28
 8001580:	f10b 0b01 	add.w	fp, fp, #1
 8001584:	e7bb      	b.n	80014fe <_printf_float+0x302>
 8001586:	e9dd 2308 	ldrd	r2, r3, [sp, #32]
 800158a:	4631      	mov	r1, r6
 800158c:	4628      	mov	r0, r5
 800158e:	47b8      	blx	r7
 8001590:	3001      	adds	r0, #1
 8001592:	d1c0      	bne.n	8001516 <_printf_float+0x31a>
 8001594:	e68d      	b.n	80012b2 <_printf_float+0xb6>
 8001596:	9a0a      	ldr	r2, [sp, #40]	@ 0x28
 8001598:	464b      	mov	r3, r9
 800159a:	4442      	add	r2, r8
 800159c:	4631      	mov	r1, r6
 800159e:	4628      	mov	r0, r5
 80015a0:	47b8      	blx	r7
 80015a2:	3001      	adds	r0, #1
 80015a4:	d1c3      	bne.n	800152e <_printf_float+0x332>
 80015a6:	e684      	b.n	80012b2 <_printf_float+0xb6>
 80015a8:	f8dd a038 	ldr.w	sl, [sp, #56]	@ 0x38
 80015ac:	f1ba 0f01 	cmp.w	sl, #1
 80015b0:	dc01      	bgt.n	80015b6 <_printf_float+0x3ba>
 80015b2:	07db      	lsls	r3, r3, #31
 80015b4:	d536      	bpl.n	8001624 <_printf_float+0x428>
 80015b6:	2301      	movs	r3, #1
 80015b8:	4642      	mov	r2, r8
 80015ba:	4631      	mov	r1, r6
 80015bc:	4628      	mov	r0, r5
 80015be:	47b8      	blx	r7
 80015c0:	3001      	adds	r0, #1
 80015c2:	f43f ae76 	beq.w	80012b2 <_printf_float+0xb6>
 80015c6:	e9dd 2308 	ldrd	r2, r3, [sp, #32]
 80015ca:	4631      	mov	r1, r6
 80015cc:	4628      	mov	r0, r5
 80015ce:	47b8      	blx	r7
 80015d0:	3001      	adds	r0, #1
 80015d2:	f43f ae6e 	beq.w	80012b2 <_printf_float+0xb6>
 80015d6:	e9d4 0112 	ldrd	r0, r1, [r4, #72]	@ 0x48
 80015da:	2200      	movs	r2, #0
 80015dc:	2300      	movs	r3, #0
 80015de:	f10a 3aff 	add.w	sl, sl, #4294967295	@ 0xffffffff
 80015e2:	f7ff fa83 	bl	8000aec <__aeabi_dcmpeq>
 80015e6:	b9c0      	cbnz	r0, 800161a <_printf_float+0x41e>
 80015e8:	4653      	mov	r3, sl
 80015ea:	f108 0201 	add.w	r2, r8, #1
 80015ee:	4631      	mov	r1, r6
 80015f0:	4628      	mov	r0, r5
 80015f2:	47b8      	blx	r7
 80015f4:	3001      	adds	r0, #1
 80015f6:	d10c      	bne.n	8001612 <_printf_float+0x416>
 80015f8:	e65b      	b.n	80012b2 <_printf_float+0xb6>
 80015fa:	2301      	movs	r3, #1
 80015fc:	465a      	mov	r2, fp
 80015fe:	4631      	mov	r1, r6
 8001600:	4628      	mov	r0, r5
 8001602:	47b8      	blx	r7
 8001604:	3001      	adds	r0, #1
 8001606:	f43f ae54 	beq.w	80012b2 <_printf_float+0xb6>
 800160a:	f108 0801 	add.w	r8, r8, #1
 800160e:	45d0      	cmp	r8, sl
 8001610:	dbf3      	blt.n	80015fa <_printf_float+0x3fe>
 8001612:	464b      	mov	r3, r9
 8001614:	f104 0250 	add.w	r2, r4, #80	@ 0x50
 8001618:	e6df      	b.n	80013da <_printf_float+0x1de>
 800161a:	f04f 0800 	mov.w	r8, #0
 800161e:	f104 0b1a 	add.w	fp, r4, #26
 8001622:	e7f4      	b.n	800160e <_printf_float+0x412>
 8001624:	2301      	movs	r3, #1
 8001626:	4642      	mov	r2, r8
 8001628:	e7e1      	b.n	80015ee <_printf_float+0x3f2>
 800162a:	2301      	movs	r3, #1
 800162c:	464a      	mov	r2, r9
 800162e:	4631      	mov	r1, r6
 8001630:	4628      	mov	r0, r5
 8001632:	47b8      	blx	r7
 8001634:	3001      	adds	r0, #1
 8001636:	f43f ae3c 	beq.w	80012b2 <_printf_float+0xb6>
 800163a:	f108 0801 	add.w	r8, r8, #1
 800163e:	68e3      	ldr	r3, [r4, #12]
 8001640:	990f      	ldr	r1, [sp, #60]	@ 0x3c
 8001642:	1a5b      	subs	r3, r3, r1
 8001644:	4543      	cmp	r3, r8
 8001646:	dcf0      	bgt.n	800162a <_printf_float+0x42e>
 8001648:	e6fc      	b.n	8001444 <_printf_float+0x248>
 800164a:	f04f 0800 	mov.w	r8, #0
 800164e:	f104 0919 	add.w	r9, r4, #25
 8001652:	e7f4      	b.n	800163e <_printf_float+0x442>

08001654 <malloc>:
 8001654:	4b02      	ldr	r3, [pc, #8]	@ (8001660 <malloc+0xc>)
 8001656:	4601      	mov	r1, r0
 8001658:	6818      	ldr	r0, [r3, #0]
 800165a:	f000 b825 	b.w	80016a8 <_malloc_r>
 800165e:	bf00      	nop
 8001660:	20000034 	.word	0x20000034

08001664 <sbrk_aligned>:
 8001664:	b570      	push	{r4, r5, r6, lr}
 8001666:	4e0f      	ldr	r6, [pc, #60]	@ (80016a4 <sbrk_aligned+0x40>)
 8001668:	460c      	mov	r4, r1
 800166a:	6831      	ldr	r1, [r6, #0]
 800166c:	4605      	mov	r5, r0
 800166e:	b911      	cbnz	r1, 8001676 <sbrk_aligned+0x12>
 8001670:	f000 fb02 	bl	8001c78 <_sbrk_r>
 8001674:	6030      	str	r0, [r6, #0]
 8001676:	4621      	mov	r1, r4
 8001678:	4628      	mov	r0, r5
 800167a:	f000 fafd 	bl	8001c78 <_sbrk_r>
 800167e:	1c43      	adds	r3, r0, #1
 8001680:	d103      	bne.n	800168a <sbrk_aligned+0x26>
 8001682:	f04f 34ff 	mov.w	r4, #4294967295	@ 0xffffffff
 8001686:	4620      	mov	r0, r4
 8001688:	bd70      	pop	{r4, r5, r6, pc}
 800168a:	1cc4      	adds	r4, r0, #3
 800168c:	f024 0403 	bic.w	r4, r4, #3
 8001690:	42a0      	cmp	r0, r4
 8001692:	d0f8      	beq.n	8001686 <sbrk_aligned+0x22>
 8001694:	1a21      	subs	r1, r4, r0
 8001696:	4628      	mov	r0, r5
 8001698:	f000 faee 	bl	8001c78 <_sbrk_r>
 800169c:	3001      	adds	r0, #1
 800169e:	d1f2      	bne.n	8001686 <sbrk_aligned+0x22>
 80016a0:	e7ef      	b.n	8001682 <sbrk_aligned+0x1e>
 80016a2:	bf00      	nop
 80016a4:	2000027c 	.word	0x2000027c

080016a8 <_malloc_r>:
 80016a8:	e92d 43f8 	stmdb	sp!, {r3, r4, r5, r6, r7, r8, r9, lr}
 80016ac:	1ccd      	adds	r5, r1, #3
 80016ae:	f025 0503 	bic.w	r5, r5, #3
 80016b2:	3508      	adds	r5, #8
 80016b4:	2d0c      	cmp	r5, #12
 80016b6:	bf38      	it	cc
 80016b8:	250c      	movcc	r5, #12
 80016ba:	2d00      	cmp	r5, #0
 80016bc:	4606      	mov	r6, r0
 80016be:	db01      	blt.n	80016c4 <_malloc_r+0x1c>
 80016c0:	42a9      	cmp	r1, r5
 80016c2:	d904      	bls.n	80016ce <_malloc_r+0x26>
 80016c4:	230c      	movs	r3, #12
 80016c6:	6033      	str	r3, [r6, #0]
 80016c8:	2000      	movs	r0, #0
 80016ca:	e8bd 83f8 	ldmia.w	sp!, {r3, r4, r5, r6, r7, r8, r9, pc}
 80016ce:	f8df 80d4 	ldr.w	r8, [pc, #212]	@ 80017a4 <_malloc_r+0xfc>
 80016d2:	f000 f9f7 	bl	8001ac4 <__malloc_lock>
 80016d6:	f8d8 3000 	ldr.w	r3, [r8]
 80016da:	461c      	mov	r4, r3
 80016dc:	bb44      	cbnz	r4, 8001730 <_malloc_r+0x88>
 80016de:	4629      	mov	r1, r5
 80016e0:	4630      	mov	r0, r6
 80016e2:	f7ff ffbf 	bl	8001664 <sbrk_aligned>
 80016e6:	1c43      	adds	r3, r0, #1
 80016e8:	4604      	mov	r4, r0
 80016ea:	d158      	bne.n	800179e <_malloc_r+0xf6>
 80016ec:	f8d8 4000 	ldr.w	r4, [r8]
 80016f0:	4627      	mov	r7, r4
 80016f2:	2f00      	cmp	r7, #0
 80016f4:	d143      	bne.n	800177e <_malloc_r+0xd6>
 80016f6:	2c00      	cmp	r4, #0
 80016f8:	d04b      	beq.n	8001792 <_malloc_r+0xea>
 80016fa:	6823      	ldr	r3, [r4, #0]
 80016fc:	4639      	mov	r1, r7
 80016fe:	4630      	mov	r0, r6
 8001700:	eb04 0903 	add.w	r9, r4, r3
 8001704:	f000 fab8 	bl	8001c78 <_sbrk_r>
 8001708:	4581      	cmp	r9, r0
 800170a:	d142      	bne.n	8001792 <_malloc_r+0xea>
 800170c:	6821      	ldr	r1, [r4, #0]
 800170e:	1a6d      	subs	r5, r5, r1
 8001710:	4629      	mov	r1, r5
 8001712:	4630      	mov	r0, r6
 8001714:	f7ff ffa6 	bl	8001664 <sbrk_aligned>
 8001718:	3001      	adds	r0, #1
 800171a:	d03a      	beq.n	8001792 <_malloc_r+0xea>
 800171c:	6823      	ldr	r3, [r4, #0]
 800171e:	442b      	add	r3, r5
 8001720:	6023      	str	r3, [r4, #0]
 8001722:	f8d8 3000 	ldr.w	r3, [r8]
 8001726:	685a      	ldr	r2, [r3, #4]
 8001728:	bb62      	cbnz	r2, 8001784 <_malloc_r+0xdc>
 800172a:	f8c8 7000 	str.w	r7, [r8]
 800172e:	e00f      	b.n	8001750 <_malloc_r+0xa8>
 8001730:	6822      	ldr	r2, [r4, #0]
 8001732:	1b52      	subs	r2, r2, r5
 8001734:	d420      	bmi.n	8001778 <_malloc_r+0xd0>
 8001736:	2a0b      	cmp	r2, #11
 8001738:	d917      	bls.n	800176a <_malloc_r+0xc2>
 800173a:	1961      	adds	r1, r4, r5
 800173c:	42a3      	cmp	r3, r4
 800173e:	6025      	str	r5, [r4, #0]
 8001740:	bf18      	it	ne
 8001742:	6059      	strne	r1, [r3, #4]
 8001744:	6863      	ldr	r3, [r4, #4]
 8001746:	bf08      	it	eq
 8001748:	f8c8 1000 	streq.w	r1, [r8]
 800174c:	5162      	str	r2, [r4, r5]
 800174e:	604b      	str	r3, [r1, #4]
 8001750:	4630      	mov	r0, r6
 8001752:	f000 f9bd 	bl	8001ad0 <__malloc_unlock>
 8001756:	f104 000b 	add.w	r0, r4, #11
 800175a:	1d23      	adds	r3, r4, #4
 800175c:	f020 0007 	bic.w	r0, r0, #7
 8001760:	1ac2      	subs	r2, r0, r3
 8001762:	bf1c      	itt	ne
 8001764:	1a1b      	subne	r3, r3, r0
 8001766:	50a3      	strne	r3, [r4, r2]
 8001768:	e7af      	b.n	80016ca <_malloc_r+0x22>
 800176a:	6862      	ldr	r2, [r4, #4]
 800176c:	42a3      	cmp	r3, r4
 800176e:	bf0c      	ite	eq
 8001770:	f8c8 2000 	streq.w	r2, [r8]
 8001774:	605a      	strne	r2, [r3, #4]
 8001776:	e7eb      	b.n	8001750 <_malloc_r+0xa8>
 8001778:	4623      	mov	r3, r4
 800177a:	6864      	ldr	r4, [r4, #4]
 800177c:	e7ae      	b.n	80016dc <_malloc_r+0x34>
 800177e:	463c      	mov	r4, r7
 8001780:	687f      	ldr	r7, [r7, #4]
 8001782:	e7b6      	b.n	80016f2 <_malloc_r+0x4a>
 8001784:	461a      	mov	r2, r3
 8001786:	685b      	ldr	r3, [r3, #4]
 8001788:	42a3      	cmp	r3, r4
 800178a:	d1fb      	bne.n	8001784 <_malloc_r+0xdc>
 800178c:	2300      	movs	r3, #0
 800178e:	6053      	str	r3, [r2, #4]
 8001790:	e7de      	b.n	8001750 <_malloc_r+0xa8>
 8001792:	230c      	movs	r3, #12
 8001794:	6033      	str	r3, [r6, #0]
 8001796:	4630      	mov	r0, r6
 8001798:	f000 f99a 	bl	8001ad0 <__malloc_unlock>
 800179c:	e794      	b.n	80016c8 <_malloc_r+0x20>
 800179e:	6005      	str	r5, [r0, #0]
 80017a0:	e7d6      	b.n	8001750 <_malloc_r+0xa8>
 80017a2:	bf00      	nop
 80017a4:	20000280 	.word	0x20000280

080017a8 <_printf_common>:
 80017a8:	e92d 47f0 	stmdb	sp!, {r4, r5, r6, r7, r8, r9, sl, lr}
 80017ac:	4616      	mov	r6, r2
 80017ae:	4698      	mov	r8, r3
 80017b0:	688a      	ldr	r2, [r1, #8]
 80017b2:	690b      	ldr	r3, [r1, #16]
 80017b4:	f8dd 9020 	ldr.w	r9, [sp, #32]
 80017b8:	4293      	cmp	r3, r2
 80017ba:	bfb8      	it	lt
 80017bc:	4613      	movlt	r3, r2
 80017be:	6033      	str	r3, [r6, #0]
 80017c0:	f891 2043 	ldrb.w	r2, [r1, #67]	@ 0x43
 80017c4:	4607      	mov	r7, r0
 80017c6:	460c      	mov	r4, r1
 80017c8:	b10a      	cbz	r2, 80017ce <_printf_common+0x26>
 80017ca:	3301      	adds	r3, #1
 80017cc:	6033      	str	r3, [r6, #0]
 80017ce:	6823      	ldr	r3, [r4, #0]
 80017d0:	0699      	lsls	r1, r3, #26
 80017d2:	bf42      	ittt	mi
 80017d4:	6833      	ldrmi	r3, [r6, #0]
 80017d6:	3302      	addmi	r3, #2
 80017d8:	6033      	strmi	r3, [r6, #0]
 80017da:	6825      	ldr	r5, [r4, #0]
 80017dc:	f015 0506 	ands.w	r5, r5, #6
 80017e0:	d106      	bne.n	80017f0 <_printf_common+0x48>
 80017e2:	f104 0a19 	add.w	sl, r4, #25
 80017e6:	68e3      	ldr	r3, [r4, #12]
 80017e8:	6832      	ldr	r2, [r6, #0]
 80017ea:	1a9b      	subs	r3, r3, r2
 80017ec:	42ab      	cmp	r3, r5
 80017ee:	dc26      	bgt.n	800183e <_printf_common+0x96>
 80017f0:	f894 3043 	ldrb.w	r3, [r4, #67]	@ 0x43
 80017f4:	6822      	ldr	r2, [r4, #0]
 80017f6:	3b00      	subs	r3, #0
 80017f8:	bf18      	it	ne
 80017fa:	2301      	movne	r3, #1
 80017fc:	0692      	lsls	r2, r2, #26
 80017fe:	d42b      	bmi.n	8001858 <_printf_common+0xb0>
 8001800:	f104 0243 	add.w	r2, r4, #67	@ 0x43
 8001804:	4641      	mov	r1, r8
 8001806:	4638      	mov	r0, r7
 8001808:	47c8      	blx	r9
 800180a:	3001      	adds	r0, #1
 800180c:	d01e      	beq.n	800184c <_printf_common+0xa4>
 800180e:	6823      	ldr	r3, [r4, #0]
 8001810:	6922      	ldr	r2, [r4, #16]
 8001812:	f003 0306 	and.w	r3, r3, #6
 8001816:	2b04      	cmp	r3, #4
 8001818:	bf02      	ittt	eq
 800181a:	68e5      	ldreq	r5, [r4, #12]
 800181c:	6833      	ldreq	r3, [r6, #0]
 800181e:	1aed      	subeq	r5, r5, r3
 8001820:	68a3      	ldr	r3, [r4, #8]
 8001822:	bf0c      	ite	eq
 8001824:	ea25 75e5 	biceq.w	r5, r5, r5, asr #31
 8001828:	2500      	movne	r5, #0
 800182a:	4293      	cmp	r3, r2
 800182c:	bfc4      	itt	gt
 800182e:	1a9b      	subgt	r3, r3, r2
 8001830:	18ed      	addgt	r5, r5, r3
 8001832:	2600      	movs	r6, #0
 8001834:	341a      	adds	r4, #26
 8001836:	42b5      	cmp	r5, r6
 8001838:	d11a      	bne.n	8001870 <_printf_common+0xc8>
 800183a:	2000      	movs	r0, #0
 800183c:	e008      	b.n	8001850 <_printf_common+0xa8>
 800183e:	2301      	movs	r3, #1
 8001840:	4652      	mov	r2, sl
 8001842:	4641      	mov	r1, r8
 8001844:	4638      	mov	r0, r7
 8001846:	47c8      	blx	r9
 8001848:	3001      	adds	r0, #1
 800184a:	d103      	bne.n	8001854 <_printf_common+0xac>
 800184c:	f04f 30ff 	mov.w	r0, #4294967295	@ 0xffffffff
 8001850:	e8bd 87f0 	ldmia.w	sp!, {r4, r5, r6, r7, r8, r9, sl, pc}
 8001854:	3501      	adds	r5, #1
 8001856:	e7c6      	b.n	80017e6 <_printf_common+0x3e>
 8001858:	18e1      	adds	r1, r4, r3
 800185a:	1c5a      	adds	r2, r3, #1
 800185c:	2030      	movs	r0, #48	@ 0x30
 800185e:	f881 0043 	strb.w	r0, [r1, #67]	@ 0x43
 8001862:	4422      	add	r2, r4
 8001864:	f894 1045 	ldrb.w	r1, [r4, #69]	@ 0x45
 8001868:	f882 1043 	strb.w	r1, [r2, #67]	@ 0x43
 800186c:	3302      	adds	r3, #2
 800186e:	e7c7      	b.n	8001800 <_printf_common+0x58>
 8001870:	2301      	movs	r3, #1
 8001872:	4622      	mov	r2, r4
 8001874:	4641      	mov	r1, r8
 8001876:	4638      	mov	r0, r7
 8001878:	47c8      	blx	r9
 800187a:	3001      	adds	r0, #1
 800187c:	d0e6      	beq.n	800184c <_printf_common+0xa4>
 800187e:	3601      	adds	r6, #1
 8001880:	e7d9      	b.n	8001836 <_printf_common+0x8e>
	...

08001884 <_printf_i>:
 8001884:	e92d 47ff 	stmdb	sp!, {r0, r1, r2, r3, r4, r5, r6, r7, r8, r9, sl, lr}
 8001888:	7e0f      	ldrb	r7, [r1, #24]
 800188a:	9e0c      	ldr	r6, [sp, #48]	@ 0x30
 800188c:	2f78      	cmp	r7, #120	@ 0x78
 800188e:	4691      	mov	r9, r2
 8001890:	4680      	mov	r8, r0
 8001892:	460c      	mov	r4, r1
 8001894:	469a      	mov	sl, r3
 8001896:	f101 0243 	add.w	r2, r1, #67	@ 0x43
 800189a:	d807      	bhi.n	80018ac <_printf_i+0x28>
 800189c:	2f62      	cmp	r7, #98	@ 0x62
 800189e:	d80a      	bhi.n	80018b6 <_printf_i+0x32>
 80018a0:	2f00      	cmp	r7, #0
 80018a2:	f000 80d2 	beq.w	8001a4a <_printf_i+0x1c6>
 80018a6:	2f58      	cmp	r7, #88	@ 0x58
 80018a8:	f000 80b9 	beq.w	8001a1e <_printf_i+0x19a>
 80018ac:	f104 0642 	add.w	r6, r4, #66	@ 0x42
 80018b0:	f884 7042 	strb.w	r7, [r4, #66]	@ 0x42
 80018b4:	e03a      	b.n	800192c <_printf_i+0xa8>
 80018b6:	f1a7 0363 	sub.w	r3, r7, #99	@ 0x63
 80018ba:	2b15      	cmp	r3, #21
 80018bc:	d8f6      	bhi.n	80018ac <_printf_i+0x28>
 80018be:	a101      	add	r1, pc, #4	@ (adr r1, 80018c4 <_printf_i+0x40>)
 80018c0:	f851 f023 	ldr.w	pc, [r1, r3, lsl #2]
 80018c4:	0800191d 	.word	0x0800191d
 80018c8:	08001931 	.word	0x08001931
 80018cc:	080018ad 	.word	0x080018ad
 80018d0:	080018ad 	.word	0x080018ad
 80018d4:	080018ad 	.word	0x080018ad
 80018d8:	080018ad 	.word	0x080018ad
 80018dc:	08001931 	.word	0x08001931
 80018e0:	080018ad 	.word	0x080018ad
 80018e4:	080018ad 	.word	0x080018ad
 80018e8:	080018ad 	.word	0x080018ad
 80018ec:	080018ad 	.word	0x080018ad
 80018f0:	08001a31 	.word	0x08001a31
 80018f4:	0800195b 	.word	0x0800195b
 80018f8:	080019eb 	.word	0x080019eb
 80018fc:	080018ad 	.word	0x080018ad
 8001900:	080018ad 	.word	0x080018ad
 8001904:	08001a53 	.word	0x08001a53
 8001908:	080018ad 	.word	0x080018ad
 800190c:	0800195b 	.word	0x0800195b
 8001910:	080018ad 	.word	0x080018ad
 8001914:	080018ad 	.word	0x080018ad
 8001918:	080019f3 	.word	0x080019f3
 800191c:	6833      	ldr	r3, [r6, #0]
 800191e:	1d1a      	adds	r2, r3, #4
 8001920:	681b      	ldr	r3, [r3, #0]
 8001922:	6032      	str	r2, [r6, #0]
 8001924:	f104 0642 	add.w	r6, r4, #66	@ 0x42
 8001928:	f884 3042 	strb.w	r3, [r4, #66]	@ 0x42
 800192c:	2301      	movs	r3, #1
 800192e:	e09d      	b.n	8001a6c <_printf_i+0x1e8>
 8001930:	6833      	ldr	r3, [r6, #0]
 8001932:	6820      	ldr	r0, [r4, #0]
 8001934:	1d19      	adds	r1, r3, #4
 8001936:	6031      	str	r1, [r6, #0]
 8001938:	0606      	lsls	r6, r0, #24
 800193a:	d501      	bpl.n	8001940 <_printf_i+0xbc>
 800193c:	681d      	ldr	r5, [r3, #0]
 800193e:	e003      	b.n	8001948 <_printf_i+0xc4>
 8001940:	0645      	lsls	r5, r0, #25
 8001942:	d5fb      	bpl.n	800193c <_printf_i+0xb8>
 8001944:	f9b3 5000 	ldrsh.w	r5, [r3]
 8001948:	2d00      	cmp	r5, #0
 800194a:	da03      	bge.n	8001954 <_printf_i+0xd0>
 800194c:	232d      	movs	r3, #45	@ 0x2d
 800194e:	426d      	negs	r5, r5
 8001950:	f884 3043 	strb.w	r3, [r4, #67]	@ 0x43
 8001954:	4859      	ldr	r0, [pc, #356]	@ (8001abc <_printf_i+0x238>)
 8001956:	230a      	movs	r3, #10
 8001958:	e011      	b.n	800197e <_printf_i+0xfa>
 800195a:	6821      	ldr	r1, [r4, #0]
 800195c:	6833      	ldr	r3, [r6, #0]
 800195e:	0608      	lsls	r0, r1, #24
 8001960:	f853 5b04 	ldr.w	r5, [r3], #4
 8001964:	d402      	bmi.n	800196c <_printf_i+0xe8>
 8001966:	0649      	lsls	r1, r1, #25
 8001968:	bf48      	it	mi
 800196a:	b2ad      	uxthmi	r5, r5
 800196c:	2f6f      	cmp	r7, #111	@ 0x6f
 800196e:	4853      	ldr	r0, [pc, #332]	@ (8001abc <_printf_i+0x238>)
 8001970:	6033      	str	r3, [r6, #0]
 8001972:	bf14      	ite	ne
 8001974:	230a      	movne	r3, #10
 8001976:	2308      	moveq	r3, #8
 8001978:	2100      	movs	r1, #0
 800197a:	f884 1043 	strb.w	r1, [r4, #67]	@ 0x43
 800197e:	6866      	ldr	r6, [r4, #4]
 8001980:	60a6      	str	r6, [r4, #8]
 8001982:	2e00      	cmp	r6, #0
 8001984:	bfa2      	ittt	ge
 8001986:	6821      	ldrge	r1, [r4, #0]
 8001988:	f021 0104 	bicge.w	r1, r1, #4
 800198c:	6021      	strge	r1, [r4, #0]
 800198e:	b90d      	cbnz	r5, 8001994 <_printf_i+0x110>
 8001990:	2e00      	cmp	r6, #0
 8001992:	d04b      	beq.n	8001a2c <_printf_i+0x1a8>
 8001994:	4616      	mov	r6, r2
 8001996:	fbb5 f1f3 	udiv	r1, r5, r3
 800199a:	fb03 5711 	mls	r7, r3, r1, r5
 800199e:	5dc7      	ldrb	r7, [r0, r7]
 80019a0:	f806 7d01 	strb.w	r7, [r6, #-1]!
 80019a4:	462f      	mov	r7, r5
 80019a6:	42bb      	cmp	r3, r7
 80019a8:	460d      	mov	r5, r1
 80019aa:	d9f4      	bls.n	8001996 <_printf_i+0x112>
 80019ac:	2b08      	cmp	r3, #8
 80019ae:	d10b      	bne.n	80019c8 <_printf_i+0x144>
 80019b0:	6823      	ldr	r3, [r4, #0]
 80019b2:	07df      	lsls	r7, r3, #31
 80019b4:	d508      	bpl.n	80019c8 <_printf_i+0x144>
 80019b6:	6923      	ldr	r3, [r4, #16]
 80019b8:	6861      	ldr	r1, [r4, #4]
 80019ba:	4299      	cmp	r1, r3
 80019bc:	bfde      	ittt	le
 80019be:	2330      	movle	r3, #48	@ 0x30
 80019c0:	f806 3c01 	strble.w	r3, [r6, #-1]
 80019c4:	f106 36ff 	addle.w	r6, r6, #4294967295	@ 0xffffffff
 80019c8:	1b92      	subs	r2, r2, r6
 80019ca:	6122      	str	r2, [r4, #16]
 80019cc:	f8cd a000 	str.w	sl, [sp]
 80019d0:	464b      	mov	r3, r9
 80019d2:	aa03      	add	r2, sp, #12
 80019d4:	4621      	mov	r1, r4
 80019d6:	4640      	mov	r0, r8
 80019d8:	f7ff fee6 	bl	80017a8 <_printf_common>
 80019dc:	3001      	adds	r0, #1
 80019de:	d14a      	bne.n	8001a76 <_printf_i+0x1f2>
 80019e0:	f04f 30ff 	mov.w	r0, #4294967295	@ 0xffffffff
 80019e4:	b004      	add	sp, #16
 80019e6:	e8bd 87f0 	ldmia.w	sp!, {r4, r5, r6, r7, r8, r9, sl, pc}
 80019ea:	6823      	ldr	r3, [r4, #0]
 80019ec:	f043 0320 	orr.w	r3, r3, #32
 80019f0:	6023      	str	r3, [r4, #0]
 80019f2:	4833      	ldr	r0, [pc, #204]	@ (8001ac0 <_printf_i+0x23c>)
 80019f4:	2778      	movs	r7, #120	@ 0x78
 80019f6:	f884 7045 	strb.w	r7, [r4, #69]	@ 0x45
 80019fa:	6823      	ldr	r3, [r4, #0]
 80019fc:	6831      	ldr	r1, [r6, #0]
 80019fe:	061f      	lsls	r7, r3, #24
 8001a00:	f851 5b04 	ldr.w	r5, [r1], #4
 8001a04:	d402      	bmi.n	8001a0c <_printf_i+0x188>
 8001a06:	065f      	lsls	r7, r3, #25
 8001a08:	bf48      	it	mi
 8001a0a:	b2ad      	uxthmi	r5, r5
 8001a0c:	6031      	str	r1, [r6, #0]
 8001a0e:	07d9      	lsls	r1, r3, #31
 8001a10:	bf44      	itt	mi
 8001a12:	f043 0320 	orrmi.w	r3, r3, #32
 8001a16:	6023      	strmi	r3, [r4, #0]
 8001a18:	b11d      	cbz	r5, 8001a22 <_printf_i+0x19e>
 8001a1a:	2310      	movs	r3, #16
 8001a1c:	e7ac      	b.n	8001978 <_printf_i+0xf4>
 8001a1e:	4827      	ldr	r0, [pc, #156]	@ (8001abc <_printf_i+0x238>)
 8001a20:	e7e9      	b.n	80019f6 <_printf_i+0x172>
 8001a22:	6823      	ldr	r3, [r4, #0]
 8001a24:	f023 0320 	bic.w	r3, r3, #32
 8001a28:	6023      	str	r3, [r4, #0]
 8001a2a:	e7f6      	b.n	8001a1a <_printf_i+0x196>
 8001a2c:	4616      	mov	r6, r2
 8001a2e:	e7bd      	b.n	80019ac <_printf_i+0x128>
 8001a30:	6833      	ldr	r3, [r6, #0]
 8001a32:	6825      	ldr	r5, [r4, #0]
 8001a34:	6961      	ldr	r1, [r4, #20]
 8001a36:	1d18      	adds	r0, r3, #4
 8001a38:	6030      	str	r0, [r6, #0]
 8001a3a:	062e      	lsls	r6, r5, #24
 8001a3c:	681b      	ldr	r3, [r3, #0]
 8001a3e:	d501      	bpl.n	8001a44 <_printf_i+0x1c0>
 8001a40:	6019      	str	r1, [r3, #0]
 8001a42:	e002      	b.n	8001a4a <_printf_i+0x1c6>
 8001a44:	0668      	lsls	r0, r5, #25
 8001a46:	d5fb      	bpl.n	8001a40 <_printf_i+0x1bc>
 8001a48:	8019      	strh	r1, [r3, #0]
 8001a4a:	2300      	movs	r3, #0
 8001a4c:	6123      	str	r3, [r4, #16]
 8001a4e:	4616      	mov	r6, r2
 8001a50:	e7bc      	b.n	80019cc <_printf_i+0x148>
 8001a52:	6833      	ldr	r3, [r6, #0]
 8001a54:	1d1a      	adds	r2, r3, #4
 8001a56:	6032      	str	r2, [r6, #0]
 8001a58:	681e      	ldr	r6, [r3, #0]
 8001a5a:	6862      	ldr	r2, [r4, #4]
 8001a5c:	2100      	movs	r1, #0
 8001a5e:	4630      	mov	r0, r6
 8001a60:	f7fe fbbe 	bl	80001e0 <memchr>
 8001a64:	b108      	cbz	r0, 8001a6a <_printf_i+0x1e6>
 8001a66:	1b80      	subs	r0, r0, r6
 8001a68:	6060      	str	r0, [r4, #4]
 8001a6a:	6863      	ldr	r3, [r4, #4]
 8001a6c:	6123      	str	r3, [r4, #16]
 8001a6e:	2300      	movs	r3, #0
 8001a70:	f884 3043 	strb.w	r3, [r4, #67]	@ 0x43
 8001a74:	e7aa      	b.n	80019cc <_printf_i+0x148>
 8001a76:	6923      	ldr	r3, [r4, #16]
 8001a78:	4632      	mov	r2, r6
 8001a7a:	4649      	mov	r1, r9
 8001a7c:	4640      	mov	r0, r8
 8001a7e:	47d0      	blx	sl
 8001a80:	3001      	adds	r0, #1
 8001a82:	d0ad      	beq.n	80019e0 <_printf_i+0x15c>
 8001a84:	6823      	ldr	r3, [r4, #0]
 8001a86:	079b      	lsls	r3, r3, #30
 8001a88:	d413      	bmi.n	8001ab2 <_printf_i+0x22e>
 8001a8a:	68e0      	ldr	r0, [r4, #12]
 8001a8c:	9b03      	ldr	r3, [sp, #12]
 8001a8e:	4298      	cmp	r0, r3
 8001a90:	bfb8      	it	lt
 8001a92:	4618      	movlt	r0, r3
 8001a94:	e7a6      	b.n	80019e4 <_printf_i+0x160>
 8001a96:	2301      	movs	r3, #1
 8001a98:	4632      	mov	r2, r6
 8001a9a:	4649      	mov	r1, r9
 8001a9c:	4640      	mov	r0, r8
 8001a9e:	47d0      	blx	sl
 8001aa0:	3001      	adds	r0, #1
 8001aa2:	d09d      	beq.n	80019e0 <_printf_i+0x15c>
 8001aa4:	3501      	adds	r5, #1
 8001aa6:	68e3      	ldr	r3, [r4, #12]
 8001aa8:	9903      	ldr	r1, [sp, #12]
 8001aaa:	1a5b      	subs	r3, r3, r1
 8001aac:	42ab      	cmp	r3, r5
 8001aae:	dcf2      	bgt.n	8001a96 <_printf_i+0x212>
 8001ab0:	e7eb      	b.n	8001a8a <_printf_i+0x206>
 8001ab2:	2500      	movs	r5, #0
 8001ab4:	f104 0619 	add.w	r6, r4, #25
 8001ab8:	e7f5      	b.n	8001aa6 <_printf_i+0x222>
 8001aba:	bf00      	nop
 8001abc:	08003a74 	.word	0x08003a74
 8001ac0:	08003a85 	.word	0x08003a85

08001ac4 <__malloc_lock>:
 8001ac4:	4801      	ldr	r0, [pc, #4]	@ (8001acc <__malloc_lock+0x8>)
 8001ac6:	f000 b912 	b.w	8001cee <__retarget_lock_acquire_recursive>
 8001aca:	bf00      	nop
 8001acc:	200003c0 	.word	0x200003c0

08001ad0 <__malloc_unlock>:
 8001ad0:	4801      	ldr	r0, [pc, #4]	@ (8001ad8 <__malloc_unlock+0x8>)
 8001ad2:	f000 b90d 	b.w	8001cf0 <__retarget_lock_release_recursive>
 8001ad6:	bf00      	nop
 8001ad8:	200003c0 	.word	0x200003c0

08001adc <std>:
 8001adc:	2300      	movs	r3, #0
 8001ade:	b510      	push	{r4, lr}
 8001ae0:	4604      	mov	r4, r0
 8001ae2:	e9c0 3300 	strd	r3, r3, [r0]
 8001ae6:	e9c0 3304 	strd	r3, r3, [r0, #16]
 8001aea:	6083      	str	r3, [r0, #8]
 8001aec:	8181      	strh	r1, [r0, #12]
 8001aee:	6643      	str	r3, [r0, #100]	@ 0x64
 8001af0:	81c2      	strh	r2, [r0, #14]
 8001af2:	6183      	str	r3, [r0, #24]
 8001af4:	4619      	mov	r1, r3
 8001af6:	2208      	movs	r2, #8
 8001af8:	305c      	adds	r0, #92	@ 0x5c
 8001afa:	f000 f8b1 	bl	8001c60 <memset>
 8001afe:	4b0d      	ldr	r3, [pc, #52]	@ (8001b34 <std+0x58>)
 8001b00:	6263      	str	r3, [r4, #36]	@ 0x24
 8001b02:	4b0d      	ldr	r3, [pc, #52]	@ (8001b38 <std+0x5c>)
 8001b04:	62a3      	str	r3, [r4, #40]	@ 0x28
 8001b06:	4b0d      	ldr	r3, [pc, #52]	@ (8001b3c <std+0x60>)
 8001b08:	62e3      	str	r3, [r4, #44]	@ 0x2c
 8001b0a:	4b0d      	ldr	r3, [pc, #52]	@ (8001b40 <std+0x64>)
 8001b0c:	6323      	str	r3, [r4, #48]	@ 0x30
 8001b0e:	4b0d      	ldr	r3, [pc, #52]	@ (8001b44 <std+0x68>)
 8001b10:	6224      	str	r4, [r4, #32]
 8001b12:	429c      	cmp	r4, r3
 8001b14:	d006      	beq.n	8001b24 <std+0x48>
 8001b16:	f103 0268 	add.w	r2, r3, #104	@ 0x68
 8001b1a:	4294      	cmp	r4, r2
 8001b1c:	d002      	beq.n	8001b24 <std+0x48>
 8001b1e:	33d0      	adds	r3, #208	@ 0xd0
 8001b20:	429c      	cmp	r4, r3
 8001b22:	d105      	bne.n	8001b30 <std+0x54>
 8001b24:	f104 0058 	add.w	r0, r4, #88	@ 0x58
 8001b28:	e8bd 4010 	ldmia.w	sp!, {r4, lr}
 8001b2c:	f000 b8de 	b.w	8001cec <__retarget_lock_init_recursive>
 8001b30:	bd10      	pop	{r4, pc}
 8001b32:	bf00      	nop
 8001b34:	0800327d 	.word	0x0800327d
 8001b38:	0800329f 	.word	0x0800329f
 8001b3c:	080032d7 	.word	0x080032d7
 8001b40:	080032fb 	.word	0x080032fb
 8001b44:	20000284 	.word	0x20000284

08001b48 <stdio_exit_handler>:
 8001b48:	4a02      	ldr	r2, [pc, #8]	@ (8001b54 <stdio_exit_handler+0xc>)
 8001b4a:	4903      	ldr	r1, [pc, #12]	@ (8001b58 <stdio_exit_handler+0x10>)
 8001b4c:	4803      	ldr	r0, [pc, #12]	@ (8001b5c <stdio_exit_handler+0x14>)
 8001b4e:	f000 b869 	b.w	8001c24 <_fwalk_sglue>
 8001b52:	bf00      	nop
 8001b54:	20000028 	.word	0x20000028
 8001b58:	08002b2d 	.word	0x08002b2d
 8001b5c:	20000038 	.word	0x20000038

08001b60 <cleanup_stdio>:
 8001b60:	6841      	ldr	r1, [r0, #4]
 8001b62:	4b0c      	ldr	r3, [pc, #48]	@ (8001b94 <cleanup_stdio+0x34>)
 8001b64:	4299      	cmp	r1, r3
 8001b66:	b510      	push	{r4, lr}
 8001b68:	4604      	mov	r4, r0
 8001b6a:	d001      	beq.n	8001b70 <cleanup_stdio+0x10>
 8001b6c:	f000 ffde 	bl	8002b2c <_fflush_r>
 8001b70:	68a1      	ldr	r1, [r4, #8]
 8001b72:	4b09      	ldr	r3, [pc, #36]	@ (8001b98 <cleanup_stdio+0x38>)
 8001b74:	4299      	cmp	r1, r3
 8001b76:	d002      	beq.n	8001b7e <cleanup_stdio+0x1e>
 8001b78:	4620      	mov	r0, r4
 8001b7a:	f000 ffd7 	bl	8002b2c <_fflush_r>
 8001b7e:	68e1      	ldr	r1, [r4, #12]
 8001b80:	4b06      	ldr	r3, [pc, #24]	@ (8001b9c <cleanup_stdio+0x3c>)
 8001b82:	4299      	cmp	r1, r3
 8001b84:	d004      	beq.n	8001b90 <cleanup_stdio+0x30>
 8001b86:	4620      	mov	r0, r4
 8001b88:	e8bd 4010 	ldmia.w	sp!, {r4, lr}
 8001b8c:	f000 bfce 	b.w	8002b2c <_fflush_r>
 8001b90:	bd10      	pop	{r4, pc}
 8001b92:	bf00      	nop
 8001b94:	20000284 	.word	0x20000284
 8001b98:	200002ec 	.word	0x200002ec
 8001b9c:	20000354 	.word	0x20000354

08001ba0 <global_stdio_init.part.0>:
 8001ba0:	b510      	push	{r4, lr}
 8001ba2:	4b0b      	ldr	r3, [pc, #44]	@ (8001bd0 <global_stdio_init.part.0+0x30>)
 8001ba4:	4c0b      	ldr	r4, [pc, #44]	@ (8001bd4 <global_stdio_init.part.0+0x34>)
 8001ba6:	4a0c      	ldr	r2, [pc, #48]	@ (8001bd8 <global_stdio_init.part.0+0x38>)
 8001ba8:	601a      	str	r2, [r3, #0]
 8001baa:	4620      	mov	r0, r4
 8001bac:	2200      	movs	r2, #0
 8001bae:	2104      	movs	r1, #4
 8001bb0:	f7ff ff94 	bl	8001adc <std>
 8001bb4:	f104 0068 	add.w	r0, r4, #104	@ 0x68
 8001bb8:	2201      	movs	r2, #1
 8001bba:	2109      	movs	r1, #9
 8001bbc:	f7ff ff8e 	bl	8001adc <std>
 8001bc0:	f104 00d0 	add.w	r0, r4, #208	@ 0xd0
 8001bc4:	2202      	movs	r2, #2
 8001bc6:	e8bd 4010 	ldmia.w	sp!, {r4, lr}
 8001bca:	2112      	movs	r1, #18
 8001bcc:	f7ff bf86 	b.w	8001adc <std>
 8001bd0:	200003bc 	.word	0x200003bc
 8001bd4:	20000284 	.word	0x20000284
 8001bd8:	08001b49 	.word	0x08001b49

08001bdc <__sfp_lock_acquire>:
 8001bdc:	4801      	ldr	r0, [pc, #4]	@ (8001be4 <__sfp_lock_acquire+0x8>)
 8001bde:	f000 b886 	b.w	8001cee <__retarget_lock_acquire_recursive>
 8001be2:	bf00      	nop
 8001be4:	200003c1 	.word	0x200003c1

08001be8 <__sfp_lock_release>:
 8001be8:	4801      	ldr	r0, [pc, #4]	@ (8001bf0 <__sfp_lock_release+0x8>)
 8001bea:	f000 b881 	b.w	8001cf0 <__retarget_lock_release_recursive>
 8001bee:	bf00      	nop
 8001bf0:	200003c1 	.word	0x200003c1

08001bf4 <__sinit>:
 8001bf4:	b510      	push	{r4, lr}
 8001bf6:	4604      	mov	r4, r0
 8001bf8:	f7ff fff0 	bl	8001bdc <__sfp_lock_acquire>
 8001bfc:	6a23      	ldr	r3, [r4, #32]
 8001bfe:	b11b      	cbz	r3, 8001c08 <__sinit+0x14>
 8001c00:	e8bd 4010 	ldmia.w	sp!, {r4, lr}
 8001c04:	f7ff bff0 	b.w	8001be8 <__sfp_lock_release>
 8001c08:	4b04      	ldr	r3, [pc, #16]	@ (8001c1c <__sinit+0x28>)
 8001c0a:	6223      	str	r3, [r4, #32]
 8001c0c:	4b04      	ldr	r3, [pc, #16]	@ (8001c20 <__sinit+0x2c>)
 8001c0e:	681b      	ldr	r3, [r3, #0]
 8001c10:	2b00      	cmp	r3, #0
 8001c12:	d1f5      	bne.n	8001c00 <__sinit+0xc>
 8001c14:	f7ff ffc4 	bl	8001ba0 <global_stdio_init.part.0>
 8001c18:	e7f2      	b.n	8001c00 <__sinit+0xc>
 8001c1a:	bf00      	nop
 8001c1c:	08001b61 	.word	0x08001b61
 8001c20:	200003bc 	.word	0x200003bc

08001c24 <_fwalk_sglue>:
 8001c24:	e92d 43f8 	stmdb	sp!, {r3, r4, r5, r6, r7, r8, r9, lr}
 8001c28:	4607      	mov	r7, r0
 8001c2a:	4688      	mov	r8, r1
 8001c2c:	4614      	mov	r4, r2
 8001c2e:	2600      	movs	r6, #0
 8001c30:	e9d4 9501 	ldrd	r9, r5, [r4, #4]
 8001c34:	f1b9 0901 	subs.w	r9, r9, #1
 8001c38:	d505      	bpl.n	8001c46 <_fwalk_sglue+0x22>
 8001c3a:	6824      	ldr	r4, [r4, #0]
 8001c3c:	2c00      	cmp	r4, #0
 8001c3e:	d1f7      	bne.n	8001c30 <_fwalk_sglue+0xc>
 8001c40:	4630      	mov	r0, r6
 8001c42:	e8bd 83f8 	ldmia.w	sp!, {r3, r4, r5, r6, r7, r8, r9, pc}
 8001c46:	89ab      	ldrh	r3, [r5, #12]
 8001c48:	2b01      	cmp	r3, #1
 8001c4a:	d907      	bls.n	8001c5c <_fwalk_sglue+0x38>
 8001c4c:	f9b5 300e 	ldrsh.w	r3, [r5, #14]
 8001c50:	3301      	adds	r3, #1
 8001c52:	d003      	beq.n	8001c5c <_fwalk_sglue+0x38>
 8001c54:	4629      	mov	r1, r5
 8001c56:	4638      	mov	r0, r7
 8001c58:	47c0      	blx	r8
 8001c5a:	4306      	orrs	r6, r0
 8001c5c:	3568      	adds	r5, #104	@ 0x68
 8001c5e:	e7e9      	b.n	8001c34 <_fwalk_sglue+0x10>

08001c60 <memset>:
 8001c60:	4402      	add	r2, r0
 8001c62:	4603      	mov	r3, r0
 8001c64:	4293      	cmp	r3, r2
 8001c66:	d100      	bne.n	8001c6a <memset+0xa>
 8001c68:	4770      	bx	lr
 8001c6a:	f803 1b01 	strb.w	r1, [r3], #1
 8001c6e:	e7f9      	b.n	8001c64 <memset+0x4>

08001c70 <_localeconv_r>:
 8001c70:	4800      	ldr	r0, [pc, #0]	@ (8001c74 <_localeconv_r+0x4>)
 8001c72:	4770      	bx	lr
 8001c74:	20000174 	.word	0x20000174

08001c78 <_sbrk_r>:
 8001c78:	b538      	push	{r3, r4, r5, lr}
 8001c7a:	4d06      	ldr	r5, [pc, #24]	@ (8001c94 <_sbrk_r+0x1c>)
 8001c7c:	2300      	movs	r3, #0
 8001c7e:	4604      	mov	r4, r0
 8001c80:	4608      	mov	r0, r1
 8001c82:	602b      	str	r3, [r5, #0]
 8001c84:	f7ff f9bc 	bl	8001000 <_sbrk>
 8001c88:	1c43      	adds	r3, r0, #1
 8001c8a:	d102      	bne.n	8001c92 <_sbrk_r+0x1a>
 8001c8c:	682b      	ldr	r3, [r5, #0]
 8001c8e:	b103      	cbz	r3, 8001c92 <_sbrk_r+0x1a>
 8001c90:	6023      	str	r3, [r4, #0]
 8001c92:	bd38      	pop	{r3, r4, r5, pc}
 8001c94:	200003c4 	.word	0x200003c4

08001c98 <__errno>:
 8001c98:	4b01      	ldr	r3, [pc, #4]	@ (8001ca0 <__errno+0x8>)
 8001c9a:	6818      	ldr	r0, [r3, #0]
 8001c9c:	4770      	bx	lr
 8001c9e:	bf00      	nop
 8001ca0:	20000034 	.word	0x20000034

08001ca4 <__libc_init_array>:
 8001ca4:	b570      	push	{r4, r5, r6, lr}
 8001ca6:	4d0d      	ldr	r5, [pc, #52]	@ (8001cdc <__libc_init_array+0x38>)
 8001ca8:	4c0d      	ldr	r4, [pc, #52]	@ (8001ce0 <__libc_init_array+0x3c>)
 8001caa:	1b64      	subs	r4, r4, r5
 8001cac:	10a4      	asrs	r4, r4, #2
 8001cae:	2600      	movs	r6, #0
 8001cb0:	42a6      	cmp	r6, r4
 8001cb2:	d109      	bne.n	8001cc8 <__libc_init_array+0x24>
 8001cb4:	4d0b      	ldr	r5, [pc, #44]	@ (8001ce4 <__libc_init_array+0x40>)
 8001cb6:	4c0c      	ldr	r4, [pc, #48]	@ (8001ce8 <__libc_init_array+0x44>)
 8001cb8:	f001 fe7e 	bl	80039b8 <_init>
 8001cbc:	1b64      	subs	r4, r4, r5
 8001cbe:	10a4      	asrs	r4, r4, #2
 8001cc0:	2600      	movs	r6, #0
 8001cc2:	42a6      	cmp	r6, r4
 8001cc4:	d105      	bne.n	8001cd2 <__libc_init_array+0x2e>
 8001cc6:	bd70      	pop	{r4, r5, r6, pc}
 8001cc8:	f855 3b04 	ldr.w	r3, [r5], #4
 8001ccc:	4798      	blx	r3
 8001cce:	3601      	adds	r6, #1
 8001cd0:	e7ee      	b.n	8001cb0 <__libc_init_array+0xc>
 8001cd2:	f855 3b04 	ldr.w	r3, [r5], #4
 8001cd6:	4798      	blx	r3
 8001cd8:	3601      	adds	r6, #1
 8001cda:	e7f2      	b.n	8001cc2 <__libc_init_array+0x1e>
 8001cdc:	08003dd8 	.word	0x08003dd8
 8001ce0:	08003dd8 	.word	0x08003dd8
 8001ce4:	08003dd8 	.word	0x08003dd8
 8001ce8:	08003ddc 	.word	0x08003ddc

08001cec <__retarget_lock_init_recursive>:
 8001cec:	4770      	bx	lr

08001cee <__retarget_lock_acquire_recursive>:
 8001cee:	4770      	bx	lr

08001cf0 <__retarget_lock_release_recursive>:
 8001cf0:	4770      	bx	lr

08001cf2 <quorem>:
 8001cf2:	e92d 4ff7 	stmdb	sp!, {r0, r1, r2, r4, r5, r6, r7, r8, r9, sl, fp, lr}
 8001cf6:	6903      	ldr	r3, [r0, #16]
 8001cf8:	690c      	ldr	r4, [r1, #16]
 8001cfa:	42a3      	cmp	r3, r4
 8001cfc:	4607      	mov	r7, r0
 8001cfe:	db7e      	blt.n	8001dfe <quorem+0x10c>
 8001d00:	3c01      	subs	r4, #1
 8001d02:	f101 0814 	add.w	r8, r1, #20
 8001d06:	00a3      	lsls	r3, r4, #2
 8001d08:	f100 0514 	add.w	r5, r0, #20
 8001d0c:	9300      	str	r3, [sp, #0]
 8001d0e:	eb05 0384 	add.w	r3, r5, r4, lsl #2
 8001d12:	9301      	str	r3, [sp, #4]
 8001d14:	f858 3024 	ldr.w	r3, [r8, r4, lsl #2]
 8001d18:	f855 2024 	ldr.w	r2, [r5, r4, lsl #2]
 8001d1c:	3301      	adds	r3, #1
 8001d1e:	429a      	cmp	r2, r3
 8001d20:	eb08 0984 	add.w	r9, r8, r4, lsl #2
 8001d24:	fbb2 f6f3 	udiv	r6, r2, r3
 8001d28:	d32e      	bcc.n	8001d88 <quorem+0x96>
 8001d2a:	f04f 0a00 	mov.w	sl, #0
 8001d2e:	46c4      	mov	ip, r8
 8001d30:	46ae      	mov	lr, r5
 8001d32:	46d3      	mov	fp, sl
 8001d34:	f85c 3b04 	ldr.w	r3, [ip], #4
 8001d38:	b298      	uxth	r0, r3
 8001d3a:	fb06 a000 	mla	r0, r6, r0, sl
 8001d3e:	0c02      	lsrs	r2, r0, #16
 8001d40:	0c1b      	lsrs	r3, r3, #16
 8001d42:	fb06 2303 	mla	r3, r6, r3, r2
 8001d46:	f8de 2000 	ldr.w	r2, [lr]
 8001d4a:	b280      	uxth	r0, r0
 8001d4c:	b292      	uxth	r2, r2
 8001d4e:	1a12      	subs	r2, r2, r0
 8001d50:	445a      	add	r2, fp
 8001d52:	f8de 0000 	ldr.w	r0, [lr]
 8001d56:	ea4f 4a13 	mov.w	sl, r3, lsr #16
 8001d5a:	b29b      	uxth	r3, r3
 8001d5c:	ebc3 4322 	rsb	r3, r3, r2, asr #16
 8001d60:	eb03 4310 	add.w	r3, r3, r0, lsr #16
 8001d64:	b292      	uxth	r2, r2
 8001d66:	ea42 4203 	orr.w	r2, r2, r3, lsl #16
 8001d6a:	45e1      	cmp	r9, ip
 8001d6c:	f84e 2b04 	str.w	r2, [lr], #4
 8001d70:	ea4f 4b23 	mov.w	fp, r3, asr #16
 8001d74:	d2de      	bcs.n	8001d34 <quorem+0x42>
 8001d76:	9b00      	ldr	r3, [sp, #0]
 8001d78:	58eb      	ldr	r3, [r5, r3]
 8001d7a:	b92b      	cbnz	r3, 8001d88 <quorem+0x96>
 8001d7c:	9b01      	ldr	r3, [sp, #4]
 8001d7e:	3b04      	subs	r3, #4
 8001d80:	429d      	cmp	r5, r3
 8001d82:	461a      	mov	r2, r3
 8001d84:	d32f      	bcc.n	8001de6 <quorem+0xf4>
 8001d86:	613c      	str	r4, [r7, #16]
 8001d88:	4638      	mov	r0, r7
 8001d8a:	f001 f971 	bl	8003070 <__mcmp>
 8001d8e:	2800      	cmp	r0, #0
 8001d90:	db25      	blt.n	8001dde <quorem+0xec>
 8001d92:	4629      	mov	r1, r5
 8001d94:	2000      	movs	r0, #0
 8001d96:	f858 2b04 	ldr.w	r2, [r8], #4
 8001d9a:	f8d1 c000 	ldr.w	ip, [r1]
 8001d9e:	fa1f fe82 	uxth.w	lr, r2
 8001da2:	fa1f f38c 	uxth.w	r3, ip
 8001da6:	eba3 030e 	sub.w	r3, r3, lr
 8001daa:	4403      	add	r3, r0
 8001dac:	0c12      	lsrs	r2, r2, #16
 8001dae:	ebc2 4223 	rsb	r2, r2, r3, asr #16
 8001db2:	eb02 421c 	add.w	r2, r2, ip, lsr #16
 8001db6:	b29b      	uxth	r3, r3
 8001db8:	ea43 4302 	orr.w	r3, r3, r2, lsl #16
 8001dbc:	45c1      	cmp	r9, r8
 8001dbe:	f841 3b04 	str.w	r3, [r1], #4
 8001dc2:	ea4f 4022 	mov.w	r0, r2, asr #16
 8001dc6:	d2e6      	bcs.n	8001d96 <quorem+0xa4>
 8001dc8:	f855 2024 	ldr.w	r2, [r5, r4, lsl #2]
 8001dcc:	eb05 0384 	add.w	r3, r5, r4, lsl #2
 8001dd0:	b922      	cbnz	r2, 8001ddc <quorem+0xea>
 8001dd2:	3b04      	subs	r3, #4
 8001dd4:	429d      	cmp	r5, r3
 8001dd6:	461a      	mov	r2, r3
 8001dd8:	d30b      	bcc.n	8001df2 <quorem+0x100>
 8001dda:	613c      	str	r4, [r7, #16]
 8001ddc:	3601      	adds	r6, #1
 8001dde:	4630      	mov	r0, r6
 8001de0:	b003      	add	sp, #12
 8001de2:	e8bd 8ff0 	ldmia.w	sp!, {r4, r5, r6, r7, r8, r9, sl, fp, pc}
 8001de6:	6812      	ldr	r2, [r2, #0]
 8001de8:	3b04      	subs	r3, #4
 8001dea:	2a00      	cmp	r2, #0
 8001dec:	d1cb      	bne.n	8001d86 <quorem+0x94>
 8001dee:	3c01      	subs	r4, #1
 8001df0:	e7c6      	b.n	8001d80 <quorem+0x8e>
 8001df2:	6812      	ldr	r2, [r2, #0]
 8001df4:	3b04      	subs	r3, #4
 8001df6:	2a00      	cmp	r2, #0
 8001df8:	d1ef      	bne.n	8001dda <quorem+0xe8>
 8001dfa:	3c01      	subs	r4, #1
 8001dfc:	e7ea      	b.n	8001dd4 <quorem+0xe2>
 8001dfe:	2000      	movs	r0, #0
 8001e00:	e7ee      	b.n	8001de0 <quorem+0xee>
 8001e02:	0000      	movs	r0, r0
 8001e04:	0000      	movs	r0, r0
	...

08001e08 <_dtoa_r>:
 8001e08:	e92d 4ff0 	stmdb	sp!, {r4, r5, r6, r7, r8, r9, sl, fp, lr}
 8001e0c:	69c7      	ldr	r7, [r0, #28]
 8001e0e:	b097      	sub	sp, #92	@ 0x5c
 8001e10:	4614      	mov	r4, r2
 8001e12:	461d      	mov	r5, r3
 8001e14:	e9cd 4502 	strd	r4, r5, [sp, #8]
 8001e18:	9e23      	ldr	r6, [sp, #140]	@ 0x8c
 8001e1a:	4683      	mov	fp, r0
 8001e1c:	b97f      	cbnz	r7, 8001e3e <_dtoa_r+0x36>
 8001e1e:	2010      	movs	r0, #16
 8001e20:	f7ff fc18 	bl	8001654 <malloc>
 8001e24:	4602      	mov	r2, r0
 8001e26:	f8cb 001c 	str.w	r0, [fp, #28]
 8001e2a:	b920      	cbnz	r0, 8001e36 <_dtoa_r+0x2e>
 8001e2c:	4ba8      	ldr	r3, [pc, #672]	@ (80020d0 <_dtoa_r+0x2c8>)
 8001e2e:	21ef      	movs	r1, #239	@ 0xef
 8001e30:	48a8      	ldr	r0, [pc, #672]	@ (80020d4 <_dtoa_r+0x2cc>)
 8001e32:	f001 fabb 	bl	80033ac <__assert_func>
 8001e36:	e9c0 7701 	strd	r7, r7, [r0, #4]
 8001e3a:	6007      	str	r7, [r0, #0]
 8001e3c:	60c7      	str	r7, [r0, #12]
 8001e3e:	f8db 301c 	ldr.w	r3, [fp, #28]
 8001e42:	6819      	ldr	r1, [r3, #0]
 8001e44:	b159      	cbz	r1, 8001e5e <_dtoa_r+0x56>
 8001e46:	685a      	ldr	r2, [r3, #4]
 8001e48:	604a      	str	r2, [r1, #4]
 8001e4a:	2301      	movs	r3, #1
 8001e4c:	4093      	lsls	r3, r2
 8001e4e:	608b      	str	r3, [r1, #8]
 8001e50:	4658      	mov	r0, fp
 8001e52:	f000 fed3 	bl	8002bfc <_Bfree>
 8001e56:	f8db 301c 	ldr.w	r3, [fp, #28]
 8001e5a:	2200      	movs	r2, #0
 8001e5c:	601a      	str	r2, [r3, #0]
 8001e5e:	1e2b      	subs	r3, r5, #0
 8001e60:	bfb9      	ittee	lt
 8001e62:	f023 4300 	biclt.w	r3, r3, #2147483648	@ 0x80000000
 8001e66:	9303      	strlt	r3, [sp, #12]
 8001e68:	2300      	movge	r3, #0
 8001e6a:	6033      	strge	r3, [r6, #0]
 8001e6c:	f8dd 800c 	ldr.w	r8, [sp, #12]
 8001e70:	4b99      	ldr	r3, [pc, #612]	@ (80020d8 <_dtoa_r+0x2d0>)
 8001e72:	bfbc      	itt	lt
 8001e74:	2201      	movlt	r2, #1
 8001e76:	6032      	strlt	r2, [r6, #0]
 8001e78:	ea33 0308 	bics.w	r3, r3, r8
 8001e7c:	d112      	bne.n	8001ea4 <_dtoa_r+0x9c>
 8001e7e:	9a22      	ldr	r2, [sp, #136]	@ 0x88
 8001e80:	f242 730f 	movw	r3, #9999	@ 0x270f
 8001e84:	6013      	str	r3, [r2, #0]
 8001e86:	f3c8 0313 	ubfx	r3, r8, #0, #20
 8001e8a:	4323      	orrs	r3, r4
 8001e8c:	f000 8551 	beq.w	8002932 <_dtoa_r+0xb2a>
 8001e90:	9b24      	ldr	r3, [sp, #144]	@ 0x90
 8001e92:	f8df a248 	ldr.w	sl, [pc, #584]	@ 80020dc <_dtoa_r+0x2d4>
 8001e96:	2b00      	cmp	r3, #0
 8001e98:	f000 8553 	beq.w	8002942 <_dtoa_r+0xb3a>
 8001e9c:	f10a 0303 	add.w	r3, sl, #3
 8001ea0:	f000 bd4d 	b.w	800293e <_dtoa_r+0xb36>
 8001ea4:	e9dd 2302 	ldrd	r2, r3, [sp, #8]
 8001ea8:	e9cd 230c 	strd	r2, r3, [sp, #48]	@ 0x30
 8001eac:	e9dd 010c 	ldrd	r0, r1, [sp, #48]	@ 0x30
 8001eb0:	2200      	movs	r2, #0
 8001eb2:	2300      	movs	r3, #0
 8001eb4:	f7fe fe1a 	bl	8000aec <__aeabi_dcmpeq>
 8001eb8:	4607      	mov	r7, r0
 8001eba:	b158      	cbz	r0, 8001ed4 <_dtoa_r+0xcc>
 8001ebc:	9a22      	ldr	r2, [sp, #136]	@ 0x88
 8001ebe:	2301      	movs	r3, #1
 8001ec0:	6013      	str	r3, [r2, #0]
 8001ec2:	9b24      	ldr	r3, [sp, #144]	@ 0x90
 8001ec4:	b113      	cbz	r3, 8001ecc <_dtoa_r+0xc4>
 8001ec6:	9a24      	ldr	r2, [sp, #144]	@ 0x90
 8001ec8:	4b85      	ldr	r3, [pc, #532]	@ (80020e0 <_dtoa_r+0x2d8>)
 8001eca:	6013      	str	r3, [r2, #0]
 8001ecc:	f8df a214 	ldr.w	sl, [pc, #532]	@ 80020e4 <_dtoa_r+0x2dc>
 8001ed0:	f000 bd37 	b.w	8002942 <_dtoa_r+0xb3a>
 8001ed4:	ab14      	add	r3, sp, #80	@ 0x50
 8001ed6:	9301      	str	r3, [sp, #4]
 8001ed8:	ab15      	add	r3, sp, #84	@ 0x54
 8001eda:	9300      	str	r3, [sp, #0]
 8001edc:	4658      	mov	r0, fp
 8001ede:	e9dd 230c 	ldrd	r2, r3, [sp, #48]	@ 0x30
 8001ee2:	f001 f973 	bl	80031cc <__d2b>
 8001ee6:	f3c8 560a 	ubfx	r6, r8, #20, #11
 8001eea:	4681      	mov	r9, r0
 8001eec:	2e00      	cmp	r6, #0
 8001eee:	d076      	beq.n	8001fde <_dtoa_r+0x1d6>
 8001ef0:	9b0d      	ldr	r3, [sp, #52]	@ 0x34
 8001ef2:	9712      	str	r7, [sp, #72]	@ 0x48
 8001ef4:	f3c3 0313 	ubfx	r3, r3, #0, #20
 8001ef8:	e9dd 010c 	ldrd	r0, r1, [sp, #48]	@ 0x30
 8001efc:	f043 537f 	orr.w	r3, r3, #1069547520	@ 0x3fc00000
 8001f00:	f443 1340 	orr.w	r3, r3, #3145728	@ 0x300000
 8001f04:	f2a6 36ff 	subw	r6, r6, #1023	@ 0x3ff
 8001f08:	4619      	mov	r1, r3
 8001f0a:	2200      	movs	r2, #0
 8001f0c:	4b76      	ldr	r3, [pc, #472]	@ (80020e8 <_dtoa_r+0x2e0>)
 8001f0e:	f7fe f9cd 	bl	80002ac <__aeabi_dsub>
 8001f12:	a369      	add	r3, pc, #420	@ (adr r3, 80020b8 <_dtoa_r+0x2b0>)
 8001f14:	e9d3 2300 	ldrd	r2, r3, [r3]
 8001f18:	f7fe fb80 	bl	800061c <__aeabi_dmul>
 8001f1c:	a368      	add	r3, pc, #416	@ (adr r3, 80020c0 <_dtoa_r+0x2b8>)
 8001f1e:	e9d3 2300 	ldrd	r2, r3, [r3]
 8001f22:	f7fe f9c5 	bl	80002b0 <__adddf3>
 8001f26:	4604      	mov	r4, r0
 8001f28:	4630      	mov	r0, r6
 8001f2a:	460d      	mov	r5, r1
 8001f2c:	f7fe fb0c 	bl	8000548 <__aeabi_i2d>
 8001f30:	a365      	add	r3, pc, #404	@ (adr r3, 80020c8 <_dtoa_r+0x2c0>)
 8001f32:	e9d3 2300 	ldrd	r2, r3, [r3]
 8001f36:	f7fe fb71 	bl	800061c <__aeabi_dmul>
 8001f3a:	4602      	mov	r2, r0
 8001f3c:	460b      	mov	r3, r1
 8001f3e:	4620      	mov	r0, r4
 8001f40:	4629      	mov	r1, r5
 8001f42:	f7fe f9b5 	bl	80002b0 <__adddf3>
 8001f46:	4604      	mov	r4, r0
 8001f48:	460d      	mov	r5, r1
 8001f4a:	f7fe fe17 	bl	8000b7c <__aeabi_d2iz>
 8001f4e:	2200      	movs	r2, #0
 8001f50:	4607      	mov	r7, r0
 8001f52:	2300      	movs	r3, #0
 8001f54:	4620      	mov	r0, r4
 8001f56:	4629      	mov	r1, r5
 8001f58:	f7fe fdd2 	bl	8000b00 <__aeabi_dcmplt>
 8001f5c:	b140      	cbz	r0, 8001f70 <_dtoa_r+0x168>
 8001f5e:	4638      	mov	r0, r7
 8001f60:	f7fe faf2 	bl	8000548 <__aeabi_i2d>
 8001f64:	4622      	mov	r2, r4
 8001f66:	462b      	mov	r3, r5
 8001f68:	f7fe fdc0 	bl	8000aec <__aeabi_dcmpeq>
 8001f6c:	b900      	cbnz	r0, 8001f70 <_dtoa_r+0x168>
 8001f6e:	3f01      	subs	r7, #1
 8001f70:	2f16      	cmp	r7, #22
 8001f72:	d852      	bhi.n	800201a <_dtoa_r+0x212>
 8001f74:	4b5d      	ldr	r3, [pc, #372]	@ (80020ec <_dtoa_r+0x2e4>)
 8001f76:	eb03 03c7 	add.w	r3, r3, r7, lsl #3
 8001f7a:	e9d3 2300 	ldrd	r2, r3, [r3]
 8001f7e:	e9dd 010c 	ldrd	r0, r1, [sp, #48]	@ 0x30
 8001f82:	f7fe fdbd 	bl	8000b00 <__aeabi_dcmplt>
 8001f86:	2800      	cmp	r0, #0
 8001f88:	d049      	beq.n	800201e <_dtoa_r+0x216>
 8001f8a:	3f01      	subs	r7, #1
 8001f8c:	2300      	movs	r3, #0
 8001f8e:	930f      	str	r3, [sp, #60]	@ 0x3c
 8001f90:	9b14      	ldr	r3, [sp, #80]	@ 0x50
 8001f92:	1b9b      	subs	r3, r3, r6
 8001f94:	1e5a      	subs	r2, r3, #1
 8001f96:	bf44      	itt	mi
 8001f98:	f1c3 0801 	rsbmi	r8, r3, #1
 8001f9c:	2300      	movmi	r3, #0
 8001f9e:	9209      	str	r2, [sp, #36]	@ 0x24
 8001fa0:	bf54      	ite	pl
 8001fa2:	f04f 0800 	movpl.w	r8, #0
 8001fa6:	9309      	strmi	r3, [sp, #36]	@ 0x24
 8001fa8:	2f00      	cmp	r7, #0
 8001faa:	db3a      	blt.n	8002022 <_dtoa_r+0x21a>
 8001fac:	9b09      	ldr	r3, [sp, #36]	@ 0x24
 8001fae:	970e      	str	r7, [sp, #56]	@ 0x38
 8001fb0:	443b      	add	r3, r7
 8001fb2:	9309      	str	r3, [sp, #36]	@ 0x24
 8001fb4:	2300      	movs	r3, #0
 8001fb6:	930a      	str	r3, [sp, #40]	@ 0x28
 8001fb8:	9b20      	ldr	r3, [sp, #128]	@ 0x80
 8001fba:	2b09      	cmp	r3, #9
 8001fbc:	d865      	bhi.n	800208a <_dtoa_r+0x282>
 8001fbe:	2b05      	cmp	r3, #5
 8001fc0:	bfc4      	itt	gt
 8001fc2:	3b04      	subgt	r3, #4
 8001fc4:	9320      	strgt	r3, [sp, #128]	@ 0x80
 8001fc6:	9b20      	ldr	r3, [sp, #128]	@ 0x80
 8001fc8:	f1a3 0302 	sub.w	r3, r3, #2
 8001fcc:	bfcc      	ite	gt
 8001fce:	2400      	movgt	r4, #0
 8001fd0:	2401      	movle	r4, #1
 8001fd2:	2b03      	cmp	r3, #3
 8001fd4:	d864      	bhi.n	80020a0 <_dtoa_r+0x298>
 8001fd6:	e8df f003 	tbb	[pc, r3]
 8001fda:	382b      	.short	0x382b
 8001fdc:	5636      	.short	0x5636
 8001fde:	e9dd 6314 	ldrd	r6, r3, [sp, #80]	@ 0x50
 8001fe2:	441e      	add	r6, r3
 8001fe4:	f206 4332 	addw	r3, r6, #1074	@ 0x432
 8001fe8:	2b20      	cmp	r3, #32
 8001fea:	bfc1      	itttt	gt
 8001fec:	f1c3 0340 	rsbgt	r3, r3, #64	@ 0x40
 8001ff0:	fa08 f803 	lslgt.w	r8, r8, r3
 8001ff4:	f206 4312 	addwgt	r3, r6, #1042	@ 0x412
 8001ff8:	fa24 f303 	lsrgt.w	r3, r4, r3
 8001ffc:	bfd6      	itet	le
 8001ffe:	f1c3 0320 	rsble	r3, r3, #32
 8002002:	ea48 0003 	orrgt.w	r0, r8, r3
 8002006:	fa04 f003 	lslle.w	r0, r4, r3
 800200a:	f7fe fa8d 	bl	8000528 <__aeabi_ui2d>
 800200e:	2201      	movs	r2, #1
 8002010:	f1a1 73f8 	sub.w	r3, r1, #32505856	@ 0x1f00000
 8002014:	3e01      	subs	r6, #1
 8002016:	9212      	str	r2, [sp, #72]	@ 0x48
 8002018:	e776      	b.n	8001f08 <_dtoa_r+0x100>
 800201a:	2301      	movs	r3, #1
 800201c:	e7b7      	b.n	8001f8e <_dtoa_r+0x186>
 800201e:	900f      	str	r0, [sp, #60]	@ 0x3c
 8002020:	e7b6      	b.n	8001f90 <_dtoa_r+0x188>
 8002022:	427b      	negs	r3, r7
 8002024:	930a      	str	r3, [sp, #40]	@ 0x28
 8002026:	2300      	movs	r3, #0
 8002028:	eba8 0807 	sub.w	r8, r8, r7
 800202c:	930e      	str	r3, [sp, #56]	@ 0x38
 800202e:	e7c3      	b.n	8001fb8 <_dtoa_r+0x1b0>
 8002030:	2300      	movs	r3, #0
 8002032:	930b      	str	r3, [sp, #44]	@ 0x2c
 8002034:	9b21      	ldr	r3, [sp, #132]	@ 0x84
 8002036:	2b00      	cmp	r3, #0
 8002038:	dc35      	bgt.n	80020a6 <_dtoa_r+0x29e>
 800203a:	2301      	movs	r3, #1
 800203c:	e9cd 3307 	strd	r3, r3, [sp, #28]
 8002040:	461a      	mov	r2, r3
 8002042:	9221      	str	r2, [sp, #132]	@ 0x84
 8002044:	e00b      	b.n	800205e <_dtoa_r+0x256>
 8002046:	2301      	movs	r3, #1
 8002048:	e7f3      	b.n	8002032 <_dtoa_r+0x22a>
 800204a:	2300      	movs	r3, #0
 800204c:	930b      	str	r3, [sp, #44]	@ 0x2c
 800204e:	9b21      	ldr	r3, [sp, #132]	@ 0x84
 8002050:	18fb      	adds	r3, r7, r3
 8002052:	9308      	str	r3, [sp, #32]
 8002054:	3301      	adds	r3, #1
 8002056:	2b01      	cmp	r3, #1
 8002058:	9307      	str	r3, [sp, #28]
 800205a:	bfb8      	it	lt
 800205c:	2301      	movlt	r3, #1
 800205e:	f8db 001c 	ldr.w	r0, [fp, #28]
 8002062:	2100      	movs	r1, #0
 8002064:	2204      	movs	r2, #4
 8002066:	f102 0514 	add.w	r5, r2, #20
 800206a:	429d      	cmp	r5, r3
 800206c:	d91f      	bls.n	80020ae <_dtoa_r+0x2a6>
 800206e:	6041      	str	r1, [r0, #4]
 8002070:	4658      	mov	r0, fp
 8002072:	f000 fd83 	bl	8002b7c <_Balloc>
 8002076:	4682      	mov	sl, r0
 8002078:	2800      	cmp	r0, #0
 800207a:	d13b      	bne.n	80020f4 <_dtoa_r+0x2ec>
 800207c:	4b1c      	ldr	r3, [pc, #112]	@ (80020f0 <_dtoa_r+0x2e8>)
 800207e:	4602      	mov	r2, r0
 8002080:	f240 11af 	movw	r1, #431	@ 0x1af
 8002084:	e6d4      	b.n	8001e30 <_dtoa_r+0x28>
 8002086:	2301      	movs	r3, #1
 8002088:	e7e0      	b.n	800204c <_dtoa_r+0x244>
 800208a:	2401      	movs	r4, #1
 800208c:	2300      	movs	r3, #0
 800208e:	9320      	str	r3, [sp, #128]	@ 0x80
 8002090:	940b      	str	r4, [sp, #44]	@ 0x2c
 8002092:	f04f 33ff 	mov.w	r3, #4294967295	@ 0xffffffff
 8002096:	e9cd 3307 	strd	r3, r3, [sp, #28]
 800209a:	2200      	movs	r2, #0
 800209c:	2312      	movs	r3, #18
 800209e:	e7d0      	b.n	8002042 <_dtoa_r+0x23a>
 80020a0:	2301      	movs	r3, #1
 80020a2:	930b      	str	r3, [sp, #44]	@ 0x2c
 80020a4:	e7f5      	b.n	8002092 <_dtoa_r+0x28a>
 80020a6:	9b21      	ldr	r3, [sp, #132]	@ 0x84
 80020a8:	e9cd 3307 	strd	r3, r3, [sp, #28]
 80020ac:	e7d7      	b.n	800205e <_dtoa_r+0x256>
 80020ae:	3101      	adds	r1, #1
 80020b0:	0052      	lsls	r2, r2, #1
 80020b2:	e7d8      	b.n	8002066 <_dtoa_r+0x25e>
 80020b4:	f3af 8000 	nop.w
 80020b8:	636f4361 	.word	0x636f4361
 80020bc:	3fd287a7 	.word	0x3fd287a7
 80020c0:	8b60c8b3 	.word	0x8b60c8b3
 80020c4:	3fc68a28 	.word	0x3fc68a28
 80020c8:	509f79fb 	.word	0x509f79fb
 80020cc:	3fd34413 	.word	0x3fd34413
 80020d0:	08003aa3 	.word	0x08003aa3
 80020d4:	08003aba 	.word	0x08003aba
 80020d8:	7ff00000 	.word	0x7ff00000
 80020dc:	08003a9f 	.word	0x08003a9f
 80020e0:	08003a73 	.word	0x08003a73
 80020e4:	08003a72 	.word	0x08003a72
 80020e8:	3ff80000 	.word	0x3ff80000
 80020ec:	08003bb0 	.word	0x08003bb0
 80020f0:	08003b12 	.word	0x08003b12
 80020f4:	f8db 301c 	ldr.w	r3, [fp, #28]
 80020f8:	6018      	str	r0, [r3, #0]
 80020fa:	9b07      	ldr	r3, [sp, #28]
 80020fc:	2b0e      	cmp	r3, #14
 80020fe:	f200 80a4 	bhi.w	800224a <_dtoa_r+0x442>
 8002102:	2c00      	cmp	r4, #0
 8002104:	f000 80a1 	beq.w	800224a <_dtoa_r+0x442>
 8002108:	2f00      	cmp	r7, #0
 800210a:	dd33      	ble.n	8002174 <_dtoa_r+0x36c>
 800210c:	4b86      	ldr	r3, [pc, #536]	@ (8002328 <_dtoa_r+0x520>)
 800210e:	f007 020f 	and.w	r2, r7, #15
 8002112:	eb03 03c2 	add.w	r3, r3, r2, lsl #3
 8002116:	e9d3 3400 	ldrd	r3, r4, [r3]
 800211a:	05f8      	lsls	r0, r7, #23
 800211c:	e9cd 3404 	strd	r3, r4, [sp, #16]
 8002120:	ea4f 1427 	mov.w	r4, r7, asr #4
 8002124:	d516      	bpl.n	8002154 <_dtoa_r+0x34c>
 8002126:	4b81      	ldr	r3, [pc, #516]	@ (800232c <_dtoa_r+0x524>)
 8002128:	e9dd 010c 	ldrd	r0, r1, [sp, #48]	@ 0x30
 800212c:	e9d3 2308 	ldrd	r2, r3, [r3, #32]
 8002130:	f7fe fb9e 	bl	8000870 <__aeabi_ddiv>
 8002134:	e9cd 0102 	strd	r0, r1, [sp, #8]
 8002138:	f004 040f 	and.w	r4, r4, #15
 800213c:	2603      	movs	r6, #3
 800213e:	4d7b      	ldr	r5, [pc, #492]	@ (800232c <_dtoa_r+0x524>)
 8002140:	b954      	cbnz	r4, 8002158 <_dtoa_r+0x350>
 8002142:	e9dd 2304 	ldrd	r2, r3, [sp, #16]
 8002146:	e9dd 0102 	ldrd	r0, r1, [sp, #8]
 800214a:	f7fe fb91 	bl	8000870 <__aeabi_ddiv>
 800214e:	e9cd 0102 	strd	r0, r1, [sp, #8]
 8002152:	e028      	b.n	80021a6 <_dtoa_r+0x39e>
 8002154:	2602      	movs	r6, #2
 8002156:	e7f2      	b.n	800213e <_dtoa_r+0x336>
 8002158:	07e1      	lsls	r1, r4, #31
 800215a:	d508      	bpl.n	800216e <_dtoa_r+0x366>
 800215c:	e9dd 0104 	ldrd	r0, r1, [sp, #16]
 8002160:	e9d5 2300 	ldrd	r2, r3, [r5]
 8002164:	f7fe fa5a 	bl	800061c <__aeabi_dmul>
 8002168:	e9cd 0104 	strd	r0, r1, [sp, #16]
 800216c:	3601      	adds	r6, #1
 800216e:	1064      	asrs	r4, r4, #1
 8002170:	3508      	adds	r5, #8
 8002172:	e7e5      	b.n	8002140 <_dtoa_r+0x338>
 8002174:	f000 80d2 	beq.w	800231c <_dtoa_r+0x514>
 8002178:	427c      	negs	r4, r7
 800217a:	4b6b      	ldr	r3, [pc, #428]	@ (8002328 <_dtoa_r+0x520>)
 800217c:	4d6b      	ldr	r5, [pc, #428]	@ (800232c <_dtoa_r+0x524>)
 800217e:	f004 020f 	and.w	r2, r4, #15
 8002182:	eb03 03c2 	add.w	r3, r3, r2, lsl #3
 8002186:	e9d3 2300 	ldrd	r2, r3, [r3]
 800218a:	e9dd 010c 	ldrd	r0, r1, [sp, #48]	@ 0x30
 800218e:	f7fe fa45 	bl	800061c <__aeabi_dmul>
 8002192:	e9cd 0102 	strd	r0, r1, [sp, #8]
 8002196:	1124      	asrs	r4, r4, #4
 8002198:	2300      	movs	r3, #0
 800219a:	2602      	movs	r6, #2
 800219c:	2c00      	cmp	r4, #0
 800219e:	f040 80b2 	bne.w	8002306 <_dtoa_r+0x4fe>
 80021a2:	2b00      	cmp	r3, #0
 80021a4:	d1d3      	bne.n	800214e <_dtoa_r+0x346>
 80021a6:	9b0f      	ldr	r3, [sp, #60]	@ 0x3c
 80021a8:	e9dd 4502 	ldrd	r4, r5, [sp, #8]
 80021ac:	2b00      	cmp	r3, #0
 80021ae:	f000 80b7 	beq.w	8002320 <_dtoa_r+0x518>
 80021b2:	4b5f      	ldr	r3, [pc, #380]	@ (8002330 <_dtoa_r+0x528>)
 80021b4:	2200      	movs	r2, #0
 80021b6:	4620      	mov	r0, r4
 80021b8:	4629      	mov	r1, r5
 80021ba:	f7fe fca1 	bl	8000b00 <__aeabi_dcmplt>
 80021be:	2800      	cmp	r0, #0
 80021c0:	f000 80ae 	beq.w	8002320 <_dtoa_r+0x518>
 80021c4:	9b07      	ldr	r3, [sp, #28]
 80021c6:	2b00      	cmp	r3, #0
 80021c8:	f000 80aa 	beq.w	8002320 <_dtoa_r+0x518>
 80021cc:	9b08      	ldr	r3, [sp, #32]
 80021ce:	2b00      	cmp	r3, #0
 80021d0:	dd37      	ble.n	8002242 <_dtoa_r+0x43a>
 80021d2:	1e7b      	subs	r3, r7, #1
 80021d4:	9304      	str	r3, [sp, #16]
 80021d6:	4620      	mov	r0, r4
 80021d8:	4b56      	ldr	r3, [pc, #344]	@ (8002334 <_dtoa_r+0x52c>)
 80021da:	2200      	movs	r2, #0
 80021dc:	4629      	mov	r1, r5
 80021de:	f7fe fa1d 	bl	800061c <__aeabi_dmul>
 80021e2:	e9cd 0102 	strd	r0, r1, [sp, #8]
 80021e6:	9c08      	ldr	r4, [sp, #32]
 80021e8:	3601      	adds	r6, #1
 80021ea:	4630      	mov	r0, r6
 80021ec:	f7fe f9ac 	bl	8000548 <__aeabi_i2d>
 80021f0:	e9dd 2302 	ldrd	r2, r3, [sp, #8]
 80021f4:	f7fe fa12 	bl	800061c <__aeabi_dmul>
 80021f8:	4b4f      	ldr	r3, [pc, #316]	@ (8002338 <_dtoa_r+0x530>)
 80021fa:	2200      	movs	r2, #0
 80021fc:	f7fe f858 	bl	80002b0 <__adddf3>
 8002200:	4605      	mov	r5, r0
 8002202:	f1a1 7650 	sub.w	r6, r1, #54525952	@ 0x3400000
 8002206:	2c00      	cmp	r4, #0
 8002208:	f040 809a 	bne.w	8002340 <_dtoa_r+0x538>
 800220c:	e9dd 0102 	ldrd	r0, r1, [sp, #8]
 8002210:	4b4a      	ldr	r3, [pc, #296]	@ (800233c <_dtoa_r+0x534>)
 8002212:	2200      	movs	r2, #0
 8002214:	f7fe f84a 	bl	80002ac <__aeabi_dsub>
 8002218:	4602      	mov	r2, r0
 800221a:	460b      	mov	r3, r1
 800221c:	e9cd 2302 	strd	r2, r3, [sp, #8]
 8002220:	462a      	mov	r2, r5
 8002222:	4633      	mov	r3, r6
 8002224:	f7fe fc8a 	bl	8000b3c <__aeabi_dcmpgt>
 8002228:	2800      	cmp	r0, #0
 800222a:	f040 828e 	bne.w	800274a <_dtoa_r+0x942>
 800222e:	e9dd 0102 	ldrd	r0, r1, [sp, #8]
 8002232:	462a      	mov	r2, r5
 8002234:	f106 4300 	add.w	r3, r6, #2147483648	@ 0x80000000
 8002238:	f7fe fc62 	bl	8000b00 <__aeabi_dcmplt>
 800223c:	2800      	cmp	r0, #0
 800223e:	f040 8127 	bne.w	8002490 <_dtoa_r+0x688>
 8002242:	e9dd 340c 	ldrd	r3, r4, [sp, #48]	@ 0x30
 8002246:	e9cd 3402 	strd	r3, r4, [sp, #8]
 800224a:	9b15      	ldr	r3, [sp, #84]	@ 0x54
 800224c:	2b00      	cmp	r3, #0
 800224e:	f2c0 8163 	blt.w	8002518 <_dtoa_r+0x710>
 8002252:	2f0e      	cmp	r7, #14
 8002254:	f300 8160 	bgt.w	8002518 <_dtoa_r+0x710>
 8002258:	4b33      	ldr	r3, [pc, #204]	@ (8002328 <_dtoa_r+0x520>)
 800225a:	eb03 03c7 	add.w	r3, r3, r7, lsl #3
 800225e:	e9d3 3400 	ldrd	r3, r4, [r3]
 8002262:	e9cd 3404 	strd	r3, r4, [sp, #16]
 8002266:	9b21      	ldr	r3, [sp, #132]	@ 0x84
 8002268:	2b00      	cmp	r3, #0
 800226a:	da03      	bge.n	8002274 <_dtoa_r+0x46c>
 800226c:	9b07      	ldr	r3, [sp, #28]
 800226e:	2b00      	cmp	r3, #0
 8002270:	f340 8100 	ble.w	8002474 <_dtoa_r+0x66c>
 8002274:	e9dd 4502 	ldrd	r4, r5, [sp, #8]
 8002278:	4656      	mov	r6, sl
 800227a:	e9dd 2304 	ldrd	r2, r3, [sp, #16]
 800227e:	4620      	mov	r0, r4
 8002280:	4629      	mov	r1, r5
 8002282:	f7fe faf5 	bl	8000870 <__aeabi_ddiv>
 8002286:	f7fe fc79 	bl	8000b7c <__aeabi_d2iz>
 800228a:	4680      	mov	r8, r0
 800228c:	f7fe f95c 	bl	8000548 <__aeabi_i2d>
 8002290:	e9dd 2304 	ldrd	r2, r3, [sp, #16]
 8002294:	f7fe f9c2 	bl	800061c <__aeabi_dmul>
 8002298:	4602      	mov	r2, r0
 800229a:	460b      	mov	r3, r1
 800229c:	4620      	mov	r0, r4
 800229e:	4629      	mov	r1, r5
 80022a0:	f108 0430 	add.w	r4, r8, #48	@ 0x30
 80022a4:	f7fe f802 	bl	80002ac <__aeabi_dsub>
 80022a8:	f806 4b01 	strb.w	r4, [r6], #1
 80022ac:	9d07      	ldr	r5, [sp, #28]
 80022ae:	eba6 040a 	sub.w	r4, r6, sl
 80022b2:	42a5      	cmp	r5, r4
 80022b4:	4602      	mov	r2, r0
 80022b6:	460b      	mov	r3, r1
 80022b8:	f040 8116 	bne.w	80024e8 <_dtoa_r+0x6e0>
 80022bc:	f7fd fff8 	bl	80002b0 <__adddf3>
 80022c0:	e9dd 2304 	ldrd	r2, r3, [sp, #16]
 80022c4:	4604      	mov	r4, r0
 80022c6:	460d      	mov	r5, r1
 80022c8:	f7fe fc38 	bl	8000b3c <__aeabi_dcmpgt>
 80022cc:	2800      	cmp	r0, #0
 80022ce:	f040 80f8 	bne.w	80024c2 <_dtoa_r+0x6ba>
 80022d2:	e9dd 2304 	ldrd	r2, r3, [sp, #16]
 80022d6:	4620      	mov	r0, r4
 80022d8:	4629      	mov	r1, r5
 80022da:	f7fe fc07 	bl	8000aec <__aeabi_dcmpeq>
 80022de:	b118      	cbz	r0, 80022e8 <_dtoa_r+0x4e0>
 80022e0:	f018 0f01 	tst.w	r8, #1
 80022e4:	f040 80ed 	bne.w	80024c2 <_dtoa_r+0x6ba>
 80022e8:	4649      	mov	r1, r9
 80022ea:	4658      	mov	r0, fp
 80022ec:	f000 fc86 	bl	8002bfc <_Bfree>
 80022f0:	2300      	movs	r3, #0
 80022f2:	7033      	strb	r3, [r6, #0]
 80022f4:	9b22      	ldr	r3, [sp, #136]	@ 0x88
 80022f6:	3701      	adds	r7, #1
 80022f8:	601f      	str	r7, [r3, #0]
 80022fa:	9b24      	ldr	r3, [sp, #144]	@ 0x90
 80022fc:	2b00      	cmp	r3, #0
 80022fe:	f000 8320 	beq.w	8002942 <_dtoa_r+0xb3a>
 8002302:	601e      	str	r6, [r3, #0]
 8002304:	e31d      	b.n	8002942 <_dtoa_r+0xb3a>
 8002306:	07e2      	lsls	r2, r4, #31
 8002308:	d505      	bpl.n	8002316 <_dtoa_r+0x50e>
 800230a:	e9d5 2300 	ldrd	r2, r3, [r5]
 800230e:	f7fe f985 	bl	800061c <__aeabi_dmul>
 8002312:	3601      	adds	r6, #1
 8002314:	2301      	movs	r3, #1
 8002316:	1064      	asrs	r4, r4, #1
 8002318:	3508      	adds	r5, #8
 800231a:	e73f      	b.n	800219c <_dtoa_r+0x394>
 800231c:	2602      	movs	r6, #2
 800231e:	e742      	b.n	80021a6 <_dtoa_r+0x39e>
 8002320:	9c07      	ldr	r4, [sp, #28]
 8002322:	9704      	str	r7, [sp, #16]
 8002324:	e761      	b.n	80021ea <_dtoa_r+0x3e2>
 8002326:	bf00      	nop
 8002328:	08003bb0 	.word	0x08003bb0
 800232c:	08003b88 	.word	0x08003b88
 8002330:	3ff00000 	.word	0x3ff00000
 8002334:	40240000 	.word	0x40240000
 8002338:	401c0000 	.word	0x401c0000
 800233c:	40140000 	.word	0x40140000
 8002340:	4b70      	ldr	r3, [pc, #448]	@ (8002504 <_dtoa_r+0x6fc>)
 8002342:	990b      	ldr	r1, [sp, #44]	@ 0x2c
 8002344:	eb03 03c4 	add.w	r3, r3, r4, lsl #3
 8002348:	e953 2302 	ldrd	r2, r3, [r3, #-8]
 800234c:	4454      	add	r4, sl
 800234e:	2900      	cmp	r1, #0
 8002350:	d045      	beq.n	80023de <_dtoa_r+0x5d6>
 8002352:	496d      	ldr	r1, [pc, #436]	@ (8002508 <_dtoa_r+0x700>)
 8002354:	2000      	movs	r0, #0
 8002356:	f7fe fa8b 	bl	8000870 <__aeabi_ddiv>
 800235a:	4633      	mov	r3, r6
 800235c:	462a      	mov	r2, r5
 800235e:	f7fd ffa5 	bl	80002ac <__aeabi_dsub>
 8002362:	e9cd 0110 	strd	r0, r1, [sp, #64]	@ 0x40
 8002366:	4656      	mov	r6, sl
 8002368:	e9dd 0102 	ldrd	r0, r1, [sp, #8]
 800236c:	f7fe fc06 	bl	8000b7c <__aeabi_d2iz>
 8002370:	4605      	mov	r5, r0
 8002372:	f7fe f8e9 	bl	8000548 <__aeabi_i2d>
 8002376:	4602      	mov	r2, r0
 8002378:	460b      	mov	r3, r1
 800237a:	e9dd 0102 	ldrd	r0, r1, [sp, #8]
 800237e:	f7fd ff95 	bl	80002ac <__aeabi_dsub>
 8002382:	3530      	adds	r5, #48	@ 0x30
 8002384:	4602      	mov	r2, r0
 8002386:	460b      	mov	r3, r1
 8002388:	e9cd 2302 	strd	r2, r3, [sp, #8]
 800238c:	f806 5b01 	strb.w	r5, [r6], #1
 8002390:	e9dd 2310 	ldrd	r2, r3, [sp, #64]	@ 0x40
 8002394:	f7fe fbb4 	bl	8000b00 <__aeabi_dcmplt>
 8002398:	2800      	cmp	r0, #0
 800239a:	d163      	bne.n	8002464 <_dtoa_r+0x65c>
 800239c:	e9dd 2302 	ldrd	r2, r3, [sp, #8]
 80023a0:	495a      	ldr	r1, [pc, #360]	@ (800250c <_dtoa_r+0x704>)
 80023a2:	2000      	movs	r0, #0
 80023a4:	f7fd ff82 	bl	80002ac <__aeabi_dsub>
 80023a8:	e9dd 2310 	ldrd	r2, r3, [sp, #64]	@ 0x40
 80023ac:	f7fe fba8 	bl	8000b00 <__aeabi_dcmplt>
 80023b0:	2800      	cmp	r0, #0
 80023b2:	f040 8087 	bne.w	80024c4 <_dtoa_r+0x6bc>
 80023b6:	42a6      	cmp	r6, r4
 80023b8:	f43f af43 	beq.w	8002242 <_dtoa_r+0x43a>
 80023bc:	e9dd 0110 	ldrd	r0, r1, [sp, #64]	@ 0x40
 80023c0:	4b53      	ldr	r3, [pc, #332]	@ (8002510 <_dtoa_r+0x708>)
 80023c2:	2200      	movs	r2, #0
 80023c4:	f7fe f92a 	bl	800061c <__aeabi_dmul>
 80023c8:	4b51      	ldr	r3, [pc, #324]	@ (8002510 <_dtoa_r+0x708>)
 80023ca:	e9cd 0110 	strd	r0, r1, [sp, #64]	@ 0x40
 80023ce:	2200      	movs	r2, #0
 80023d0:	e9dd 0102 	ldrd	r0, r1, [sp, #8]
 80023d4:	f7fe f922 	bl	800061c <__aeabi_dmul>
 80023d8:	e9cd 0102 	strd	r0, r1, [sp, #8]
 80023dc:	e7c4      	b.n	8002368 <_dtoa_r+0x560>
 80023de:	4631      	mov	r1, r6
 80023e0:	4628      	mov	r0, r5
 80023e2:	f7fe f91b 	bl	800061c <__aeabi_dmul>
 80023e6:	e9cd 0110 	strd	r0, r1, [sp, #64]	@ 0x40
 80023ea:	9413      	str	r4, [sp, #76]	@ 0x4c
 80023ec:	4656      	mov	r6, sl
 80023ee:	e9dd 0102 	ldrd	r0, r1, [sp, #8]
 80023f2:	f7fe fbc3 	bl	8000b7c <__aeabi_d2iz>
 80023f6:	4605      	mov	r5, r0
 80023f8:	f7fe f8a6 	bl	8000548 <__aeabi_i2d>
 80023fc:	4602      	mov	r2, r0
 80023fe:	460b      	mov	r3, r1
 8002400:	e9dd 0102 	ldrd	r0, r1, [sp, #8]
 8002404:	f7fd ff52 	bl	80002ac <__aeabi_dsub>
 8002408:	3530      	adds	r5, #48	@ 0x30
 800240a:	f806 5b01 	strb.w	r5, [r6], #1
 800240e:	4602      	mov	r2, r0
 8002410:	460b      	mov	r3, r1
 8002412:	42a6      	cmp	r6, r4
 8002414:	e9cd 2302 	strd	r2, r3, [sp, #8]
 8002418:	f04f 0200 	mov.w	r2, #0
 800241c:	d124      	bne.n	8002468 <_dtoa_r+0x660>
 800241e:	4b3a      	ldr	r3, [pc, #232]	@ (8002508 <_dtoa_r+0x700>)
 8002420:	e9dd 0110 	ldrd	r0, r1, [sp, #64]	@ 0x40
 8002424:	f7fd ff44 	bl	80002b0 <__adddf3>
 8002428:	4602      	mov	r2, r0
 800242a:	460b      	mov	r3, r1
 800242c:	e9dd 0102 	ldrd	r0, r1, [sp, #8]
 8002430:	f7fe fb84 	bl	8000b3c <__aeabi_dcmpgt>
 8002434:	2800      	cmp	r0, #0
 8002436:	d145      	bne.n	80024c4 <_dtoa_r+0x6bc>
 8002438:	e9dd 2310 	ldrd	r2, r3, [sp, #64]	@ 0x40
 800243c:	4932      	ldr	r1, [pc, #200]	@ (8002508 <_dtoa_r+0x700>)
 800243e:	2000      	movs	r0, #0
 8002440:	f7fd ff34 	bl	80002ac <__aeabi_dsub>
 8002444:	4602      	mov	r2, r0
 8002446:	460b      	mov	r3, r1
 8002448:	e9dd 0102 	ldrd	r0, r1, [sp, #8]
 800244c:	f7fe fb58 	bl	8000b00 <__aeabi_dcmplt>
 8002450:	2800      	cmp	r0, #0
 8002452:	f43f aef6 	beq.w	8002242 <_dtoa_r+0x43a>
 8002456:	9e13      	ldr	r6, [sp, #76]	@ 0x4c
 8002458:	1e73      	subs	r3, r6, #1
 800245a:	9313      	str	r3, [sp, #76]	@ 0x4c
 800245c:	f816 3c01 	ldrb.w	r3, [r6, #-1]
 8002460:	2b30      	cmp	r3, #48	@ 0x30
 8002462:	d0f8      	beq.n	8002456 <_dtoa_r+0x64e>
 8002464:	9f04      	ldr	r7, [sp, #16]
 8002466:	e73f      	b.n	80022e8 <_dtoa_r+0x4e0>
 8002468:	4b29      	ldr	r3, [pc, #164]	@ (8002510 <_dtoa_r+0x708>)
 800246a:	f7fe f8d7 	bl	800061c <__aeabi_dmul>
 800246e:	e9cd 0102 	strd	r0, r1, [sp, #8]
 8002472:	e7bc      	b.n	80023ee <_dtoa_r+0x5e6>
 8002474:	d10c      	bne.n	8002490 <_dtoa_r+0x688>
 8002476:	4b27      	ldr	r3, [pc, #156]	@ (8002514 <_dtoa_r+0x70c>)
 8002478:	2200      	movs	r2, #0
 800247a:	e9dd 0104 	ldrd	r0, r1, [sp, #16]
 800247e:	f7fe f8cd 	bl	800061c <__aeabi_dmul>
 8002482:	e9dd 2302 	ldrd	r2, r3, [sp, #8]
 8002486:	f7fe fb4f 	bl	8000b28 <__aeabi_dcmpge>
 800248a:	2800      	cmp	r0, #0
 800248c:	f000 815b 	beq.w	8002746 <_dtoa_r+0x93e>
 8002490:	2400      	movs	r4, #0
 8002492:	4625      	mov	r5, r4
 8002494:	9b21      	ldr	r3, [sp, #132]	@ 0x84
 8002496:	43db      	mvns	r3, r3
 8002498:	9304      	str	r3, [sp, #16]
 800249a:	4656      	mov	r6, sl
 800249c:	2700      	movs	r7, #0
 800249e:	4621      	mov	r1, r4
 80024a0:	4658      	mov	r0, fp
 80024a2:	f000 fbab 	bl	8002bfc <_Bfree>
 80024a6:	2d00      	cmp	r5, #0
 80024a8:	d0dc      	beq.n	8002464 <_dtoa_r+0x65c>
 80024aa:	b12f      	cbz	r7, 80024b8 <_dtoa_r+0x6b0>
 80024ac:	42af      	cmp	r7, r5
 80024ae:	d003      	beq.n	80024b8 <_dtoa_r+0x6b0>
 80024b0:	4639      	mov	r1, r7
 80024b2:	4658      	mov	r0, fp
 80024b4:	f000 fba2 	bl	8002bfc <_Bfree>
 80024b8:	4629      	mov	r1, r5
 80024ba:	4658      	mov	r0, fp
 80024bc:	f000 fb9e 	bl	8002bfc <_Bfree>
 80024c0:	e7d0      	b.n	8002464 <_dtoa_r+0x65c>
 80024c2:	9704      	str	r7, [sp, #16]
 80024c4:	4633      	mov	r3, r6
 80024c6:	461e      	mov	r6, r3
 80024c8:	f813 2d01 	ldrb.w	r2, [r3, #-1]!
 80024cc:	2a39      	cmp	r2, #57	@ 0x39
 80024ce:	d107      	bne.n	80024e0 <_dtoa_r+0x6d8>
 80024d0:	459a      	cmp	sl, r3
 80024d2:	d1f8      	bne.n	80024c6 <_dtoa_r+0x6be>
 80024d4:	9a04      	ldr	r2, [sp, #16]
 80024d6:	3201      	adds	r2, #1
 80024d8:	9204      	str	r2, [sp, #16]
 80024da:	2230      	movs	r2, #48	@ 0x30
 80024dc:	f88a 2000 	strb.w	r2, [sl]
 80024e0:	781a      	ldrb	r2, [r3, #0]
 80024e2:	3201      	adds	r2, #1
 80024e4:	701a      	strb	r2, [r3, #0]
 80024e6:	e7bd      	b.n	8002464 <_dtoa_r+0x65c>
 80024e8:	4b09      	ldr	r3, [pc, #36]	@ (8002510 <_dtoa_r+0x708>)
 80024ea:	2200      	movs	r2, #0
 80024ec:	f7fe f896 	bl	800061c <__aeabi_dmul>
 80024f0:	2200      	movs	r2, #0
 80024f2:	2300      	movs	r3, #0
 80024f4:	4604      	mov	r4, r0
 80024f6:	460d      	mov	r5, r1
 80024f8:	f7fe faf8 	bl	8000aec <__aeabi_dcmpeq>
 80024fc:	2800      	cmp	r0, #0
 80024fe:	f43f aebc 	beq.w	800227a <_dtoa_r+0x472>
 8002502:	e6f1      	b.n	80022e8 <_dtoa_r+0x4e0>
 8002504:	08003bb0 	.word	0x08003bb0
 8002508:	3fe00000 	.word	0x3fe00000
 800250c:	3ff00000 	.word	0x3ff00000
 8002510:	40240000 	.word	0x40240000
 8002514:	40140000 	.word	0x40140000
 8002518:	9a0b      	ldr	r2, [sp, #44]	@ 0x2c
 800251a:	2a00      	cmp	r2, #0
 800251c:	f000 80db 	beq.w	80026d6 <_dtoa_r+0x8ce>
 8002520:	9a20      	ldr	r2, [sp, #128]	@ 0x80
 8002522:	2a01      	cmp	r2, #1
 8002524:	f300 80bf 	bgt.w	80026a6 <_dtoa_r+0x89e>
 8002528:	9a12      	ldr	r2, [sp, #72]	@ 0x48
 800252a:	2a00      	cmp	r2, #0
 800252c:	f000 80b7 	beq.w	800269e <_dtoa_r+0x896>
 8002530:	f203 4333 	addw	r3, r3, #1075	@ 0x433
 8002534:	9c0a      	ldr	r4, [sp, #40]	@ 0x28
 8002536:	4646      	mov	r6, r8
 8002538:	9a09      	ldr	r2, [sp, #36]	@ 0x24
 800253a:	2101      	movs	r1, #1
 800253c:	441a      	add	r2, r3
 800253e:	4658      	mov	r0, fp
 8002540:	4498      	add	r8, r3
 8002542:	9209      	str	r2, [sp, #36]	@ 0x24
 8002544:	f000 fc0e 	bl	8002d64 <__i2b>
 8002548:	4605      	mov	r5, r0
 800254a:	b15e      	cbz	r6, 8002564 <_dtoa_r+0x75c>
 800254c:	9b09      	ldr	r3, [sp, #36]	@ 0x24
 800254e:	2b00      	cmp	r3, #0
 8002550:	dd08      	ble.n	8002564 <_dtoa_r+0x75c>
 8002552:	42b3      	cmp	r3, r6
 8002554:	9a09      	ldr	r2, [sp, #36]	@ 0x24
 8002556:	bfa8      	it	ge
 8002558:	4633      	movge	r3, r6
 800255a:	eba8 0803 	sub.w	r8, r8, r3
 800255e:	1af6      	subs	r6, r6, r3
 8002560:	1ad3      	subs	r3, r2, r3
 8002562:	9309      	str	r3, [sp, #36]	@ 0x24
 8002564:	9b0a      	ldr	r3, [sp, #40]	@ 0x28
 8002566:	b1f3      	cbz	r3, 80025a6 <_dtoa_r+0x79e>
 8002568:	9b0b      	ldr	r3, [sp, #44]	@ 0x2c
 800256a:	2b00      	cmp	r3, #0
 800256c:	f000 80b7 	beq.w	80026de <_dtoa_r+0x8d6>
 8002570:	b18c      	cbz	r4, 8002596 <_dtoa_r+0x78e>
 8002572:	4629      	mov	r1, r5
 8002574:	4622      	mov	r2, r4
 8002576:	4658      	mov	r0, fp
 8002578:	f000 fcb4 	bl	8002ee4 <__pow5mult>
 800257c:	464a      	mov	r2, r9
 800257e:	4601      	mov	r1, r0
 8002580:	4605      	mov	r5, r0
 8002582:	4658      	mov	r0, fp
 8002584:	f000 fc04 	bl	8002d90 <__multiply>
 8002588:	4649      	mov	r1, r9
 800258a:	9004      	str	r0, [sp, #16]
 800258c:	4658      	mov	r0, fp
 800258e:	f000 fb35 	bl	8002bfc <_Bfree>
 8002592:	9b04      	ldr	r3, [sp, #16]
 8002594:	4699      	mov	r9, r3
 8002596:	9b0a      	ldr	r3, [sp, #40]	@ 0x28
 8002598:	1b1a      	subs	r2, r3, r4
 800259a:	d004      	beq.n	80025a6 <_dtoa_r+0x79e>
 800259c:	4649      	mov	r1, r9
 800259e:	4658      	mov	r0, fp
 80025a0:	f000 fca0 	bl	8002ee4 <__pow5mult>
 80025a4:	4681      	mov	r9, r0
 80025a6:	2101      	movs	r1, #1
 80025a8:	4658      	mov	r0, fp
 80025aa:	f000 fbdb 	bl	8002d64 <__i2b>
 80025ae:	9b0e      	ldr	r3, [sp, #56]	@ 0x38
 80025b0:	4604      	mov	r4, r0
 80025b2:	2b00      	cmp	r3, #0
 80025b4:	f000 81c9 	beq.w	800294a <_dtoa_r+0xb42>
 80025b8:	461a      	mov	r2, r3
 80025ba:	4601      	mov	r1, r0
 80025bc:	4658      	mov	r0, fp
 80025be:	f000 fc91 	bl	8002ee4 <__pow5mult>
 80025c2:	9b20      	ldr	r3, [sp, #128]	@ 0x80
 80025c4:	2b01      	cmp	r3, #1
 80025c6:	4604      	mov	r4, r0
 80025c8:	f300 808f 	bgt.w	80026ea <_dtoa_r+0x8e2>
 80025cc:	9b02      	ldr	r3, [sp, #8]
 80025ce:	2b00      	cmp	r3, #0
 80025d0:	f040 8087 	bne.w	80026e2 <_dtoa_r+0x8da>
 80025d4:	9b03      	ldr	r3, [sp, #12]
 80025d6:	f3c3 0313 	ubfx	r3, r3, #0, #20
 80025da:	2b00      	cmp	r3, #0
 80025dc:	f040 8083 	bne.w	80026e6 <_dtoa_r+0x8de>
 80025e0:	9b03      	ldr	r3, [sp, #12]
 80025e2:	f023 4300 	bic.w	r3, r3, #2147483648	@ 0x80000000
 80025e6:	0d1b      	lsrs	r3, r3, #20
 80025e8:	051b      	lsls	r3, r3, #20
 80025ea:	b12b      	cbz	r3, 80025f8 <_dtoa_r+0x7f0>
 80025ec:	9b09      	ldr	r3, [sp, #36]	@ 0x24
 80025ee:	3301      	adds	r3, #1
 80025f0:	9309      	str	r3, [sp, #36]	@ 0x24
 80025f2:	f108 0801 	add.w	r8, r8, #1
 80025f6:	2301      	movs	r3, #1
 80025f8:	930a      	str	r3, [sp, #40]	@ 0x28
 80025fa:	9b0e      	ldr	r3, [sp, #56]	@ 0x38
 80025fc:	2b00      	cmp	r3, #0
 80025fe:	f000 81aa 	beq.w	8002956 <_dtoa_r+0xb4e>
 8002602:	6923      	ldr	r3, [r4, #16]
 8002604:	eb04 0383 	add.w	r3, r4, r3, lsl #2
 8002608:	6918      	ldr	r0, [r3, #16]
 800260a:	f000 fb5f 	bl	8002ccc <__hi0bits>
 800260e:	f1c0 0020 	rsb	r0, r0, #32
 8002612:	9b09      	ldr	r3, [sp, #36]	@ 0x24
 8002614:	4418      	add	r0, r3
 8002616:	f010 001f 	ands.w	r0, r0, #31
 800261a:	d071      	beq.n	8002700 <_dtoa_r+0x8f8>
 800261c:	f1c0 0320 	rsb	r3, r0, #32
 8002620:	2b04      	cmp	r3, #4
 8002622:	dd65      	ble.n	80026f0 <_dtoa_r+0x8e8>
 8002624:	9b09      	ldr	r3, [sp, #36]	@ 0x24
 8002626:	f1c0 001c 	rsb	r0, r0, #28
 800262a:	4403      	add	r3, r0
 800262c:	4480      	add	r8, r0
 800262e:	4406      	add	r6, r0
 8002630:	9309      	str	r3, [sp, #36]	@ 0x24
 8002632:	f1b8 0f00 	cmp.w	r8, #0
 8002636:	dd05      	ble.n	8002644 <_dtoa_r+0x83c>
 8002638:	4649      	mov	r1, r9
 800263a:	4642      	mov	r2, r8
 800263c:	4658      	mov	r0, fp
 800263e:	f000 fcab 	bl	8002f98 <__lshift>
 8002642:	4681      	mov	r9, r0
 8002644:	9b09      	ldr	r3, [sp, #36]	@ 0x24
 8002646:	2b00      	cmp	r3, #0
 8002648:	dd05      	ble.n	8002656 <_dtoa_r+0x84e>
 800264a:	4621      	mov	r1, r4
 800264c:	461a      	mov	r2, r3
 800264e:	4658      	mov	r0, fp
 8002650:	f000 fca2 	bl	8002f98 <__lshift>
 8002654:	4604      	mov	r4, r0
 8002656:	9b0f      	ldr	r3, [sp, #60]	@ 0x3c
 8002658:	2b00      	cmp	r3, #0
 800265a:	d053      	beq.n	8002704 <_dtoa_r+0x8fc>
 800265c:	4621      	mov	r1, r4
 800265e:	4648      	mov	r0, r9
 8002660:	f000 fd06 	bl	8003070 <__mcmp>
 8002664:	2800      	cmp	r0, #0
 8002666:	da4d      	bge.n	8002704 <_dtoa_r+0x8fc>
 8002668:	1e7b      	subs	r3, r7, #1
 800266a:	9304      	str	r3, [sp, #16]
 800266c:	4649      	mov	r1, r9
 800266e:	2300      	movs	r3, #0
 8002670:	220a      	movs	r2, #10
 8002672:	4658      	mov	r0, fp
 8002674:	f000 fae4 	bl	8002c40 <__multadd>
 8002678:	9b0b      	ldr	r3, [sp, #44]	@ 0x2c
 800267a:	4681      	mov	r9, r0
 800267c:	2b00      	cmp	r3, #0
 800267e:	f000 816c 	beq.w	800295a <_dtoa_r+0xb52>
 8002682:	2300      	movs	r3, #0
 8002684:	4629      	mov	r1, r5
 8002686:	220a      	movs	r2, #10
 8002688:	4658      	mov	r0, fp
 800268a:	f000 fad9 	bl	8002c40 <__multadd>
 800268e:	9b08      	ldr	r3, [sp, #32]
 8002690:	2b00      	cmp	r3, #0
 8002692:	4605      	mov	r5, r0
 8002694:	dc61      	bgt.n	800275a <_dtoa_r+0x952>
 8002696:	9b20      	ldr	r3, [sp, #128]	@ 0x80
 8002698:	2b02      	cmp	r3, #2
 800269a:	dc3b      	bgt.n	8002714 <_dtoa_r+0x90c>
 800269c:	e05d      	b.n	800275a <_dtoa_r+0x952>
 800269e:	9b14      	ldr	r3, [sp, #80]	@ 0x50
 80026a0:	f1c3 0336 	rsb	r3, r3, #54	@ 0x36
 80026a4:	e746      	b.n	8002534 <_dtoa_r+0x72c>
 80026a6:	9b07      	ldr	r3, [sp, #28]
 80026a8:	1e5c      	subs	r4, r3, #1
 80026aa:	9b0a      	ldr	r3, [sp, #40]	@ 0x28
 80026ac:	42a3      	cmp	r3, r4
 80026ae:	bfbf      	itttt	lt
 80026b0:	9b0a      	ldrlt	r3, [sp, #40]	@ 0x28
 80026b2:	9a0e      	ldrlt	r2, [sp, #56]	@ 0x38
 80026b4:	940a      	strlt	r4, [sp, #40]	@ 0x28
 80026b6:	1ae3      	sublt	r3, r4, r3
 80026b8:	bfb4      	ite	lt
 80026ba:	18d2      	addlt	r2, r2, r3
 80026bc:	1b1c      	subge	r4, r3, r4
 80026be:	9b07      	ldr	r3, [sp, #28]
 80026c0:	bfbc      	itt	lt
 80026c2:	920e      	strlt	r2, [sp, #56]	@ 0x38
 80026c4:	2400      	movlt	r4, #0
 80026c6:	2b00      	cmp	r3, #0
 80026c8:	bfb5      	itete	lt
 80026ca:	eba8 0603 	sublt.w	r6, r8, r3
 80026ce:	9b07      	ldrge	r3, [sp, #28]
 80026d0:	2300      	movlt	r3, #0
 80026d2:	4646      	movge	r6, r8
 80026d4:	e730      	b.n	8002538 <_dtoa_r+0x730>
 80026d6:	9c0a      	ldr	r4, [sp, #40]	@ 0x28
 80026d8:	9d0b      	ldr	r5, [sp, #44]	@ 0x2c
 80026da:	4646      	mov	r6, r8
 80026dc:	e735      	b.n	800254a <_dtoa_r+0x742>
 80026de:	9a0a      	ldr	r2, [sp, #40]	@ 0x28
 80026e0:	e75c      	b.n	800259c <_dtoa_r+0x794>
 80026e2:	2300      	movs	r3, #0
 80026e4:	e788      	b.n	80025f8 <_dtoa_r+0x7f0>
 80026e6:	9b02      	ldr	r3, [sp, #8]
 80026e8:	e786      	b.n	80025f8 <_dtoa_r+0x7f0>
 80026ea:	2300      	movs	r3, #0
 80026ec:	930a      	str	r3, [sp, #40]	@ 0x28
 80026ee:	e788      	b.n	8002602 <_dtoa_r+0x7fa>
 80026f0:	d09f      	beq.n	8002632 <_dtoa_r+0x82a>
 80026f2:	9a09      	ldr	r2, [sp, #36]	@ 0x24
 80026f4:	331c      	adds	r3, #28
 80026f6:	441a      	add	r2, r3
 80026f8:	4498      	add	r8, r3
 80026fa:	441e      	add	r6, r3
 80026fc:	9209      	str	r2, [sp, #36]	@ 0x24
 80026fe:	e798      	b.n	8002632 <_dtoa_r+0x82a>
 8002700:	4603      	mov	r3, r0
 8002702:	e7f6      	b.n	80026f2 <_dtoa_r+0x8ea>
 8002704:	9b07      	ldr	r3, [sp, #28]
 8002706:	9704      	str	r7, [sp, #16]
 8002708:	2b00      	cmp	r3, #0
 800270a:	dc20      	bgt.n	800274e <_dtoa_r+0x946>
 800270c:	9308      	str	r3, [sp, #32]
 800270e:	9b20      	ldr	r3, [sp, #128]	@ 0x80
 8002710:	2b02      	cmp	r3, #2
 8002712:	dd1e      	ble.n	8002752 <_dtoa_r+0x94a>
 8002714:	9b08      	ldr	r3, [sp, #32]
 8002716:	2b00      	cmp	r3, #0
 8002718:	f47f aebc 	bne.w	8002494 <_dtoa_r+0x68c>
 800271c:	4621      	mov	r1, r4
 800271e:	2205      	movs	r2, #5
 8002720:	4658      	mov	r0, fp
 8002722:	f000 fa8d 	bl	8002c40 <__multadd>
 8002726:	4601      	mov	r1, r0
 8002728:	4604      	mov	r4, r0
 800272a:	4648      	mov	r0, r9
 800272c:	f000 fca0 	bl	8003070 <__mcmp>
 8002730:	2800      	cmp	r0, #0
 8002732:	f77f aeaf 	ble.w	8002494 <_dtoa_r+0x68c>
 8002736:	4656      	mov	r6, sl
 8002738:	2331      	movs	r3, #49	@ 0x31
 800273a:	f806 3b01 	strb.w	r3, [r6], #1
 800273e:	9b04      	ldr	r3, [sp, #16]
 8002740:	3301      	adds	r3, #1
 8002742:	9304      	str	r3, [sp, #16]
 8002744:	e6aa      	b.n	800249c <_dtoa_r+0x694>
 8002746:	9c07      	ldr	r4, [sp, #28]
 8002748:	9704      	str	r7, [sp, #16]
 800274a:	4625      	mov	r5, r4
 800274c:	e7f3      	b.n	8002736 <_dtoa_r+0x92e>
 800274e:	9b07      	ldr	r3, [sp, #28]
 8002750:	9308      	str	r3, [sp, #32]
 8002752:	9b0b      	ldr	r3, [sp, #44]	@ 0x2c
 8002754:	2b00      	cmp	r3, #0
 8002756:	f000 8104 	beq.w	8002962 <_dtoa_r+0xb5a>
 800275a:	2e00      	cmp	r6, #0
 800275c:	dd05      	ble.n	800276a <_dtoa_r+0x962>
 800275e:	4629      	mov	r1, r5
 8002760:	4632      	mov	r2, r6
 8002762:	4658      	mov	r0, fp
 8002764:	f000 fc18 	bl	8002f98 <__lshift>
 8002768:	4605      	mov	r5, r0
 800276a:	9b0a      	ldr	r3, [sp, #40]	@ 0x28
 800276c:	2b00      	cmp	r3, #0
 800276e:	d05a      	beq.n	8002826 <_dtoa_r+0xa1e>
 8002770:	6869      	ldr	r1, [r5, #4]
 8002772:	4658      	mov	r0, fp
 8002774:	f000 fa02 	bl	8002b7c <_Balloc>
 8002778:	4606      	mov	r6, r0
 800277a:	b928      	cbnz	r0, 8002788 <_dtoa_r+0x980>
 800277c:	4b84      	ldr	r3, [pc, #528]	@ (8002990 <_dtoa_r+0xb88>)
 800277e:	4602      	mov	r2, r0
 8002780:	f240 21ef 	movw	r1, #751	@ 0x2ef
 8002784:	f7ff bb54 	b.w	8001e30 <_dtoa_r+0x28>
 8002788:	692a      	ldr	r2, [r5, #16]
 800278a:	3202      	adds	r2, #2
 800278c:	0092      	lsls	r2, r2, #2
 800278e:	f105 010c 	add.w	r1, r5, #12
 8002792:	300c      	adds	r0, #12
 8002794:	f000 fdfc 	bl	8003390 <memcpy>
 8002798:	2201      	movs	r2, #1
 800279a:	4631      	mov	r1, r6
 800279c:	4658      	mov	r0, fp
 800279e:	f000 fbfb 	bl	8002f98 <__lshift>
 80027a2:	f10a 0301 	add.w	r3, sl, #1
 80027a6:	9307      	str	r3, [sp, #28]
 80027a8:	9b08      	ldr	r3, [sp, #32]
 80027aa:	4453      	add	r3, sl
 80027ac:	930b      	str	r3, [sp, #44]	@ 0x2c
 80027ae:	9b02      	ldr	r3, [sp, #8]
 80027b0:	f003 0301 	and.w	r3, r3, #1
 80027b4:	462f      	mov	r7, r5
 80027b6:	930a      	str	r3, [sp, #40]	@ 0x28
 80027b8:	4605      	mov	r5, r0
 80027ba:	9b07      	ldr	r3, [sp, #28]
 80027bc:	4621      	mov	r1, r4
 80027be:	3b01      	subs	r3, #1
 80027c0:	4648      	mov	r0, r9
 80027c2:	9302      	str	r3, [sp, #8]
 80027c4:	f7ff fa95 	bl	8001cf2 <quorem>
 80027c8:	4639      	mov	r1, r7
 80027ca:	9008      	str	r0, [sp, #32]
 80027cc:	f100 0830 	add.w	r8, r0, #48	@ 0x30
 80027d0:	4648      	mov	r0, r9
 80027d2:	f000 fc4d 	bl	8003070 <__mcmp>
 80027d6:	462a      	mov	r2, r5
 80027d8:	9009      	str	r0, [sp, #36]	@ 0x24
 80027da:	4621      	mov	r1, r4
 80027dc:	4658      	mov	r0, fp
 80027de:	f000 fc63 	bl	80030a8 <__mdiff>
 80027e2:	68c2      	ldr	r2, [r0, #12]
 80027e4:	4606      	mov	r6, r0
 80027e6:	bb02      	cbnz	r2, 800282a <_dtoa_r+0xa22>
 80027e8:	4601      	mov	r1, r0
 80027ea:	4648      	mov	r0, r9
 80027ec:	f000 fc40 	bl	8003070 <__mcmp>
 80027f0:	4602      	mov	r2, r0
 80027f2:	4631      	mov	r1, r6
 80027f4:	4658      	mov	r0, fp
 80027f6:	920c      	str	r2, [sp, #48]	@ 0x30
 80027f8:	f000 fa00 	bl	8002bfc <_Bfree>
 80027fc:	9b20      	ldr	r3, [sp, #128]	@ 0x80
 80027fe:	9a0c      	ldr	r2, [sp, #48]	@ 0x30
 8002800:	9e07      	ldr	r6, [sp, #28]
 8002802:	ea43 0102 	orr.w	r1, r3, r2
 8002806:	9b0a      	ldr	r3, [sp, #40]	@ 0x28
 8002808:	4319      	orrs	r1, r3
 800280a:	d110      	bne.n	800282e <_dtoa_r+0xa26>
 800280c:	f1b8 0f39 	cmp.w	r8, #57	@ 0x39
 8002810:	d029      	beq.n	8002866 <_dtoa_r+0xa5e>
 8002812:	9b09      	ldr	r3, [sp, #36]	@ 0x24
 8002814:	2b00      	cmp	r3, #0
 8002816:	dd02      	ble.n	800281e <_dtoa_r+0xa16>
 8002818:	9b08      	ldr	r3, [sp, #32]
 800281a:	f103 0831 	add.w	r8, r3, #49	@ 0x31
 800281e:	9b02      	ldr	r3, [sp, #8]
 8002820:	f883 8000 	strb.w	r8, [r3]
 8002824:	e63b      	b.n	800249e <_dtoa_r+0x696>
 8002826:	4628      	mov	r0, r5
 8002828:	e7bb      	b.n	80027a2 <_dtoa_r+0x99a>
 800282a:	2201      	movs	r2, #1
 800282c:	e7e1      	b.n	80027f2 <_dtoa_r+0x9ea>
 800282e:	9b09      	ldr	r3, [sp, #36]	@ 0x24
 8002830:	2b00      	cmp	r3, #0
 8002832:	db04      	blt.n	800283e <_dtoa_r+0xa36>
 8002834:	9920      	ldr	r1, [sp, #128]	@ 0x80
 8002836:	430b      	orrs	r3, r1
 8002838:	990a      	ldr	r1, [sp, #40]	@ 0x28
 800283a:	430b      	orrs	r3, r1
 800283c:	d120      	bne.n	8002880 <_dtoa_r+0xa78>
 800283e:	2a00      	cmp	r2, #0
 8002840:	dded      	ble.n	800281e <_dtoa_r+0xa16>
 8002842:	4649      	mov	r1, r9
 8002844:	2201      	movs	r2, #1
 8002846:	4658      	mov	r0, fp
 8002848:	f000 fba6 	bl	8002f98 <__lshift>
 800284c:	4621      	mov	r1, r4
 800284e:	4681      	mov	r9, r0
 8002850:	f000 fc0e 	bl	8003070 <__mcmp>
 8002854:	2800      	cmp	r0, #0
 8002856:	dc03      	bgt.n	8002860 <_dtoa_r+0xa58>
 8002858:	d1e1      	bne.n	800281e <_dtoa_r+0xa16>
 800285a:	f018 0f01 	tst.w	r8, #1
 800285e:	d0de      	beq.n	800281e <_dtoa_r+0xa16>
 8002860:	f1b8 0f39 	cmp.w	r8, #57	@ 0x39
 8002864:	d1d8      	bne.n	8002818 <_dtoa_r+0xa10>
 8002866:	9a02      	ldr	r2, [sp, #8]
 8002868:	2339      	movs	r3, #57	@ 0x39
 800286a:	7013      	strb	r3, [r2, #0]
 800286c:	4633      	mov	r3, r6
 800286e:	461e      	mov	r6, r3
 8002870:	3b01      	subs	r3, #1
 8002872:	f816 2c01 	ldrb.w	r2, [r6, #-1]
 8002876:	2a39      	cmp	r2, #57	@ 0x39
 8002878:	d052      	beq.n	8002920 <_dtoa_r+0xb18>
 800287a:	3201      	adds	r2, #1
 800287c:	701a      	strb	r2, [r3, #0]
 800287e:	e60e      	b.n	800249e <_dtoa_r+0x696>
 8002880:	2a00      	cmp	r2, #0
 8002882:	dd07      	ble.n	8002894 <_dtoa_r+0xa8c>
 8002884:	f1b8 0f39 	cmp.w	r8, #57	@ 0x39
 8002888:	d0ed      	beq.n	8002866 <_dtoa_r+0xa5e>
 800288a:	9a02      	ldr	r2, [sp, #8]
 800288c:	f108 0301 	add.w	r3, r8, #1
 8002890:	7013      	strb	r3, [r2, #0]
 8002892:	e604      	b.n	800249e <_dtoa_r+0x696>
 8002894:	9b07      	ldr	r3, [sp, #28]
 8002896:	9a07      	ldr	r2, [sp, #28]
 8002898:	f803 8c01 	strb.w	r8, [r3, #-1]
 800289c:	9b0b      	ldr	r3, [sp, #44]	@ 0x2c
 800289e:	4293      	cmp	r3, r2
 80028a0:	d028      	beq.n	80028f4 <_dtoa_r+0xaec>
 80028a2:	4649      	mov	r1, r9
 80028a4:	2300      	movs	r3, #0
 80028a6:	220a      	movs	r2, #10
 80028a8:	4658      	mov	r0, fp
 80028aa:	f000 f9c9 	bl	8002c40 <__multadd>
 80028ae:	42af      	cmp	r7, r5
 80028b0:	4681      	mov	r9, r0
 80028b2:	f04f 0300 	mov.w	r3, #0
 80028b6:	f04f 020a 	mov.w	r2, #10
 80028ba:	4639      	mov	r1, r7
 80028bc:	4658      	mov	r0, fp
 80028be:	d107      	bne.n	80028d0 <_dtoa_r+0xac8>
 80028c0:	f000 f9be 	bl	8002c40 <__multadd>
 80028c4:	4607      	mov	r7, r0
 80028c6:	4605      	mov	r5, r0
 80028c8:	9b07      	ldr	r3, [sp, #28]
 80028ca:	3301      	adds	r3, #1
 80028cc:	9307      	str	r3, [sp, #28]
 80028ce:	e774      	b.n	80027ba <_dtoa_r+0x9b2>
 80028d0:	f000 f9b6 	bl	8002c40 <__multadd>
 80028d4:	4629      	mov	r1, r5
 80028d6:	4607      	mov	r7, r0
 80028d8:	2300      	movs	r3, #0
 80028da:	220a      	movs	r2, #10
 80028dc:	4658      	mov	r0, fp
 80028de:	f000 f9af 	bl	8002c40 <__multadd>
 80028e2:	4605      	mov	r5, r0
 80028e4:	e7f0      	b.n	80028c8 <_dtoa_r+0xac0>
 80028e6:	9b08      	ldr	r3, [sp, #32]
 80028e8:	2b00      	cmp	r3, #0
 80028ea:	bfcc      	ite	gt
 80028ec:	461e      	movgt	r6, r3
 80028ee:	2601      	movle	r6, #1
 80028f0:	4456      	add	r6, sl
 80028f2:	2700      	movs	r7, #0
 80028f4:	4649      	mov	r1, r9
 80028f6:	2201      	movs	r2, #1
 80028f8:	4658      	mov	r0, fp
 80028fa:	f000 fb4d 	bl	8002f98 <__lshift>
 80028fe:	4621      	mov	r1, r4
 8002900:	4681      	mov	r9, r0
 8002902:	f000 fbb5 	bl	8003070 <__mcmp>
 8002906:	2800      	cmp	r0, #0
 8002908:	dcb0      	bgt.n	800286c <_dtoa_r+0xa64>
 800290a:	d102      	bne.n	8002912 <_dtoa_r+0xb0a>
 800290c:	f018 0f01 	tst.w	r8, #1
 8002910:	d1ac      	bne.n	800286c <_dtoa_r+0xa64>
 8002912:	4633      	mov	r3, r6
 8002914:	461e      	mov	r6, r3
 8002916:	f813 2d01 	ldrb.w	r2, [r3, #-1]!
 800291a:	2a30      	cmp	r2, #48	@ 0x30
 800291c:	d0fa      	beq.n	8002914 <_dtoa_r+0xb0c>
 800291e:	e5be      	b.n	800249e <_dtoa_r+0x696>
 8002920:	459a      	cmp	sl, r3
 8002922:	d1a4      	bne.n	800286e <_dtoa_r+0xa66>
 8002924:	9b04      	ldr	r3, [sp, #16]
 8002926:	3301      	adds	r3, #1
 8002928:	9304      	str	r3, [sp, #16]
 800292a:	2331      	movs	r3, #49	@ 0x31
 800292c:	f88a 3000 	strb.w	r3, [sl]
 8002930:	e5b5      	b.n	800249e <_dtoa_r+0x696>
 8002932:	9b24      	ldr	r3, [sp, #144]	@ 0x90
 8002934:	f8df a05c 	ldr.w	sl, [pc, #92]	@ 8002994 <_dtoa_r+0xb8c>
 8002938:	b11b      	cbz	r3, 8002942 <_dtoa_r+0xb3a>
 800293a:	f10a 0308 	add.w	r3, sl, #8
 800293e:	9a24      	ldr	r2, [sp, #144]	@ 0x90
 8002940:	6013      	str	r3, [r2, #0]
 8002942:	4650      	mov	r0, sl
 8002944:	b017      	add	sp, #92	@ 0x5c
 8002946:	e8bd 8ff0 	ldmia.w	sp!, {r4, r5, r6, r7, r8, r9, sl, fp, pc}
 800294a:	9b20      	ldr	r3, [sp, #128]	@ 0x80
 800294c:	2b01      	cmp	r3, #1
 800294e:	f77f ae3d 	ble.w	80025cc <_dtoa_r+0x7c4>
 8002952:	9b0e      	ldr	r3, [sp, #56]	@ 0x38
 8002954:	930a      	str	r3, [sp, #40]	@ 0x28
 8002956:	2001      	movs	r0, #1
 8002958:	e65b      	b.n	8002612 <_dtoa_r+0x80a>
 800295a:	9b08      	ldr	r3, [sp, #32]
 800295c:	2b00      	cmp	r3, #0
 800295e:	f77f aed6 	ble.w	800270e <_dtoa_r+0x906>
 8002962:	4656      	mov	r6, sl
 8002964:	4621      	mov	r1, r4
 8002966:	4648      	mov	r0, r9
 8002968:	f7ff f9c3 	bl	8001cf2 <quorem>
 800296c:	f100 0830 	add.w	r8, r0, #48	@ 0x30
 8002970:	f806 8b01 	strb.w	r8, [r6], #1
 8002974:	9b08      	ldr	r3, [sp, #32]
 8002976:	eba6 020a 	sub.w	r2, r6, sl
 800297a:	4293      	cmp	r3, r2
 800297c:	ddb3      	ble.n	80028e6 <_dtoa_r+0xade>
 800297e:	4649      	mov	r1, r9
 8002980:	2300      	movs	r3, #0
 8002982:	220a      	movs	r2, #10
 8002984:	4658      	mov	r0, fp
 8002986:	f000 f95b 	bl	8002c40 <__multadd>
 800298a:	4681      	mov	r9, r0
 800298c:	e7ea      	b.n	8002964 <_dtoa_r+0xb5c>
 800298e:	bf00      	nop
 8002990:	08003b12 	.word	0x08003b12
 8002994:	08003a96 	.word	0x08003a96

08002998 <_free_r>:
 8002998:	b538      	push	{r3, r4, r5, lr}
 800299a:	4605      	mov	r5, r0
 800299c:	2900      	cmp	r1, #0
 800299e:	d041      	beq.n	8002a24 <_free_r+0x8c>
 80029a0:	f851 3c04 	ldr.w	r3, [r1, #-4]
 80029a4:	1f0c      	subs	r4, r1, #4
 80029a6:	2b00      	cmp	r3, #0
 80029a8:	bfb8      	it	lt
 80029aa:	18e4      	addlt	r4, r4, r3
 80029ac:	f7ff f88a 	bl	8001ac4 <__malloc_lock>
 80029b0:	4a1d      	ldr	r2, [pc, #116]	@ (8002a28 <_free_r+0x90>)
 80029b2:	6813      	ldr	r3, [r2, #0]
 80029b4:	b933      	cbnz	r3, 80029c4 <_free_r+0x2c>
 80029b6:	6063      	str	r3, [r4, #4]
 80029b8:	6014      	str	r4, [r2, #0]
 80029ba:	4628      	mov	r0, r5
 80029bc:	e8bd 4038 	ldmia.w	sp!, {r3, r4, r5, lr}
 80029c0:	f7ff b886 	b.w	8001ad0 <__malloc_unlock>
 80029c4:	42a3      	cmp	r3, r4
 80029c6:	d908      	bls.n	80029da <_free_r+0x42>
 80029c8:	6820      	ldr	r0, [r4, #0]
 80029ca:	1821      	adds	r1, r4, r0
 80029cc:	428b      	cmp	r3, r1
 80029ce:	bf01      	itttt	eq
 80029d0:	6819      	ldreq	r1, [r3, #0]
 80029d2:	685b      	ldreq	r3, [r3, #4]
 80029d4:	1809      	addeq	r1, r1, r0
 80029d6:	6021      	streq	r1, [r4, #0]
 80029d8:	e7ed      	b.n	80029b6 <_free_r+0x1e>
 80029da:	461a      	mov	r2, r3
 80029dc:	685b      	ldr	r3, [r3, #4]
 80029de:	b10b      	cbz	r3, 80029e4 <_free_r+0x4c>
 80029e0:	42a3      	cmp	r3, r4
 80029e2:	d9fa      	bls.n	80029da <_free_r+0x42>
 80029e4:	6811      	ldr	r1, [r2, #0]
 80029e6:	1850      	adds	r0, r2, r1
 80029e8:	42a0      	cmp	r0, r4
 80029ea:	d10b      	bne.n	8002a04 <_free_r+0x6c>
 80029ec:	6820      	ldr	r0, [r4, #0]
 80029ee:	4401      	add	r1, r0
 80029f0:	1850      	adds	r0, r2, r1
 80029f2:	4283      	cmp	r3, r0
 80029f4:	6011      	str	r1, [r2, #0]
 80029f6:	d1e0      	bne.n	80029ba <_free_r+0x22>
 80029f8:	6818      	ldr	r0, [r3, #0]
 80029fa:	685b      	ldr	r3, [r3, #4]
 80029fc:	6053      	str	r3, [r2, #4]
 80029fe:	4408      	add	r0, r1
 8002a00:	6010      	str	r0, [r2, #0]
 8002a02:	e7da      	b.n	80029ba <_free_r+0x22>
 8002a04:	d902      	bls.n	8002a0c <_free_r+0x74>
 8002a06:	230c      	movs	r3, #12
 8002a08:	602b      	str	r3, [r5, #0]
 8002a0a:	e7d6      	b.n	80029ba <_free_r+0x22>
 8002a0c:	6820      	ldr	r0, [r4, #0]
 8002a0e:	1821      	adds	r1, r4, r0
 8002a10:	428b      	cmp	r3, r1
 8002a12:	bf04      	itt	eq
 8002a14:	6819      	ldreq	r1, [r3, #0]
 8002a16:	685b      	ldreq	r3, [r3, #4]
 8002a18:	6063      	str	r3, [r4, #4]
 8002a1a:	bf04      	itt	eq
 8002a1c:	1809      	addeq	r1, r1, r0
 8002a1e:	6021      	streq	r1, [r4, #0]
 8002a20:	6054      	str	r4, [r2, #4]
 8002a22:	e7ca      	b.n	80029ba <_free_r+0x22>
 8002a24:	bd38      	pop	{r3, r4, r5, pc}
 8002a26:	bf00      	nop
 8002a28:	20000280 	.word	0x20000280

08002a2c <__sflush_r>:
 8002a2c:	f9b1 200c 	ldrsh.w	r2, [r1, #12]
 8002a30:	b5f8      	push	{r3, r4, r5, r6, r7, lr}
 8002a32:	0716      	lsls	r6, r2, #28
 8002a34:	4605      	mov	r5, r0
 8002a36:	460c      	mov	r4, r1
 8002a38:	d454      	bmi.n	8002ae4 <__sflush_r+0xb8>
 8002a3a:	684b      	ldr	r3, [r1, #4]
 8002a3c:	2b00      	cmp	r3, #0
 8002a3e:	dc02      	bgt.n	8002a46 <__sflush_r+0x1a>
 8002a40:	6c0b      	ldr	r3, [r1, #64]	@ 0x40
 8002a42:	2b00      	cmp	r3, #0
 8002a44:	dd48      	ble.n	8002ad8 <__sflush_r+0xac>
 8002a46:	6ae6      	ldr	r6, [r4, #44]	@ 0x2c
 8002a48:	2e00      	cmp	r6, #0
 8002a4a:	d045      	beq.n	8002ad8 <__sflush_r+0xac>
 8002a4c:	2300      	movs	r3, #0
 8002a4e:	f412 5280 	ands.w	r2, r2, #4096	@ 0x1000
 8002a52:	682f      	ldr	r7, [r5, #0]
 8002a54:	6a21      	ldr	r1, [r4, #32]
 8002a56:	602b      	str	r3, [r5, #0]
 8002a58:	d030      	beq.n	8002abc <__sflush_r+0x90>
 8002a5a:	6d62      	ldr	r2, [r4, #84]	@ 0x54
 8002a5c:	89a3      	ldrh	r3, [r4, #12]
 8002a5e:	0759      	lsls	r1, r3, #29
 8002a60:	d505      	bpl.n	8002a6e <__sflush_r+0x42>
 8002a62:	6863      	ldr	r3, [r4, #4]
 8002a64:	1ad2      	subs	r2, r2, r3
 8002a66:	6b63      	ldr	r3, [r4, #52]	@ 0x34
 8002a68:	b10b      	cbz	r3, 8002a6e <__sflush_r+0x42>
 8002a6a:	6c23      	ldr	r3, [r4, #64]	@ 0x40
 8002a6c:	1ad2      	subs	r2, r2, r3
 8002a6e:	2300      	movs	r3, #0
 8002a70:	6ae6      	ldr	r6, [r4, #44]	@ 0x2c
 8002a72:	6a21      	ldr	r1, [r4, #32]
 8002a74:	4628      	mov	r0, r5
 8002a76:	47b0      	blx	r6
 8002a78:	1c43      	adds	r3, r0, #1
 8002a7a:	89a3      	ldrh	r3, [r4, #12]
 8002a7c:	d106      	bne.n	8002a8c <__sflush_r+0x60>
 8002a7e:	6829      	ldr	r1, [r5, #0]
 8002a80:	291d      	cmp	r1, #29
 8002a82:	d82b      	bhi.n	8002adc <__sflush_r+0xb0>
 8002a84:	4a28      	ldr	r2, [pc, #160]	@ (8002b28 <__sflush_r+0xfc>)
 8002a86:	410a      	asrs	r2, r1
 8002a88:	07d6      	lsls	r6, r2, #31
 8002a8a:	d427      	bmi.n	8002adc <__sflush_r+0xb0>
 8002a8c:	2200      	movs	r2, #0
 8002a8e:	6062      	str	r2, [r4, #4]
 8002a90:	04d9      	lsls	r1, r3, #19
 8002a92:	6922      	ldr	r2, [r4, #16]
 8002a94:	6022      	str	r2, [r4, #0]
 8002a96:	d504      	bpl.n	8002aa2 <__sflush_r+0x76>
 8002a98:	1c42      	adds	r2, r0, #1
 8002a9a:	d101      	bne.n	8002aa0 <__sflush_r+0x74>
 8002a9c:	682b      	ldr	r3, [r5, #0]
 8002a9e:	b903      	cbnz	r3, 8002aa2 <__sflush_r+0x76>
 8002aa0:	6560      	str	r0, [r4, #84]	@ 0x54
 8002aa2:	6b61      	ldr	r1, [r4, #52]	@ 0x34
 8002aa4:	602f      	str	r7, [r5, #0]
 8002aa6:	b1b9      	cbz	r1, 8002ad8 <__sflush_r+0xac>
 8002aa8:	f104 0344 	add.w	r3, r4, #68	@ 0x44
 8002aac:	4299      	cmp	r1, r3
 8002aae:	d002      	beq.n	8002ab6 <__sflush_r+0x8a>
 8002ab0:	4628      	mov	r0, r5
 8002ab2:	f7ff ff71 	bl	8002998 <_free_r>
 8002ab6:	2300      	movs	r3, #0
 8002ab8:	6363      	str	r3, [r4, #52]	@ 0x34
 8002aba:	e00d      	b.n	8002ad8 <__sflush_r+0xac>
 8002abc:	2301      	movs	r3, #1
 8002abe:	4628      	mov	r0, r5
 8002ac0:	47b0      	blx	r6
 8002ac2:	4602      	mov	r2, r0
 8002ac4:	1c50      	adds	r0, r2, #1
 8002ac6:	d1c9      	bne.n	8002a5c <__sflush_r+0x30>
 8002ac8:	682b      	ldr	r3, [r5, #0]
 8002aca:	2b00      	cmp	r3, #0
 8002acc:	d0c6      	beq.n	8002a5c <__sflush_r+0x30>
 8002ace:	2b1d      	cmp	r3, #29
 8002ad0:	d001      	beq.n	8002ad6 <__sflush_r+0xaa>
 8002ad2:	2b16      	cmp	r3, #22
 8002ad4:	d11d      	bne.n	8002b12 <__sflush_r+0xe6>
 8002ad6:	602f      	str	r7, [r5, #0]
 8002ad8:	2000      	movs	r0, #0
 8002ada:	e021      	b.n	8002b20 <__sflush_r+0xf4>
 8002adc:	f043 0340 	orr.w	r3, r3, #64	@ 0x40
 8002ae0:	b21b      	sxth	r3, r3
 8002ae2:	e01a      	b.n	8002b1a <__sflush_r+0xee>
 8002ae4:	690f      	ldr	r7, [r1, #16]
 8002ae6:	2f00      	cmp	r7, #0
 8002ae8:	d0f6      	beq.n	8002ad8 <__sflush_r+0xac>
 8002aea:	0793      	lsls	r3, r2, #30
 8002aec:	680e      	ldr	r6, [r1, #0]
 8002aee:	bf08      	it	eq
 8002af0:	694b      	ldreq	r3, [r1, #20]
 8002af2:	600f      	str	r7, [r1, #0]
 8002af4:	bf18      	it	ne
 8002af6:	2300      	movne	r3, #0
 8002af8:	1bf6      	subs	r6, r6, r7
 8002afa:	608b      	str	r3, [r1, #8]
 8002afc:	2e00      	cmp	r6, #0
 8002afe:	ddeb      	ble.n	8002ad8 <__sflush_r+0xac>
 8002b00:	6a21      	ldr	r1, [r4, #32]
 8002b02:	f8d4 c028 	ldr.w	ip, [r4, #40]	@ 0x28
 8002b06:	4633      	mov	r3, r6
 8002b08:	463a      	mov	r2, r7
 8002b0a:	4628      	mov	r0, r5
 8002b0c:	47e0      	blx	ip
 8002b0e:	2800      	cmp	r0, #0
 8002b10:	dc07      	bgt.n	8002b22 <__sflush_r+0xf6>
 8002b12:	f9b4 300c 	ldrsh.w	r3, [r4, #12]
 8002b16:	f043 0340 	orr.w	r3, r3, #64	@ 0x40
 8002b1a:	81a3      	strh	r3, [r4, #12]
 8002b1c:	f04f 30ff 	mov.w	r0, #4294967295	@ 0xffffffff
 8002b20:	bdf8      	pop	{r3, r4, r5, r6, r7, pc}
 8002b22:	4407      	add	r7, r0
 8002b24:	1a36      	subs	r6, r6, r0
 8002b26:	e7e9      	b.n	8002afc <__sflush_r+0xd0>
 8002b28:	dfbffffe 	.word	0xdfbffffe

08002b2c <_fflush_r>:
 8002b2c:	b538      	push	{r3, r4, r5, lr}
 8002b2e:	690b      	ldr	r3, [r1, #16]
 8002b30:	4605      	mov	r5, r0
 8002b32:	460c      	mov	r4, r1
 8002b34:	b913      	cbnz	r3, 8002b3c <_fflush_r+0x10>
 8002b36:	2500      	movs	r5, #0
 8002b38:	4628      	mov	r0, r5
 8002b3a:	bd38      	pop	{r3, r4, r5, pc}
 8002b3c:	b118      	cbz	r0, 8002b46 <_fflush_r+0x1a>
 8002b3e:	6a03      	ldr	r3, [r0, #32]
 8002b40:	b90b      	cbnz	r3, 8002b46 <_fflush_r+0x1a>
 8002b42:	f7ff f857 	bl	8001bf4 <__sinit>
 8002b46:	f9b4 300c 	ldrsh.w	r3, [r4, #12]
 8002b4a:	2b00      	cmp	r3, #0
 8002b4c:	d0f3      	beq.n	8002b36 <_fflush_r+0xa>
 8002b4e:	6e62      	ldr	r2, [r4, #100]	@ 0x64
 8002b50:	07d0      	lsls	r0, r2, #31
 8002b52:	d404      	bmi.n	8002b5e <_fflush_r+0x32>
 8002b54:	0599      	lsls	r1, r3, #22
 8002b56:	d402      	bmi.n	8002b5e <_fflush_r+0x32>
 8002b58:	6da0      	ldr	r0, [r4, #88]	@ 0x58
 8002b5a:	f7ff f8c8 	bl	8001cee <__retarget_lock_acquire_recursive>
 8002b5e:	4628      	mov	r0, r5
 8002b60:	4621      	mov	r1, r4
 8002b62:	f7ff ff63 	bl	8002a2c <__sflush_r>
 8002b66:	6e63      	ldr	r3, [r4, #100]	@ 0x64
 8002b68:	07da      	lsls	r2, r3, #31
 8002b6a:	4605      	mov	r5, r0
 8002b6c:	d4e4      	bmi.n	8002b38 <_fflush_r+0xc>
 8002b6e:	89a3      	ldrh	r3, [r4, #12]
 8002b70:	059b      	lsls	r3, r3, #22
 8002b72:	d4e1      	bmi.n	8002b38 <_fflush_r+0xc>
 8002b74:	6da0      	ldr	r0, [r4, #88]	@ 0x58
 8002b76:	f7ff f8bb 	bl	8001cf0 <__retarget_lock_release_recursive>
 8002b7a:	e7dd      	b.n	8002b38 <_fflush_r+0xc>

08002b7c <_Balloc>:
 8002b7c:	b570      	push	{r4, r5, r6, lr}
 8002b7e:	69c6      	ldr	r6, [r0, #28]
 8002b80:	4604      	mov	r4, r0
 8002b82:	460d      	mov	r5, r1
 8002b84:	b976      	cbnz	r6, 8002ba4 <_Balloc+0x28>
 8002b86:	2010      	movs	r0, #16
 8002b88:	f7fe fd64 	bl	8001654 <malloc>
 8002b8c:	4602      	mov	r2, r0
 8002b8e:	61e0      	str	r0, [r4, #28]
 8002b90:	b920      	cbnz	r0, 8002b9c <_Balloc+0x20>
 8002b92:	4b18      	ldr	r3, [pc, #96]	@ (8002bf4 <_Balloc+0x78>)
 8002b94:	4818      	ldr	r0, [pc, #96]	@ (8002bf8 <_Balloc+0x7c>)
 8002b96:	216b      	movs	r1, #107	@ 0x6b
 8002b98:	f000 fc08 	bl	80033ac <__assert_func>
 8002b9c:	e9c0 6601 	strd	r6, r6, [r0, #4]
 8002ba0:	6006      	str	r6, [r0, #0]
 8002ba2:	60c6      	str	r6, [r0, #12]
 8002ba4:	69e6      	ldr	r6, [r4, #28]
 8002ba6:	68f3      	ldr	r3, [r6, #12]
 8002ba8:	b183      	cbz	r3, 8002bcc <_Balloc+0x50>
 8002baa:	69e3      	ldr	r3, [r4, #28]
 8002bac:	68db      	ldr	r3, [r3, #12]
 8002bae:	f853 0025 	ldr.w	r0, [r3, r5, lsl #2]
 8002bb2:	b9b8      	cbnz	r0, 8002be4 <_Balloc+0x68>
 8002bb4:	2101      	movs	r1, #1
 8002bb6:	fa01 f605 	lsl.w	r6, r1, r5
 8002bba:	1d72      	adds	r2, r6, #5
 8002bbc:	0092      	lsls	r2, r2, #2
 8002bbe:	4620      	mov	r0, r4
 8002bc0:	f000 fc12 	bl	80033e8 <_calloc_r>
 8002bc4:	b160      	cbz	r0, 8002be0 <_Balloc+0x64>
 8002bc6:	e9c0 5601 	strd	r5, r6, [r0, #4]
 8002bca:	e00e      	b.n	8002bea <_Balloc+0x6e>
 8002bcc:	2221      	movs	r2, #33	@ 0x21
 8002bce:	2104      	movs	r1, #4
 8002bd0:	4620      	mov	r0, r4
 8002bd2:	f000 fc09 	bl	80033e8 <_calloc_r>
 8002bd6:	69e3      	ldr	r3, [r4, #28]
 8002bd8:	60f0      	str	r0, [r6, #12]
 8002bda:	68db      	ldr	r3, [r3, #12]
 8002bdc:	2b00      	cmp	r3, #0
 8002bde:	d1e4      	bne.n	8002baa <_Balloc+0x2e>
 8002be0:	2000      	movs	r0, #0
 8002be2:	bd70      	pop	{r4, r5, r6, pc}
 8002be4:	6802      	ldr	r2, [r0, #0]
 8002be6:	f843 2025 	str.w	r2, [r3, r5, lsl #2]
 8002bea:	2300      	movs	r3, #0
 8002bec:	e9c0 3303 	strd	r3, r3, [r0, #12]
 8002bf0:	e7f7      	b.n	8002be2 <_Balloc+0x66>
 8002bf2:	bf00      	nop
 8002bf4:	08003aa3 	.word	0x08003aa3
 8002bf8:	08003b23 	.word	0x08003b23

08002bfc <_Bfree>:
 8002bfc:	b570      	push	{r4, r5, r6, lr}
 8002bfe:	69c6      	ldr	r6, [r0, #28]
 8002c00:	4605      	mov	r5, r0
 8002c02:	460c      	mov	r4, r1
 8002c04:	b976      	cbnz	r6, 8002c24 <_Bfree+0x28>
 8002c06:	2010      	movs	r0, #16
 8002c08:	f7fe fd24 	bl	8001654 <malloc>
 8002c0c:	4602      	mov	r2, r0
 8002c0e:	61e8      	str	r0, [r5, #28]
 8002c10:	b920      	cbnz	r0, 8002c1c <_Bfree+0x20>
 8002c12:	4b09      	ldr	r3, [pc, #36]	@ (8002c38 <_Bfree+0x3c>)
 8002c14:	4809      	ldr	r0, [pc, #36]	@ (8002c3c <_Bfree+0x40>)
 8002c16:	218f      	movs	r1, #143	@ 0x8f
 8002c18:	f000 fbc8 	bl	80033ac <__assert_func>
 8002c1c:	e9c0 6601 	strd	r6, r6, [r0, #4]
 8002c20:	6006      	str	r6, [r0, #0]
 8002c22:	60c6      	str	r6, [r0, #12]
 8002c24:	b13c      	cbz	r4, 8002c36 <_Bfree+0x3a>
 8002c26:	69eb      	ldr	r3, [r5, #28]
 8002c28:	6862      	ldr	r2, [r4, #4]
 8002c2a:	68db      	ldr	r3, [r3, #12]
 8002c2c:	f853 1022 	ldr.w	r1, [r3, r2, lsl #2]
 8002c30:	6021      	str	r1, [r4, #0]
 8002c32:	f843 4022 	str.w	r4, [r3, r2, lsl #2]
 8002c36:	bd70      	pop	{r4, r5, r6, pc}
 8002c38:	08003aa3 	.word	0x08003aa3
 8002c3c:	08003b23 	.word	0x08003b23

08002c40 <__multadd>:
 8002c40:	e92d 41f0 	stmdb	sp!, {r4, r5, r6, r7, r8, lr}
 8002c44:	690d      	ldr	r5, [r1, #16]
 8002c46:	4607      	mov	r7, r0
 8002c48:	460c      	mov	r4, r1
 8002c4a:	461e      	mov	r6, r3
 8002c4c:	f101 0c14 	add.w	ip, r1, #20
 8002c50:	2000      	movs	r0, #0
 8002c52:	f8dc 3000 	ldr.w	r3, [ip]
 8002c56:	b299      	uxth	r1, r3
 8002c58:	fb02 6101 	mla	r1, r2, r1, r6
 8002c5c:	0c1e      	lsrs	r6, r3, #16
 8002c5e:	0c0b      	lsrs	r3, r1, #16
 8002c60:	fb02 3306 	mla	r3, r2, r6, r3
 8002c64:	b289      	uxth	r1, r1
 8002c66:	3001      	adds	r0, #1
 8002c68:	eb01 4103 	add.w	r1, r1, r3, lsl #16
 8002c6c:	4285      	cmp	r5, r0
 8002c6e:	f84c 1b04 	str.w	r1, [ip], #4
 8002c72:	ea4f 4613 	mov.w	r6, r3, lsr #16
 8002c76:	dcec      	bgt.n	8002c52 <__multadd+0x12>
 8002c78:	b30e      	cbz	r6, 8002cbe <__multadd+0x7e>
 8002c7a:	68a3      	ldr	r3, [r4, #8]
 8002c7c:	42ab      	cmp	r3, r5
 8002c7e:	dc19      	bgt.n	8002cb4 <__multadd+0x74>
 8002c80:	6861      	ldr	r1, [r4, #4]
 8002c82:	4638      	mov	r0, r7
 8002c84:	3101      	adds	r1, #1
 8002c86:	f7ff ff79 	bl	8002b7c <_Balloc>
 8002c8a:	4680      	mov	r8, r0
 8002c8c:	b928      	cbnz	r0, 8002c9a <__multadd+0x5a>
 8002c8e:	4602      	mov	r2, r0
 8002c90:	4b0c      	ldr	r3, [pc, #48]	@ (8002cc4 <__multadd+0x84>)
 8002c92:	480d      	ldr	r0, [pc, #52]	@ (8002cc8 <__multadd+0x88>)
 8002c94:	21ba      	movs	r1, #186	@ 0xba
 8002c96:	f000 fb89 	bl	80033ac <__assert_func>
 8002c9a:	6922      	ldr	r2, [r4, #16]
 8002c9c:	3202      	adds	r2, #2
 8002c9e:	f104 010c 	add.w	r1, r4, #12
 8002ca2:	0092      	lsls	r2, r2, #2
 8002ca4:	300c      	adds	r0, #12
 8002ca6:	f000 fb73 	bl	8003390 <memcpy>
 8002caa:	4621      	mov	r1, r4
 8002cac:	4638      	mov	r0, r7
 8002cae:	f7ff ffa5 	bl	8002bfc <_Bfree>
 8002cb2:	4644      	mov	r4, r8
 8002cb4:	eb04 0385 	add.w	r3, r4, r5, lsl #2
 8002cb8:	3501      	adds	r5, #1
 8002cba:	615e      	str	r6, [r3, #20]
 8002cbc:	6125      	str	r5, [r4, #16]
 8002cbe:	4620      	mov	r0, r4
 8002cc0:	e8bd 81f0 	ldmia.w	sp!, {r4, r5, r6, r7, r8, pc}
 8002cc4:	08003b12 	.word	0x08003b12
 8002cc8:	08003b23 	.word	0x08003b23

08002ccc <__hi0bits>:
 8002ccc:	f5b0 3f80 	cmp.w	r0, #65536	@ 0x10000
 8002cd0:	4603      	mov	r3, r0
 8002cd2:	bf36      	itet	cc
 8002cd4:	0403      	lslcc	r3, r0, #16
 8002cd6:	2000      	movcs	r0, #0
 8002cd8:	2010      	movcc	r0, #16
 8002cda:	f1b3 7f80 	cmp.w	r3, #16777216	@ 0x1000000
 8002cde:	bf3c      	itt	cc
 8002ce0:	021b      	lslcc	r3, r3, #8
 8002ce2:	3008      	addcc	r0, #8
 8002ce4:	f1b3 5f80 	cmp.w	r3, #268435456	@ 0x10000000
 8002ce8:	bf3c      	itt	cc
 8002cea:	011b      	lslcc	r3, r3, #4
 8002cec:	3004      	addcc	r0, #4
 8002cee:	f1b3 4f80 	cmp.w	r3, #1073741824	@ 0x40000000
 8002cf2:	bf3c      	itt	cc
 8002cf4:	009b      	lslcc	r3, r3, #2
 8002cf6:	3002      	addcc	r0, #2
 8002cf8:	2b00      	cmp	r3, #0
 8002cfa:	db05      	blt.n	8002d08 <__hi0bits+0x3c>
 8002cfc:	f013 4f80 	tst.w	r3, #1073741824	@ 0x40000000
 8002d00:	f100 0001 	add.w	r0, r0, #1
 8002d04:	bf08      	it	eq
 8002d06:	2020      	moveq	r0, #32
 8002d08:	4770      	bx	lr

08002d0a <__lo0bits>:
 8002d0a:	6803      	ldr	r3, [r0, #0]
 8002d0c:	4602      	mov	r2, r0
 8002d0e:	f013 0007 	ands.w	r0, r3, #7
 8002d12:	d00b      	beq.n	8002d2c <__lo0bits+0x22>
 8002d14:	07d9      	lsls	r1, r3, #31
 8002d16:	d421      	bmi.n	8002d5c <__lo0bits+0x52>
 8002d18:	0798      	lsls	r0, r3, #30
 8002d1a:	bf49      	itett	mi
 8002d1c:	085b      	lsrmi	r3, r3, #1
 8002d1e:	089b      	lsrpl	r3, r3, #2
 8002d20:	2001      	movmi	r0, #1
 8002d22:	6013      	strmi	r3, [r2, #0]
 8002d24:	bf5c      	itt	pl
 8002d26:	6013      	strpl	r3, [r2, #0]
 8002d28:	2002      	movpl	r0, #2
 8002d2a:	4770      	bx	lr
 8002d2c:	b299      	uxth	r1, r3
 8002d2e:	b909      	cbnz	r1, 8002d34 <__lo0bits+0x2a>
 8002d30:	0c1b      	lsrs	r3, r3, #16
 8002d32:	2010      	movs	r0, #16
 8002d34:	b2d9      	uxtb	r1, r3
 8002d36:	b909      	cbnz	r1, 8002d3c <__lo0bits+0x32>
 8002d38:	3008      	adds	r0, #8
 8002d3a:	0a1b      	lsrs	r3, r3, #8
 8002d3c:	0719      	lsls	r1, r3, #28
 8002d3e:	bf04      	itt	eq
 8002d40:	091b      	lsreq	r3, r3, #4
 8002d42:	3004      	addeq	r0, #4
 8002d44:	0799      	lsls	r1, r3, #30
 8002d46:	bf04      	itt	eq
 8002d48:	089b      	lsreq	r3, r3, #2
 8002d4a:	3002      	addeq	r0, #2
 8002d4c:	07d9      	lsls	r1, r3, #31
 8002d4e:	d403      	bmi.n	8002d58 <__lo0bits+0x4e>
 8002d50:	085b      	lsrs	r3, r3, #1
 8002d52:	f100 0001 	add.w	r0, r0, #1
 8002d56:	d003      	beq.n	8002d60 <__lo0bits+0x56>
 8002d58:	6013      	str	r3, [r2, #0]
 8002d5a:	4770      	bx	lr
 8002d5c:	2000      	movs	r0, #0
 8002d5e:	4770      	bx	lr
 8002d60:	2020      	movs	r0, #32
 8002d62:	4770      	bx	lr

08002d64 <__i2b>:
 8002d64:	b510      	push	{r4, lr}
 8002d66:	460c      	mov	r4, r1
 8002d68:	2101      	movs	r1, #1
 8002d6a:	f7ff ff07 	bl	8002b7c <_Balloc>
 8002d6e:	4602      	mov	r2, r0
 8002d70:	b928      	cbnz	r0, 8002d7e <__i2b+0x1a>
 8002d72:	4b05      	ldr	r3, [pc, #20]	@ (8002d88 <__i2b+0x24>)
 8002d74:	4805      	ldr	r0, [pc, #20]	@ (8002d8c <__i2b+0x28>)
 8002d76:	f240 1145 	movw	r1, #325	@ 0x145
 8002d7a:	f000 fb17 	bl	80033ac <__assert_func>
 8002d7e:	2301      	movs	r3, #1
 8002d80:	6144      	str	r4, [r0, #20]
 8002d82:	6103      	str	r3, [r0, #16]
 8002d84:	bd10      	pop	{r4, pc}
 8002d86:	bf00      	nop
 8002d88:	08003b12 	.word	0x08003b12
 8002d8c:	08003b23 	.word	0x08003b23

08002d90 <__multiply>:
 8002d90:	e92d 4ff0 	stmdb	sp!, {r4, r5, r6, r7, r8, r9, sl, fp, lr}
 8002d94:	4614      	mov	r4, r2
 8002d96:	690a      	ldr	r2, [r1, #16]
 8002d98:	6923      	ldr	r3, [r4, #16]
 8002d9a:	429a      	cmp	r2, r3
 8002d9c:	bfa8      	it	ge
 8002d9e:	4623      	movge	r3, r4
 8002da0:	460f      	mov	r7, r1
 8002da2:	bfa4      	itt	ge
 8002da4:	460c      	movge	r4, r1
 8002da6:	461f      	movge	r7, r3
 8002da8:	f8d4 a010 	ldr.w	sl, [r4, #16]
 8002dac:	f8d7 9010 	ldr.w	r9, [r7, #16]
 8002db0:	68a3      	ldr	r3, [r4, #8]
 8002db2:	6861      	ldr	r1, [r4, #4]
 8002db4:	eb0a 0609 	add.w	r6, sl, r9
 8002db8:	42b3      	cmp	r3, r6
 8002dba:	b085      	sub	sp, #20
 8002dbc:	bfb8      	it	lt
 8002dbe:	3101      	addlt	r1, #1
 8002dc0:	f7ff fedc 	bl	8002b7c <_Balloc>
 8002dc4:	b930      	cbnz	r0, 8002dd4 <__multiply+0x44>
 8002dc6:	4602      	mov	r2, r0
 8002dc8:	4b44      	ldr	r3, [pc, #272]	@ (8002edc <__multiply+0x14c>)
 8002dca:	4845      	ldr	r0, [pc, #276]	@ (8002ee0 <__multiply+0x150>)
 8002dcc:	f44f 71b1 	mov.w	r1, #354	@ 0x162
 8002dd0:	f000 faec 	bl	80033ac <__assert_func>
 8002dd4:	f100 0514 	add.w	r5, r0, #20
 8002dd8:	eb05 0886 	add.w	r8, r5, r6, lsl #2
 8002ddc:	462b      	mov	r3, r5
 8002dde:	2200      	movs	r2, #0
 8002de0:	4543      	cmp	r3, r8
 8002de2:	d321      	bcc.n	8002e28 <__multiply+0x98>
 8002de4:	f107 0114 	add.w	r1, r7, #20
 8002de8:	f104 0214 	add.w	r2, r4, #20
 8002dec:	eb02 028a 	add.w	r2, r2, sl, lsl #2
 8002df0:	eb01 0389 	add.w	r3, r1, r9, lsl #2
 8002df4:	9302      	str	r3, [sp, #8]
 8002df6:	1b13      	subs	r3, r2, r4
 8002df8:	3b15      	subs	r3, #21
 8002dfa:	f023 0303 	bic.w	r3, r3, #3
 8002dfe:	3304      	adds	r3, #4
 8002e00:	f104 0715 	add.w	r7, r4, #21
 8002e04:	42ba      	cmp	r2, r7
 8002e06:	bf38      	it	cc
 8002e08:	2304      	movcc	r3, #4
 8002e0a:	9301      	str	r3, [sp, #4]
 8002e0c:	9b02      	ldr	r3, [sp, #8]
 8002e0e:	9103      	str	r1, [sp, #12]
 8002e10:	428b      	cmp	r3, r1
 8002e12:	d80c      	bhi.n	8002e2e <__multiply+0x9e>
 8002e14:	2e00      	cmp	r6, #0
 8002e16:	dd03      	ble.n	8002e20 <__multiply+0x90>
 8002e18:	f858 3d04 	ldr.w	r3, [r8, #-4]!
 8002e1c:	2b00      	cmp	r3, #0
 8002e1e:	d05a      	beq.n	8002ed6 <__multiply+0x146>
 8002e20:	6106      	str	r6, [r0, #16]
 8002e22:	b005      	add	sp, #20
 8002e24:	e8bd 8ff0 	ldmia.w	sp!, {r4, r5, r6, r7, r8, r9, sl, fp, pc}
 8002e28:	f843 2b04 	str.w	r2, [r3], #4
 8002e2c:	e7d8      	b.n	8002de0 <__multiply+0x50>
 8002e2e:	f8b1 a000 	ldrh.w	sl, [r1]
 8002e32:	f1ba 0f00 	cmp.w	sl, #0
 8002e36:	d023      	beq.n	8002e80 <__multiply+0xf0>
 8002e38:	f104 0e14 	add.w	lr, r4, #20
 8002e3c:	46a9      	mov	r9, r5
 8002e3e:	f04f 0c00 	mov.w	ip, #0
 8002e42:	f85e 7b04 	ldr.w	r7, [lr], #4
 8002e46:	f8d9 3000 	ldr.w	r3, [r9]
 8002e4a:	fa1f fb87 	uxth.w	fp, r7
 8002e4e:	b29b      	uxth	r3, r3
 8002e50:	fb0a 330b 	mla	r3, sl, fp, r3
 8002e54:	4463      	add	r3, ip
 8002e56:	f8d9 c000 	ldr.w	ip, [r9]
 8002e5a:	0c3f      	lsrs	r7, r7, #16
 8002e5c:	ea4f 4c1c 	mov.w	ip, ip, lsr #16
 8002e60:	fb0a c707 	mla	r7, sl, r7, ip
 8002e64:	eb07 4713 	add.w	r7, r7, r3, lsr #16
 8002e68:	b29b      	uxth	r3, r3
 8002e6a:	ea43 4307 	orr.w	r3, r3, r7, lsl #16
 8002e6e:	4572      	cmp	r2, lr
 8002e70:	f849 3b04 	str.w	r3, [r9], #4
 8002e74:	ea4f 4c17 	mov.w	ip, r7, lsr #16
 8002e78:	d8e3      	bhi.n	8002e42 <__multiply+0xb2>
 8002e7a:	9b01      	ldr	r3, [sp, #4]
 8002e7c:	f845 c003 	str.w	ip, [r5, r3]
 8002e80:	9b03      	ldr	r3, [sp, #12]
 8002e82:	f8b3 9002 	ldrh.w	r9, [r3, #2]
 8002e86:	3104      	adds	r1, #4
 8002e88:	f1b9 0f00 	cmp.w	r9, #0
 8002e8c:	d021      	beq.n	8002ed2 <__multiply+0x142>
 8002e8e:	682b      	ldr	r3, [r5, #0]
 8002e90:	f104 0c14 	add.w	ip, r4, #20
 8002e94:	46ae      	mov	lr, r5
 8002e96:	f04f 0a00 	mov.w	sl, #0
 8002e9a:	f8bc b000 	ldrh.w	fp, [ip]
 8002e9e:	f8be 7002 	ldrh.w	r7, [lr, #2]
 8002ea2:	fb09 770b 	mla	r7, r9, fp, r7
 8002ea6:	4457      	add	r7, sl
 8002ea8:	b29b      	uxth	r3, r3
 8002eaa:	ea43 4307 	orr.w	r3, r3, r7, lsl #16
 8002eae:	f84e 3b04 	str.w	r3, [lr], #4
 8002eb2:	f85c 3b04 	ldr.w	r3, [ip], #4
 8002eb6:	ea4f 4a13 	mov.w	sl, r3, lsr #16
 8002eba:	f8be 3000 	ldrh.w	r3, [lr]
 8002ebe:	fb09 330a 	mla	r3, r9, sl, r3
 8002ec2:	eb03 4317 	add.w	r3, r3, r7, lsr #16
 8002ec6:	4562      	cmp	r2, ip
 8002ec8:	ea4f 4a13 	mov.w	sl, r3, lsr #16
 8002ecc:	d8e5      	bhi.n	8002e9a <__multiply+0x10a>
 8002ece:	9f01      	ldr	r7, [sp, #4]
 8002ed0:	51eb      	str	r3, [r5, r7]
 8002ed2:	3504      	adds	r5, #4
 8002ed4:	e79a      	b.n	8002e0c <__multiply+0x7c>
 8002ed6:	3e01      	subs	r6, #1
 8002ed8:	e79c      	b.n	8002e14 <__multiply+0x84>
 8002eda:	bf00      	nop
 8002edc:	08003b12 	.word	0x08003b12
 8002ee0:	08003b23 	.word	0x08003b23

08002ee4 <__pow5mult>:
 8002ee4:	e92d 43f8 	stmdb	sp!, {r3, r4, r5, r6, r7, r8, r9, lr}
 8002ee8:	4615      	mov	r5, r2
 8002eea:	f012 0203 	ands.w	r2, r2, #3
 8002eee:	4607      	mov	r7, r0
 8002ef0:	460e      	mov	r6, r1
 8002ef2:	d007      	beq.n	8002f04 <__pow5mult+0x20>
 8002ef4:	4c25      	ldr	r4, [pc, #148]	@ (8002f8c <__pow5mult+0xa8>)
 8002ef6:	3a01      	subs	r2, #1
 8002ef8:	2300      	movs	r3, #0
 8002efa:	f854 2022 	ldr.w	r2, [r4, r2, lsl #2]
 8002efe:	f7ff fe9f 	bl	8002c40 <__multadd>
 8002f02:	4606      	mov	r6, r0
 8002f04:	10ad      	asrs	r5, r5, #2
 8002f06:	d03d      	beq.n	8002f84 <__pow5mult+0xa0>
 8002f08:	69fc      	ldr	r4, [r7, #28]
 8002f0a:	b97c      	cbnz	r4, 8002f2c <__pow5mult+0x48>
 8002f0c:	2010      	movs	r0, #16
 8002f0e:	f7fe fba1 	bl	8001654 <malloc>
 8002f12:	4602      	mov	r2, r0
 8002f14:	61f8      	str	r0, [r7, #28]
 8002f16:	b928      	cbnz	r0, 8002f24 <__pow5mult+0x40>
 8002f18:	4b1d      	ldr	r3, [pc, #116]	@ (8002f90 <__pow5mult+0xac>)
 8002f1a:	481e      	ldr	r0, [pc, #120]	@ (8002f94 <__pow5mult+0xb0>)
 8002f1c:	f240 11b3 	movw	r1, #435	@ 0x1b3
 8002f20:	f000 fa44 	bl	80033ac <__assert_func>
 8002f24:	e9c0 4401 	strd	r4, r4, [r0, #4]
 8002f28:	6004      	str	r4, [r0, #0]
 8002f2a:	60c4      	str	r4, [r0, #12]
 8002f2c:	f8d7 801c 	ldr.w	r8, [r7, #28]
 8002f30:	f8d8 4008 	ldr.w	r4, [r8, #8]
 8002f34:	b94c      	cbnz	r4, 8002f4a <__pow5mult+0x66>
 8002f36:	f240 2171 	movw	r1, #625	@ 0x271
 8002f3a:	4638      	mov	r0, r7
 8002f3c:	f7ff ff12 	bl	8002d64 <__i2b>
 8002f40:	2300      	movs	r3, #0
 8002f42:	f8c8 0008 	str.w	r0, [r8, #8]
 8002f46:	4604      	mov	r4, r0
 8002f48:	6003      	str	r3, [r0, #0]
 8002f4a:	f04f 0900 	mov.w	r9, #0
 8002f4e:	07eb      	lsls	r3, r5, #31
 8002f50:	d50a      	bpl.n	8002f68 <__pow5mult+0x84>
 8002f52:	4631      	mov	r1, r6
 8002f54:	4622      	mov	r2, r4
 8002f56:	4638      	mov	r0, r7
 8002f58:	f7ff ff1a 	bl	8002d90 <__multiply>
 8002f5c:	4631      	mov	r1, r6
 8002f5e:	4680      	mov	r8, r0
 8002f60:	4638      	mov	r0, r7
 8002f62:	f7ff fe4b 	bl	8002bfc <_Bfree>
 8002f66:	4646      	mov	r6, r8
 8002f68:	106d      	asrs	r5, r5, #1
 8002f6a:	d00b      	beq.n	8002f84 <__pow5mult+0xa0>
 8002f6c:	6820      	ldr	r0, [r4, #0]
 8002f6e:	b938      	cbnz	r0, 8002f80 <__pow5mult+0x9c>
 8002f70:	4622      	mov	r2, r4
 8002f72:	4621      	mov	r1, r4
 8002f74:	4638      	mov	r0, r7
 8002f76:	f7ff ff0b 	bl	8002d90 <__multiply>
 8002f7a:	6020      	str	r0, [r4, #0]
 8002f7c:	f8c0 9000 	str.w	r9, [r0]
 8002f80:	4604      	mov	r4, r0
 8002f82:	e7e4      	b.n	8002f4e <__pow5mult+0x6a>
 8002f84:	4630      	mov	r0, r6
 8002f86:	e8bd 83f8 	ldmia.w	sp!, {r3, r4, r5, r6, r7, r8, r9, pc}
 8002f8a:	bf00      	nop
 8002f8c:	08003b7c 	.word	0x08003b7c
 8002f90:	08003aa3 	.word	0x08003aa3
 8002f94:	08003b23 	.word	0x08003b23

08002f98 <__lshift>:
 8002f98:	e92d 47f0 	stmdb	sp!, {r4, r5, r6, r7, r8, r9, sl, lr}
 8002f9c:	460c      	mov	r4, r1
 8002f9e:	6849      	ldr	r1, [r1, #4]
 8002fa0:	6923      	ldr	r3, [r4, #16]
 8002fa2:	eb03 1862 	add.w	r8, r3, r2, asr #5
 8002fa6:	68a3      	ldr	r3, [r4, #8]
 8002fa8:	4607      	mov	r7, r0
 8002faa:	4691      	mov	r9, r2
 8002fac:	ea4f 1a62 	mov.w	sl, r2, asr #5
 8002fb0:	f108 0601 	add.w	r6, r8, #1
 8002fb4:	42b3      	cmp	r3, r6
 8002fb6:	db0b      	blt.n	8002fd0 <__lshift+0x38>
 8002fb8:	4638      	mov	r0, r7
 8002fba:	f7ff fddf 	bl	8002b7c <_Balloc>
 8002fbe:	4605      	mov	r5, r0
 8002fc0:	b948      	cbnz	r0, 8002fd6 <__lshift+0x3e>
 8002fc2:	4602      	mov	r2, r0
 8002fc4:	4b28      	ldr	r3, [pc, #160]	@ (8003068 <__lshift+0xd0>)
 8002fc6:	4829      	ldr	r0, [pc, #164]	@ (800306c <__lshift+0xd4>)
 8002fc8:	f44f 71ef 	mov.w	r1, #478	@ 0x1de
 8002fcc:	f000 f9ee 	bl	80033ac <__assert_func>
 8002fd0:	3101      	adds	r1, #1
 8002fd2:	005b      	lsls	r3, r3, #1
 8002fd4:	e7ee      	b.n	8002fb4 <__lshift+0x1c>
 8002fd6:	2300      	movs	r3, #0
 8002fd8:	f100 0114 	add.w	r1, r0, #20
 8002fdc:	f100 0210 	add.w	r2, r0, #16
 8002fe0:	4618      	mov	r0, r3
 8002fe2:	4553      	cmp	r3, sl
 8002fe4:	db33      	blt.n	800304e <__lshift+0xb6>
 8002fe6:	6920      	ldr	r0, [r4, #16]
 8002fe8:	ea2a 7aea 	bic.w	sl, sl, sl, asr #31
 8002fec:	f104 0314 	add.w	r3, r4, #20
 8002ff0:	f019 091f 	ands.w	r9, r9, #31
 8002ff4:	eb01 018a 	add.w	r1, r1, sl, lsl #2
 8002ff8:	eb03 0c80 	add.w	ip, r3, r0, lsl #2
 8002ffc:	d02b      	beq.n	8003056 <__lshift+0xbe>
 8002ffe:	f1c9 0e20 	rsb	lr, r9, #32
 8003002:	468a      	mov	sl, r1
 8003004:	2200      	movs	r2, #0
 8003006:	6818      	ldr	r0, [r3, #0]
 8003008:	fa00 f009 	lsl.w	r0, r0, r9
 800300c:	4310      	orrs	r0, r2
 800300e:	f84a 0b04 	str.w	r0, [sl], #4
 8003012:	f853 2b04 	ldr.w	r2, [r3], #4
 8003016:	459c      	cmp	ip, r3
 8003018:	fa22 f20e 	lsr.w	r2, r2, lr
 800301c:	d8f3      	bhi.n	8003006 <__lshift+0x6e>
 800301e:	ebac 0304 	sub.w	r3, ip, r4
 8003022:	3b15      	subs	r3, #21
 8003024:	f023 0303 	bic.w	r3, r3, #3
 8003028:	3304      	adds	r3, #4
 800302a:	f104 0015 	add.w	r0, r4, #21
 800302e:	4584      	cmp	ip, r0
 8003030:	bf38      	it	cc
 8003032:	2304      	movcc	r3, #4
 8003034:	50ca      	str	r2, [r1, r3]
 8003036:	b10a      	cbz	r2, 800303c <__lshift+0xa4>
 8003038:	f108 0602 	add.w	r6, r8, #2
 800303c:	3e01      	subs	r6, #1
 800303e:	4638      	mov	r0, r7
 8003040:	612e      	str	r6, [r5, #16]
 8003042:	4621      	mov	r1, r4
 8003044:	f7ff fdda 	bl	8002bfc <_Bfree>
 8003048:	4628      	mov	r0, r5
 800304a:	e8bd 87f0 	ldmia.w	sp!, {r4, r5, r6, r7, r8, r9, sl, pc}
 800304e:	f842 0f04 	str.w	r0, [r2, #4]!
 8003052:	3301      	adds	r3, #1
 8003054:	e7c5      	b.n	8002fe2 <__lshift+0x4a>
 8003056:	3904      	subs	r1, #4
 8003058:	f853 2b04 	ldr.w	r2, [r3], #4
 800305c:	f841 2f04 	str.w	r2, [r1, #4]!
 8003060:	459c      	cmp	ip, r3
 8003062:	d8f9      	bhi.n	8003058 <__lshift+0xc0>
 8003064:	e7ea      	b.n	800303c <__lshift+0xa4>
 8003066:	bf00      	nop
 8003068:	08003b12 	.word	0x08003b12
 800306c:	08003b23 	.word	0x08003b23

08003070 <__mcmp>:
 8003070:	690a      	ldr	r2, [r1, #16]
 8003072:	4603      	mov	r3, r0
 8003074:	6900      	ldr	r0, [r0, #16]
 8003076:	1a80      	subs	r0, r0, r2
 8003078:	b530      	push	{r4, r5, lr}
 800307a:	d10e      	bne.n	800309a <__mcmp+0x2a>
 800307c:	3314      	adds	r3, #20
 800307e:	3114      	adds	r1, #20
 8003080:	eb03 0482 	add.w	r4, r3, r2, lsl #2
 8003084:	eb01 0182 	add.w	r1, r1, r2, lsl #2
 8003088:	f854 5d04 	ldr.w	r5, [r4, #-4]!
 800308c:	f851 2d04 	ldr.w	r2, [r1, #-4]!
 8003090:	4295      	cmp	r5, r2
 8003092:	d003      	beq.n	800309c <__mcmp+0x2c>
 8003094:	d205      	bcs.n	80030a2 <__mcmp+0x32>
 8003096:	f04f 30ff 	mov.w	r0, #4294967295	@ 0xffffffff
 800309a:	bd30      	pop	{r4, r5, pc}
 800309c:	42a3      	cmp	r3, r4
 800309e:	d3f3      	bcc.n	8003088 <__mcmp+0x18>
 80030a0:	e7fb      	b.n	800309a <__mcmp+0x2a>
 80030a2:	2001      	movs	r0, #1
 80030a4:	e7f9      	b.n	800309a <__mcmp+0x2a>
	...

080030a8 <__mdiff>:
 80030a8:	e92d 4ff7 	stmdb	sp!, {r0, r1, r2, r4, r5, r6, r7, r8, r9, sl, fp, lr}
 80030ac:	4689      	mov	r9, r1
 80030ae:	4606      	mov	r6, r0
 80030b0:	4611      	mov	r1, r2
 80030b2:	4648      	mov	r0, r9
 80030b4:	4614      	mov	r4, r2
 80030b6:	f7ff ffdb 	bl	8003070 <__mcmp>
 80030ba:	1e05      	subs	r5, r0, #0
 80030bc:	d112      	bne.n	80030e4 <__mdiff+0x3c>
 80030be:	4629      	mov	r1, r5
 80030c0:	4630      	mov	r0, r6
 80030c2:	f7ff fd5b 	bl	8002b7c <_Balloc>
 80030c6:	4602      	mov	r2, r0
 80030c8:	b928      	cbnz	r0, 80030d6 <__mdiff+0x2e>
 80030ca:	4b3e      	ldr	r3, [pc, #248]	@ (80031c4 <__mdiff+0x11c>)
 80030cc:	f240 2137 	movw	r1, #567	@ 0x237
 80030d0:	483d      	ldr	r0, [pc, #244]	@ (80031c8 <__mdiff+0x120>)
 80030d2:	f000 f96b 	bl	80033ac <__assert_func>
 80030d6:	2301      	movs	r3, #1
 80030d8:	e9c0 3504 	strd	r3, r5, [r0, #16]
 80030dc:	4610      	mov	r0, r2
 80030de:	b003      	add	sp, #12
 80030e0:	e8bd 8ff0 	ldmia.w	sp!, {r4, r5, r6, r7, r8, r9, sl, fp, pc}
 80030e4:	bfbc      	itt	lt
 80030e6:	464b      	movlt	r3, r9
 80030e8:	46a1      	movlt	r9, r4
 80030ea:	4630      	mov	r0, r6
 80030ec:	f8d9 1004 	ldr.w	r1, [r9, #4]
 80030f0:	bfba      	itte	lt
 80030f2:	461c      	movlt	r4, r3
 80030f4:	2501      	movlt	r5, #1
 80030f6:	2500      	movge	r5, #0
 80030f8:	f7ff fd40 	bl	8002b7c <_Balloc>
 80030fc:	4602      	mov	r2, r0
 80030fe:	b918      	cbnz	r0, 8003108 <__mdiff+0x60>
 8003100:	4b30      	ldr	r3, [pc, #192]	@ (80031c4 <__mdiff+0x11c>)
 8003102:	f240 2145 	movw	r1, #581	@ 0x245
 8003106:	e7e3      	b.n	80030d0 <__mdiff+0x28>
 8003108:	f8d9 7010 	ldr.w	r7, [r9, #16]
 800310c:	6926      	ldr	r6, [r4, #16]
 800310e:	60c5      	str	r5, [r0, #12]
 8003110:	f109 0310 	add.w	r3, r9, #16
 8003114:	f109 0514 	add.w	r5, r9, #20
 8003118:	f104 0e14 	add.w	lr, r4, #20
 800311c:	f100 0b14 	add.w	fp, r0, #20
 8003120:	eb05 0887 	add.w	r8, r5, r7, lsl #2
 8003124:	eb0e 0686 	add.w	r6, lr, r6, lsl #2
 8003128:	9301      	str	r3, [sp, #4]
 800312a:	46d9      	mov	r9, fp
 800312c:	f04f 0c00 	mov.w	ip, #0
 8003130:	9b01      	ldr	r3, [sp, #4]
 8003132:	f85e 0b04 	ldr.w	r0, [lr], #4
 8003136:	f853 af04 	ldr.w	sl, [r3, #4]!
 800313a:	9301      	str	r3, [sp, #4]
 800313c:	b281      	uxth	r1, r0
 800313e:	fa1f f38a 	uxth.w	r3, sl
 8003142:	1a5b      	subs	r3, r3, r1
 8003144:	0c00      	lsrs	r0, r0, #16
 8003146:	4463      	add	r3, ip
 8003148:	ebc0 401a 	rsb	r0, r0, sl, lsr #16
 800314c:	eb00 4023 	add.w	r0, r0, r3, asr #16
 8003150:	b29b      	uxth	r3, r3
 8003152:	ea43 4300 	orr.w	r3, r3, r0, lsl #16
 8003156:	4576      	cmp	r6, lr
 8003158:	f849 3b04 	str.w	r3, [r9], #4
 800315c:	ea4f 4c20 	mov.w	ip, r0, asr #16
 8003160:	d8e6      	bhi.n	8003130 <__mdiff+0x88>
 8003162:	1b33      	subs	r3, r6, r4
 8003164:	3b15      	subs	r3, #21
 8003166:	f023 0303 	bic.w	r3, r3, #3
 800316a:	3415      	adds	r4, #21
 800316c:	3304      	adds	r3, #4
 800316e:	42a6      	cmp	r6, r4
 8003170:	bf38      	it	cc
 8003172:	2304      	movcc	r3, #4
 8003174:	441d      	add	r5, r3
 8003176:	445b      	add	r3, fp
 8003178:	461e      	mov	r6, r3
 800317a:	462c      	mov	r4, r5
 800317c:	4544      	cmp	r4, r8
 800317e:	d30e      	bcc.n	800319e <__mdiff+0xf6>
 8003180:	f108 0103 	add.w	r1, r8, #3
 8003184:	1b49      	subs	r1, r1, r5
 8003186:	f021 0103 	bic.w	r1, r1, #3
 800318a:	3d03      	subs	r5, #3
 800318c:	45a8      	cmp	r8, r5
 800318e:	bf38      	it	cc
 8003190:	2100      	movcc	r1, #0
 8003192:	440b      	add	r3, r1
 8003194:	f853 1d04 	ldr.w	r1, [r3, #-4]!
 8003198:	b191      	cbz	r1, 80031c0 <__mdiff+0x118>
 800319a:	6117      	str	r7, [r2, #16]
 800319c:	e79e      	b.n	80030dc <__mdiff+0x34>
 800319e:	f854 1b04 	ldr.w	r1, [r4], #4
 80031a2:	46e6      	mov	lr, ip
 80031a4:	0c08      	lsrs	r0, r1, #16
 80031a6:	fa1c fc81 	uxtah	ip, ip, r1
 80031aa:	4471      	add	r1, lr
 80031ac:	eb00 402c 	add.w	r0, r0, ip, asr #16
 80031b0:	b289      	uxth	r1, r1
 80031b2:	ea41 4100 	orr.w	r1, r1, r0, lsl #16
 80031b6:	f846 1b04 	str.w	r1, [r6], #4
 80031ba:	ea4f 4c20 	mov.w	ip, r0, asr #16
 80031be:	e7dd      	b.n	800317c <__mdiff+0xd4>
 80031c0:	3f01      	subs	r7, #1
 80031c2:	e7e7      	b.n	8003194 <__mdiff+0xec>
 80031c4:	08003b12 	.word	0x08003b12
 80031c8:	08003b23 	.word	0x08003b23

080031cc <__d2b>:
 80031cc:	e92d 4373 	stmdb	sp!, {r0, r1, r4, r5, r6, r8, r9, lr}
 80031d0:	2101      	movs	r1, #1
 80031d2:	9e08      	ldr	r6, [sp, #32]
 80031d4:	4690      	mov	r8, r2
 80031d6:	4699      	mov	r9, r3
 80031d8:	f7ff fcd0 	bl	8002b7c <_Balloc>
 80031dc:	4604      	mov	r4, r0
 80031de:	b930      	cbnz	r0, 80031ee <__d2b+0x22>
 80031e0:	4602      	mov	r2, r0
 80031e2:	4b24      	ldr	r3, [pc, #144]	@ (8003274 <__d2b+0xa8>)
 80031e4:	4824      	ldr	r0, [pc, #144]	@ (8003278 <__d2b+0xac>)
 80031e6:	f240 310f 	movw	r1, #783	@ 0x30f
 80031ea:	f000 f8df 	bl	80033ac <__assert_func>
 80031ee:	f3c9 550a 	ubfx	r5, r9, #20, #11
 80031f2:	f3c9 0313 	ubfx	r3, r9, #0, #20
 80031f6:	b10d      	cbz	r5, 80031fc <__d2b+0x30>
 80031f8:	f443 1380 	orr.w	r3, r3, #1048576	@ 0x100000
 80031fc:	9301      	str	r3, [sp, #4]
 80031fe:	f1b8 0300 	subs.w	r3, r8, #0
 8003202:	d024      	beq.n	800324e <__d2b+0x82>
 8003204:	4668      	mov	r0, sp
 8003206:	9300      	str	r3, [sp, #0]
 8003208:	f7ff fd7f 	bl	8002d0a <__lo0bits>
 800320c:	e9dd 1200 	ldrd	r1, r2, [sp]
 8003210:	b1d8      	cbz	r0, 800324a <__d2b+0x7e>
 8003212:	f1c0 0320 	rsb	r3, r0, #32
 8003216:	fa02 f303 	lsl.w	r3, r2, r3
 800321a:	430b      	orrs	r3, r1
 800321c:	40c2      	lsrs	r2, r0
 800321e:	6163      	str	r3, [r4, #20]
 8003220:	9201      	str	r2, [sp, #4]
 8003222:	9b01      	ldr	r3, [sp, #4]
 8003224:	61a3      	str	r3, [r4, #24]
 8003226:	2b00      	cmp	r3, #0
 8003228:	bf0c      	ite	eq
 800322a:	2201      	moveq	r2, #1
 800322c:	2202      	movne	r2, #2
 800322e:	6122      	str	r2, [r4, #16]
 8003230:	b1ad      	cbz	r5, 800325e <__d2b+0x92>
 8003232:	f2a5 4533 	subw	r5, r5, #1075	@ 0x433
 8003236:	4405      	add	r5, r0
 8003238:	6035      	str	r5, [r6, #0]
 800323a:	f1c0 0035 	rsb	r0, r0, #53	@ 0x35
 800323e:	9b09      	ldr	r3, [sp, #36]	@ 0x24
 8003240:	6018      	str	r0, [r3, #0]
 8003242:	4620      	mov	r0, r4
 8003244:	b002      	add	sp, #8
 8003246:	e8bd 8370 	ldmia.w	sp!, {r4, r5, r6, r8, r9, pc}
 800324a:	6161      	str	r1, [r4, #20]
 800324c:	e7e9      	b.n	8003222 <__d2b+0x56>
 800324e:	a801      	add	r0, sp, #4
 8003250:	f7ff fd5b 	bl	8002d0a <__lo0bits>
 8003254:	9b01      	ldr	r3, [sp, #4]
 8003256:	6163      	str	r3, [r4, #20]
 8003258:	3020      	adds	r0, #32
 800325a:	2201      	movs	r2, #1
 800325c:	e7e7      	b.n	800322e <__d2b+0x62>
 800325e:	eb04 0382 	add.w	r3, r4, r2, lsl #2
 8003262:	f2a0 4032 	subw	r0, r0, #1074	@ 0x432
 8003266:	6030      	str	r0, [r6, #0]
 8003268:	6918      	ldr	r0, [r3, #16]
 800326a:	f7ff fd2f 	bl	8002ccc <__hi0bits>
 800326e:	ebc0 1042 	rsb	r0, r0, r2, lsl #5
 8003272:	e7e4      	b.n	800323e <__d2b+0x72>
 8003274:	08003b12 	.word	0x08003b12
 8003278:	08003b23 	.word	0x08003b23

0800327c <__sread>:
 800327c:	b510      	push	{r4, lr}
 800327e:	460c      	mov	r4, r1
 8003280:	f9b1 100e 	ldrsh.w	r1, [r1, #14]
 8003284:	f000 f860 	bl	8003348 <_read_r>
 8003288:	2800      	cmp	r0, #0
 800328a:	bfab      	itete	ge
 800328c:	6d63      	ldrge	r3, [r4, #84]	@ 0x54
 800328e:	89a3      	ldrhlt	r3, [r4, #12]
 8003290:	181b      	addge	r3, r3, r0
 8003292:	f423 5380 	biclt.w	r3, r3, #4096	@ 0x1000
 8003296:	bfac      	ite	ge
 8003298:	6563      	strge	r3, [r4, #84]	@ 0x54
 800329a:	81a3      	strhlt	r3, [r4, #12]
 800329c:	bd10      	pop	{r4, pc}

0800329e <__swrite>:
 800329e:	e92d 41f0 	stmdb	sp!, {r4, r5, r6, r7, r8, lr}
 80032a2:	461f      	mov	r7, r3
 80032a4:	898b      	ldrh	r3, [r1, #12]
 80032a6:	05db      	lsls	r3, r3, #23
 80032a8:	4605      	mov	r5, r0
 80032aa:	460c      	mov	r4, r1
 80032ac:	4616      	mov	r6, r2
 80032ae:	d505      	bpl.n	80032bc <__swrite+0x1e>
 80032b0:	f9b1 100e 	ldrsh.w	r1, [r1, #14]
 80032b4:	2302      	movs	r3, #2
 80032b6:	2200      	movs	r2, #0
 80032b8:	f000 f834 	bl	8003324 <_lseek_r>
 80032bc:	89a3      	ldrh	r3, [r4, #12]
 80032be:	f9b4 100e 	ldrsh.w	r1, [r4, #14]
 80032c2:	f423 5380 	bic.w	r3, r3, #4096	@ 0x1000
 80032c6:	81a3      	strh	r3, [r4, #12]
 80032c8:	4632      	mov	r2, r6
 80032ca:	463b      	mov	r3, r7
 80032cc:	4628      	mov	r0, r5
 80032ce:	e8bd 41f0 	ldmia.w	sp!, {r4, r5, r6, r7, r8, lr}
 80032d2:	f000 b84b 	b.w	800336c <_write_r>

080032d6 <__sseek>:
 80032d6:	b510      	push	{r4, lr}
 80032d8:	460c      	mov	r4, r1
 80032da:	f9b1 100e 	ldrsh.w	r1, [r1, #14]
 80032de:	f000 f821 	bl	8003324 <_lseek_r>
 80032e2:	1c43      	adds	r3, r0, #1
 80032e4:	89a3      	ldrh	r3, [r4, #12]
 80032e6:	bf15      	itete	ne
 80032e8:	6560      	strne	r0, [r4, #84]	@ 0x54
 80032ea:	f423 5380 	biceq.w	r3, r3, #4096	@ 0x1000
 80032ee:	f443 5380 	orrne.w	r3, r3, #4096	@ 0x1000
 80032f2:	81a3      	strheq	r3, [r4, #12]
 80032f4:	bf18      	it	ne
 80032f6:	81a3      	strhne	r3, [r4, #12]
 80032f8:	bd10      	pop	{r4, pc}

080032fa <__sclose>:
 80032fa:	f9b1 100e 	ldrsh.w	r1, [r1, #14]
 80032fe:	f000 b801 	b.w	8003304 <_close_r>
	...

08003304 <_close_r>:
 8003304:	b538      	push	{r3, r4, r5, lr}
 8003306:	4d06      	ldr	r5, [pc, #24]	@ (8003320 <_close_r+0x1c>)
 8003308:	2300      	movs	r3, #0
 800330a:	4604      	mov	r4, r0
 800330c:	4608      	mov	r0, r1
 800330e:	602b      	str	r3, [r5, #0]
 8003310:	f7fd fe45 	bl	8000f9e <_close>
 8003314:	1c43      	adds	r3, r0, #1
 8003316:	d102      	bne.n	800331e <_close_r+0x1a>
 8003318:	682b      	ldr	r3, [r5, #0]
 800331a:	b103      	cbz	r3, 800331e <_close_r+0x1a>
 800331c:	6023      	str	r3, [r4, #0]
 800331e:	bd38      	pop	{r3, r4, r5, pc}
 8003320:	200003c4 	.word	0x200003c4

08003324 <_lseek_r>:
 8003324:	b538      	push	{r3, r4, r5, lr}
 8003326:	4d07      	ldr	r5, [pc, #28]	@ (8003344 <_lseek_r+0x20>)
 8003328:	4604      	mov	r4, r0
 800332a:	4608      	mov	r0, r1
 800332c:	4611      	mov	r1, r2
 800332e:	2200      	movs	r2, #0
 8003330:	602a      	str	r2, [r5, #0]
 8003332:	461a      	mov	r2, r3
 8003334:	f7fd fe57 	bl	8000fe6 <_lseek>
 8003338:	1c43      	adds	r3, r0, #1
 800333a:	d102      	bne.n	8003342 <_lseek_r+0x1e>
 800333c:	682b      	ldr	r3, [r5, #0]
 800333e:	b103      	cbz	r3, 8003342 <_lseek_r+0x1e>
 8003340:	6023      	str	r3, [r4, #0]
 8003342:	bd38      	pop	{r3, r4, r5, pc}
 8003344:	200003c4 	.word	0x200003c4

08003348 <_read_r>:
 8003348:	b538      	push	{r3, r4, r5, lr}
 800334a:	4d07      	ldr	r5, [pc, #28]	@ (8003368 <_read_r+0x20>)
 800334c:	4604      	mov	r4, r0
 800334e:	4608      	mov	r0, r1
 8003350:	4611      	mov	r1, r2
 8003352:	2200      	movs	r2, #0
 8003354:	602a      	str	r2, [r5, #0]
 8003356:	461a      	mov	r2, r3
 8003358:	f7fd fde8 	bl	8000f2c <_read>
 800335c:	1c43      	adds	r3, r0, #1
 800335e:	d102      	bne.n	8003366 <_read_r+0x1e>
 8003360:	682b      	ldr	r3, [r5, #0]
 8003362:	b103      	cbz	r3, 8003366 <_read_r+0x1e>
 8003364:	6023      	str	r3, [r4, #0]
 8003366:	bd38      	pop	{r3, r4, r5, pc}
 8003368:	200003c4 	.word	0x200003c4

0800336c <_write_r>:
 800336c:	b538      	push	{r3, r4, r5, lr}
 800336e:	4d07      	ldr	r5, [pc, #28]	@ (800338c <_write_r+0x20>)
 8003370:	4604      	mov	r4, r0
 8003372:	4608      	mov	r0, r1
 8003374:	4611      	mov	r1, r2
 8003376:	2200      	movs	r2, #0
 8003378:	602a      	str	r2, [r5, #0]
 800337a:	461a      	mov	r2, r3
 800337c:	f7fd fdf3 	bl	8000f66 <_write>
 8003380:	1c43      	adds	r3, r0, #1
 8003382:	d102      	bne.n	800338a <_write_r+0x1e>
 8003384:	682b      	ldr	r3, [r5, #0]
 8003386:	b103      	cbz	r3, 800338a <_write_r+0x1e>
 8003388:	6023      	str	r3, [r4, #0]
 800338a:	bd38      	pop	{r3, r4, r5, pc}
 800338c:	200003c4 	.word	0x200003c4

08003390 <memcpy>:
 8003390:	440a      	add	r2, r1
 8003392:	4291      	cmp	r1, r2
 8003394:	f100 33ff 	add.w	r3, r0, #4294967295	@ 0xffffffff
 8003398:	d100      	bne.n	800339c <memcpy+0xc>
 800339a:	4770      	bx	lr
 800339c:	b510      	push	{r4, lr}
 800339e:	f811 4b01 	ldrb.w	r4, [r1], #1
 80033a2:	f803 4f01 	strb.w	r4, [r3, #1]!
 80033a6:	4291      	cmp	r1, r2
 80033a8:	d1f9      	bne.n	800339e <memcpy+0xe>
 80033aa:	bd10      	pop	{r4, pc}

080033ac <__assert_func>:
 80033ac:	b51f      	push	{r0, r1, r2, r3, r4, lr}
 80033ae:	4614      	mov	r4, r2
 80033b0:	461a      	mov	r2, r3
 80033b2:	4b09      	ldr	r3, [pc, #36]	@ (80033d8 <__assert_func+0x2c>)
 80033b4:	681b      	ldr	r3, [r3, #0]
 80033b6:	4605      	mov	r5, r0
 80033b8:	68d8      	ldr	r0, [r3, #12]
 80033ba:	b954      	cbnz	r4, 80033d2 <__assert_func+0x26>
 80033bc:	4b07      	ldr	r3, [pc, #28]	@ (80033dc <__assert_func+0x30>)
 80033be:	461c      	mov	r4, r3
 80033c0:	e9cd 3401 	strd	r3, r4, [sp, #4]
 80033c4:	9100      	str	r1, [sp, #0]
 80033c6:	462b      	mov	r3, r5
 80033c8:	4905      	ldr	r1, [pc, #20]	@ (80033e0 <__assert_func+0x34>)
 80033ca:	f000 f833 	bl	8003434 <fiprintf>
 80033ce:	f000 f850 	bl	8003472 <abort>
 80033d2:	4b04      	ldr	r3, [pc, #16]	@ (80033e4 <__assert_func+0x38>)
 80033d4:	e7f4      	b.n	80033c0 <__assert_func+0x14>
 80033d6:	bf00      	nop
 80033d8:	20000034 	.word	0x20000034
 80033dc:	08003dbe 	.word	0x08003dbe
 80033e0:	08003d90 	.word	0x08003d90
 80033e4:	08003d83 	.word	0x08003d83

080033e8 <_calloc_r>:
 80033e8:	b570      	push	{r4, r5, r6, lr}
 80033ea:	fba1 5402 	umull	r5, r4, r1, r2
 80033ee:	b93c      	cbnz	r4, 8003400 <_calloc_r+0x18>
 80033f0:	4629      	mov	r1, r5
 80033f2:	f7fe f959 	bl	80016a8 <_malloc_r>
 80033f6:	4606      	mov	r6, r0
 80033f8:	b928      	cbnz	r0, 8003406 <_calloc_r+0x1e>
 80033fa:	2600      	movs	r6, #0
 80033fc:	4630      	mov	r0, r6
 80033fe:	bd70      	pop	{r4, r5, r6, pc}
 8003400:	220c      	movs	r2, #12
 8003402:	6002      	str	r2, [r0, #0]
 8003404:	e7f9      	b.n	80033fa <_calloc_r+0x12>
 8003406:	462a      	mov	r2, r5
 8003408:	4621      	mov	r1, r4
 800340a:	f7fe fc29 	bl	8001c60 <memset>
 800340e:	e7f5      	b.n	80033fc <_calloc_r+0x14>

08003410 <__ascii_mbtowc>:
 8003410:	b082      	sub	sp, #8
 8003412:	b901      	cbnz	r1, 8003416 <__ascii_mbtowc+0x6>
 8003414:	a901      	add	r1, sp, #4
 8003416:	b142      	cbz	r2, 800342a <__ascii_mbtowc+0x1a>
 8003418:	b14b      	cbz	r3, 800342e <__ascii_mbtowc+0x1e>
 800341a:	7813      	ldrb	r3, [r2, #0]
 800341c:	600b      	str	r3, [r1, #0]
 800341e:	7812      	ldrb	r2, [r2, #0]
 8003420:	1e10      	subs	r0, r2, #0
 8003422:	bf18      	it	ne
 8003424:	2001      	movne	r0, #1
 8003426:	b002      	add	sp, #8
 8003428:	4770      	bx	lr
 800342a:	4610      	mov	r0, r2
 800342c:	e7fb      	b.n	8003426 <__ascii_mbtowc+0x16>
 800342e:	f06f 0001 	mvn.w	r0, #1
 8003432:	e7f8      	b.n	8003426 <__ascii_mbtowc+0x16>

08003434 <fiprintf>:
 8003434:	b40e      	push	{r1, r2, r3}
 8003436:	b503      	push	{r0, r1, lr}
 8003438:	4601      	mov	r1, r0
 800343a:	ab03      	add	r3, sp, #12
 800343c:	4805      	ldr	r0, [pc, #20]	@ (8003454 <fiprintf+0x20>)
 800343e:	f853 2b04 	ldr.w	r2, [r3], #4
 8003442:	6800      	ldr	r0, [r0, #0]
 8003444:	9301      	str	r3, [sp, #4]
 8003446:	f000 f843 	bl	80034d0 <_vfiprintf_r>
 800344a:	b002      	add	sp, #8
 800344c:	f85d eb04 	ldr.w	lr, [sp], #4
 8003450:	b003      	add	sp, #12
 8003452:	4770      	bx	lr
 8003454:	20000034 	.word	0x20000034

08003458 <__ascii_wctomb>:
 8003458:	4603      	mov	r3, r0
 800345a:	4608      	mov	r0, r1
 800345c:	b141      	cbz	r1, 8003470 <__ascii_wctomb+0x18>
 800345e:	2aff      	cmp	r2, #255	@ 0xff
 8003460:	d904      	bls.n	800346c <__ascii_wctomb+0x14>
 8003462:	228a      	movs	r2, #138	@ 0x8a
 8003464:	601a      	str	r2, [r3, #0]
 8003466:	f04f 30ff 	mov.w	r0, #4294967295	@ 0xffffffff
 800346a:	4770      	bx	lr
 800346c:	700a      	strb	r2, [r1, #0]
 800346e:	2001      	movs	r0, #1
 8003470:	4770      	bx	lr

08003472 <abort>:
 8003472:	b508      	push	{r3, lr}
 8003474:	2006      	movs	r0, #6
 8003476:	f000 fa83 	bl	8003980 <raise>
 800347a:	2001      	movs	r0, #1
 800347c:	f7fd fd4b 	bl	8000f16 <_exit>

08003480 <__sfputc_r>:
 8003480:	6893      	ldr	r3, [r2, #8]
 8003482:	3b01      	subs	r3, #1
 8003484:	2b00      	cmp	r3, #0
 8003486:	b410      	push	{r4}
 8003488:	6093      	str	r3, [r2, #8]
 800348a:	da07      	bge.n	800349c <__sfputc_r+0x1c>
 800348c:	6994      	ldr	r4, [r2, #24]
 800348e:	42a3      	cmp	r3, r4
 8003490:	db01      	blt.n	8003496 <__sfputc_r+0x16>
 8003492:	290a      	cmp	r1, #10
 8003494:	d102      	bne.n	800349c <__sfputc_r+0x1c>
 8003496:	bc10      	pop	{r4}
 8003498:	f000 b932 	b.w	8003700 <__swbuf_r>
 800349c:	6813      	ldr	r3, [r2, #0]
 800349e:	1c58      	adds	r0, r3, #1
 80034a0:	6010      	str	r0, [r2, #0]
 80034a2:	7019      	strb	r1, [r3, #0]
 80034a4:	4608      	mov	r0, r1
 80034a6:	bc10      	pop	{r4}
 80034a8:	4770      	bx	lr

080034aa <__sfputs_r>:
 80034aa:	b5f8      	push	{r3, r4, r5, r6, r7, lr}
 80034ac:	4606      	mov	r6, r0
 80034ae:	460f      	mov	r7, r1
 80034b0:	4614      	mov	r4, r2
 80034b2:	18d5      	adds	r5, r2, r3
 80034b4:	42ac      	cmp	r4, r5
 80034b6:	d101      	bne.n	80034bc <__sfputs_r+0x12>
 80034b8:	2000      	movs	r0, #0
 80034ba:	e007      	b.n	80034cc <__sfputs_r+0x22>
 80034bc:	f814 1b01 	ldrb.w	r1, [r4], #1
 80034c0:	463a      	mov	r2, r7
 80034c2:	4630      	mov	r0, r6
 80034c4:	f7ff ffdc 	bl	8003480 <__sfputc_r>
 80034c8:	1c43      	adds	r3, r0, #1
 80034ca:	d1f3      	bne.n	80034b4 <__sfputs_r+0xa>
 80034cc:	bdf8      	pop	{r3, r4, r5, r6, r7, pc}
	...

080034d0 <_vfiprintf_r>:
 80034d0:	e92d 4ff0 	stmdb	sp!, {r4, r5, r6, r7, r8, r9, sl, fp, lr}
 80034d4:	460d      	mov	r5, r1
 80034d6:	b09d      	sub	sp, #116	@ 0x74
 80034d8:	4614      	mov	r4, r2
 80034da:	4698      	mov	r8, r3
 80034dc:	4606      	mov	r6, r0
 80034de:	b118      	cbz	r0, 80034e8 <_vfiprintf_r+0x18>
 80034e0:	6a03      	ldr	r3, [r0, #32]
 80034e2:	b90b      	cbnz	r3, 80034e8 <_vfiprintf_r+0x18>
 80034e4:	f7fe fb86 	bl	8001bf4 <__sinit>
 80034e8:	6e6b      	ldr	r3, [r5, #100]	@ 0x64
 80034ea:	07d9      	lsls	r1, r3, #31
 80034ec:	d405      	bmi.n	80034fa <_vfiprintf_r+0x2a>
 80034ee:	89ab      	ldrh	r3, [r5, #12]
 80034f0:	059a      	lsls	r2, r3, #22
 80034f2:	d402      	bmi.n	80034fa <_vfiprintf_r+0x2a>
 80034f4:	6da8      	ldr	r0, [r5, #88]	@ 0x58
 80034f6:	f7fe fbfa 	bl	8001cee <__retarget_lock_acquire_recursive>
 80034fa:	89ab      	ldrh	r3, [r5, #12]
 80034fc:	071b      	lsls	r3, r3, #28
 80034fe:	d501      	bpl.n	8003504 <_vfiprintf_r+0x34>
 8003500:	692b      	ldr	r3, [r5, #16]
 8003502:	b99b      	cbnz	r3, 800352c <_vfiprintf_r+0x5c>
 8003504:	4629      	mov	r1, r5
 8003506:	4630      	mov	r0, r6
 8003508:	f000 f938 	bl	800377c <__swsetup_r>
 800350c:	b170      	cbz	r0, 800352c <_vfiprintf_r+0x5c>
 800350e:	6e6b      	ldr	r3, [r5, #100]	@ 0x64
 8003510:	07dc      	lsls	r4, r3, #31
 8003512:	d504      	bpl.n	800351e <_vfiprintf_r+0x4e>
 8003514:	f04f 30ff 	mov.w	r0, #4294967295	@ 0xffffffff
 8003518:	b01d      	add	sp, #116	@ 0x74
 800351a:	e8bd 8ff0 	ldmia.w	sp!, {r4, r5, r6, r7, r8, r9, sl, fp, pc}
 800351e:	89ab      	ldrh	r3, [r5, #12]
 8003520:	0598      	lsls	r0, r3, #22
 8003522:	d4f7      	bmi.n	8003514 <_vfiprintf_r+0x44>
 8003524:	6da8      	ldr	r0, [r5, #88]	@ 0x58
 8003526:	f7fe fbe3 	bl	8001cf0 <__retarget_lock_release_recursive>
 800352a:	e7f3      	b.n	8003514 <_vfiprintf_r+0x44>
 800352c:	2300      	movs	r3, #0
 800352e:	9309      	str	r3, [sp, #36]	@ 0x24
 8003530:	2320      	movs	r3, #32
 8003532:	f88d 3029 	strb.w	r3, [sp, #41]	@ 0x29
 8003536:	f8cd 800c 	str.w	r8, [sp, #12]
 800353a:	2330      	movs	r3, #48	@ 0x30
 800353c:	f8df 81ac 	ldr.w	r8, [pc, #428]	@ 80036ec <_vfiprintf_r+0x21c>
 8003540:	f88d 302a 	strb.w	r3, [sp, #42]	@ 0x2a
 8003544:	f04f 0901 	mov.w	r9, #1
 8003548:	4623      	mov	r3, r4
 800354a:	469a      	mov	sl, r3
 800354c:	f813 2b01 	ldrb.w	r2, [r3], #1
 8003550:	b10a      	cbz	r2, 8003556 <_vfiprintf_r+0x86>
 8003552:	2a25      	cmp	r2, #37	@ 0x25
 8003554:	d1f9      	bne.n	800354a <_vfiprintf_r+0x7a>
 8003556:	ebba 0b04 	subs.w	fp, sl, r4
 800355a:	d00b      	beq.n	8003574 <_vfiprintf_r+0xa4>
 800355c:	465b      	mov	r3, fp
 800355e:	4622      	mov	r2, r4
 8003560:	4629      	mov	r1, r5
 8003562:	4630      	mov	r0, r6
 8003564:	f7ff ffa1 	bl	80034aa <__sfputs_r>
 8003568:	3001      	adds	r0, #1
 800356a:	f000 80a7 	beq.w	80036bc <_vfiprintf_r+0x1ec>
 800356e:	9a09      	ldr	r2, [sp, #36]	@ 0x24
 8003570:	445a      	add	r2, fp
 8003572:	9209      	str	r2, [sp, #36]	@ 0x24
 8003574:	f89a 3000 	ldrb.w	r3, [sl]
 8003578:	2b00      	cmp	r3, #0
 800357a:	f000 809f 	beq.w	80036bc <_vfiprintf_r+0x1ec>
 800357e:	2300      	movs	r3, #0
 8003580:	f04f 32ff 	mov.w	r2, #4294967295	@ 0xffffffff
 8003584:	e9cd 2305 	strd	r2, r3, [sp, #20]
 8003588:	f10a 0a01 	add.w	sl, sl, #1
 800358c:	9304      	str	r3, [sp, #16]
 800358e:	9307      	str	r3, [sp, #28]
 8003590:	f88d 3053 	strb.w	r3, [sp, #83]	@ 0x53
 8003594:	931a      	str	r3, [sp, #104]	@ 0x68
 8003596:	4654      	mov	r4, sl
 8003598:	2205      	movs	r2, #5
 800359a:	f814 1b01 	ldrb.w	r1, [r4], #1
 800359e:	4853      	ldr	r0, [pc, #332]	@ (80036ec <_vfiprintf_r+0x21c>)
 80035a0:	f7fc fe1e 	bl	80001e0 <memchr>
 80035a4:	9a04      	ldr	r2, [sp, #16]
 80035a6:	b9d8      	cbnz	r0, 80035e0 <_vfiprintf_r+0x110>
 80035a8:	06d1      	lsls	r1, r2, #27
 80035aa:	bf44      	itt	mi
 80035ac:	2320      	movmi	r3, #32
 80035ae:	f88d 3053 	strbmi.w	r3, [sp, #83]	@ 0x53
 80035b2:	0713      	lsls	r3, r2, #28
 80035b4:	bf44      	itt	mi
 80035b6:	232b      	movmi	r3, #43	@ 0x2b
 80035b8:	f88d 3053 	strbmi.w	r3, [sp, #83]	@ 0x53
 80035bc:	f89a 3000 	ldrb.w	r3, [sl]
 80035c0:	2b2a      	cmp	r3, #42	@ 0x2a
 80035c2:	d015      	beq.n	80035f0 <_vfiprintf_r+0x120>
 80035c4:	9a07      	ldr	r2, [sp, #28]
 80035c6:	4654      	mov	r4, sl
 80035c8:	2000      	movs	r0, #0
 80035ca:	f04f 0c0a 	mov.w	ip, #10
 80035ce:	4621      	mov	r1, r4
 80035d0:	f811 3b01 	ldrb.w	r3, [r1], #1
 80035d4:	3b30      	subs	r3, #48	@ 0x30
 80035d6:	2b09      	cmp	r3, #9
 80035d8:	d94b      	bls.n	8003672 <_vfiprintf_r+0x1a2>
 80035da:	b1b0      	cbz	r0, 800360a <_vfiprintf_r+0x13a>
 80035dc:	9207      	str	r2, [sp, #28]
 80035de:	e014      	b.n	800360a <_vfiprintf_r+0x13a>
 80035e0:	eba0 0308 	sub.w	r3, r0, r8
 80035e4:	fa09 f303 	lsl.w	r3, r9, r3
 80035e8:	4313      	orrs	r3, r2
 80035ea:	9304      	str	r3, [sp, #16]
 80035ec:	46a2      	mov	sl, r4
 80035ee:	e7d2      	b.n	8003596 <_vfiprintf_r+0xc6>
 80035f0:	9b03      	ldr	r3, [sp, #12]
 80035f2:	1d19      	adds	r1, r3, #4
 80035f4:	681b      	ldr	r3, [r3, #0]
 80035f6:	9103      	str	r1, [sp, #12]
 80035f8:	2b00      	cmp	r3, #0
 80035fa:	bfbb      	ittet	lt
 80035fc:	425b      	neglt	r3, r3
 80035fe:	f042 0202 	orrlt.w	r2, r2, #2
 8003602:	9307      	strge	r3, [sp, #28]
 8003604:	9307      	strlt	r3, [sp, #28]
 8003606:	bfb8      	it	lt
 8003608:	9204      	strlt	r2, [sp, #16]
 800360a:	7823      	ldrb	r3, [r4, #0]
 800360c:	2b2e      	cmp	r3, #46	@ 0x2e
 800360e:	d10a      	bne.n	8003626 <_vfiprintf_r+0x156>
 8003610:	7863      	ldrb	r3, [r4, #1]
 8003612:	2b2a      	cmp	r3, #42	@ 0x2a
 8003614:	d132      	bne.n	800367c <_vfiprintf_r+0x1ac>
 8003616:	9b03      	ldr	r3, [sp, #12]
 8003618:	1d1a      	adds	r2, r3, #4
 800361a:	681b      	ldr	r3, [r3, #0]
 800361c:	9203      	str	r2, [sp, #12]
 800361e:	ea43 73e3 	orr.w	r3, r3, r3, asr #31
 8003622:	3402      	adds	r4, #2
 8003624:	9305      	str	r3, [sp, #20]
 8003626:	f8df a0c8 	ldr.w	sl, [pc, #200]	@ 80036f0 <_vfiprintf_r+0x220>
 800362a:	7821      	ldrb	r1, [r4, #0]
 800362c:	2203      	movs	r2, #3
 800362e:	4650      	mov	r0, sl
 8003630:	f7fc fdd6 	bl	80001e0 <memchr>
 8003634:	b138      	cbz	r0, 8003646 <_vfiprintf_r+0x176>
 8003636:	9b04      	ldr	r3, [sp, #16]
 8003638:	eba0 000a 	sub.w	r0, r0, sl
 800363c:	2240      	movs	r2, #64	@ 0x40
 800363e:	4082      	lsls	r2, r0
 8003640:	4313      	orrs	r3, r2
 8003642:	3401      	adds	r4, #1
 8003644:	9304      	str	r3, [sp, #16]
 8003646:	f814 1b01 	ldrb.w	r1, [r4], #1
 800364a:	482a      	ldr	r0, [pc, #168]	@ (80036f4 <_vfiprintf_r+0x224>)
 800364c:	f88d 1028 	strb.w	r1, [sp, #40]	@ 0x28
 8003650:	2206      	movs	r2, #6
 8003652:	f7fc fdc5 	bl	80001e0 <memchr>
 8003656:	2800      	cmp	r0, #0
 8003658:	d03f      	beq.n	80036da <_vfiprintf_r+0x20a>
 800365a:	4b27      	ldr	r3, [pc, #156]	@ (80036f8 <_vfiprintf_r+0x228>)
 800365c:	bb1b      	cbnz	r3, 80036a6 <_vfiprintf_r+0x1d6>
 800365e:	9b03      	ldr	r3, [sp, #12]
 8003660:	3307      	adds	r3, #7
 8003662:	f023 0307 	bic.w	r3, r3, #7
 8003666:	3308      	adds	r3, #8
 8003668:	9303      	str	r3, [sp, #12]
 800366a:	9b09      	ldr	r3, [sp, #36]	@ 0x24
 800366c:	443b      	add	r3, r7
 800366e:	9309      	str	r3, [sp, #36]	@ 0x24
 8003670:	e76a      	b.n	8003548 <_vfiprintf_r+0x78>
 8003672:	fb0c 3202 	mla	r2, ip, r2, r3
 8003676:	460c      	mov	r4, r1
 8003678:	2001      	movs	r0, #1
 800367a:	e7a8      	b.n	80035ce <_vfiprintf_r+0xfe>
 800367c:	2300      	movs	r3, #0
 800367e:	3401      	adds	r4, #1
 8003680:	9305      	str	r3, [sp, #20]
 8003682:	4619      	mov	r1, r3
 8003684:	f04f 0c0a 	mov.w	ip, #10
 8003688:	4620      	mov	r0, r4
 800368a:	f810 2b01 	ldrb.w	r2, [r0], #1
 800368e:	3a30      	subs	r2, #48	@ 0x30
 8003690:	2a09      	cmp	r2, #9
 8003692:	d903      	bls.n	800369c <_vfiprintf_r+0x1cc>
 8003694:	2b00      	cmp	r3, #0
 8003696:	d0c6      	beq.n	8003626 <_vfiprintf_r+0x156>
 8003698:	9105      	str	r1, [sp, #20]
 800369a:	e7c4      	b.n	8003626 <_vfiprintf_r+0x156>
 800369c:	fb0c 2101 	mla	r1, ip, r1, r2
 80036a0:	4604      	mov	r4, r0
 80036a2:	2301      	movs	r3, #1
 80036a4:	e7f0      	b.n	8003688 <_vfiprintf_r+0x1b8>
 80036a6:	ab03      	add	r3, sp, #12
 80036a8:	9300      	str	r3, [sp, #0]
 80036aa:	462a      	mov	r2, r5
 80036ac:	4b13      	ldr	r3, [pc, #76]	@ (80036fc <_vfiprintf_r+0x22c>)
 80036ae:	a904      	add	r1, sp, #16
 80036b0:	4630      	mov	r0, r6
 80036b2:	f7fd fda3 	bl	80011fc <_printf_float>
 80036b6:	4607      	mov	r7, r0
 80036b8:	1c78      	adds	r0, r7, #1
 80036ba:	d1d6      	bne.n	800366a <_vfiprintf_r+0x19a>
 80036bc:	6e6b      	ldr	r3, [r5, #100]	@ 0x64
 80036be:	07d9      	lsls	r1, r3, #31
 80036c0:	d405      	bmi.n	80036ce <_vfiprintf_r+0x1fe>
 80036c2:	89ab      	ldrh	r3, [r5, #12]
 80036c4:	059a      	lsls	r2, r3, #22
 80036c6:	d402      	bmi.n	80036ce <_vfiprintf_r+0x1fe>
 80036c8:	6da8      	ldr	r0, [r5, #88]	@ 0x58
 80036ca:	f7fe fb11 	bl	8001cf0 <__retarget_lock_release_recursive>
 80036ce:	89ab      	ldrh	r3, [r5, #12]
 80036d0:	065b      	lsls	r3, r3, #25
 80036d2:	f53f af1f 	bmi.w	8003514 <_vfiprintf_r+0x44>
 80036d6:	9809      	ldr	r0, [sp, #36]	@ 0x24
 80036d8:	e71e      	b.n	8003518 <_vfiprintf_r+0x48>
 80036da:	ab03      	add	r3, sp, #12
 80036dc:	9300      	str	r3, [sp, #0]
 80036de:	462a      	mov	r2, r5
 80036e0:	4b06      	ldr	r3, [pc, #24]	@ (80036fc <_vfiprintf_r+0x22c>)
 80036e2:	a904      	add	r1, sp, #16
 80036e4:	4630      	mov	r0, r6
 80036e6:	f7fe f8cd 	bl	8001884 <_printf_i>
 80036ea:	e7e4      	b.n	80036b6 <_vfiprintf_r+0x1e6>
 80036ec:	08003dbf 	.word	0x08003dbf
 80036f0:	08003dc5 	.word	0x08003dc5
 80036f4:	08003dc9 	.word	0x08003dc9
 80036f8:	080011fd 	.word	0x080011fd
 80036fc:	080034ab 	.word	0x080034ab

08003700 <__swbuf_r>:
 8003700:	b5f8      	push	{r3, r4, r5, r6, r7, lr}
 8003702:	460e      	mov	r6, r1
 8003704:	4614      	mov	r4, r2
 8003706:	4605      	mov	r5, r0
 8003708:	b118      	cbz	r0, 8003712 <__swbuf_r+0x12>
 800370a:	6a03      	ldr	r3, [r0, #32]
 800370c:	b90b      	cbnz	r3, 8003712 <__swbuf_r+0x12>
 800370e:	f7fe fa71 	bl	8001bf4 <__sinit>
 8003712:	69a3      	ldr	r3, [r4, #24]
 8003714:	60a3      	str	r3, [r4, #8]
 8003716:	89a3      	ldrh	r3, [r4, #12]
 8003718:	071a      	lsls	r2, r3, #28
 800371a:	d501      	bpl.n	8003720 <__swbuf_r+0x20>
 800371c:	6923      	ldr	r3, [r4, #16]
 800371e:	b943      	cbnz	r3, 8003732 <__swbuf_r+0x32>
 8003720:	4621      	mov	r1, r4
 8003722:	4628      	mov	r0, r5
 8003724:	f000 f82a 	bl	800377c <__swsetup_r>
 8003728:	b118      	cbz	r0, 8003732 <__swbuf_r+0x32>
 800372a:	f04f 37ff 	mov.w	r7, #4294967295	@ 0xffffffff
 800372e:	4638      	mov	r0, r7
 8003730:	bdf8      	pop	{r3, r4, r5, r6, r7, pc}
 8003732:	6823      	ldr	r3, [r4, #0]
 8003734:	6922      	ldr	r2, [r4, #16]
 8003736:	1a98      	subs	r0, r3, r2
 8003738:	6963      	ldr	r3, [r4, #20]
 800373a:	b2f6      	uxtb	r6, r6
 800373c:	4283      	cmp	r3, r0
 800373e:	4637      	mov	r7, r6
 8003740:	dc05      	bgt.n	800374e <__swbuf_r+0x4e>
 8003742:	4621      	mov	r1, r4
 8003744:	4628      	mov	r0, r5
 8003746:	f7ff f9f1 	bl	8002b2c <_fflush_r>
 800374a:	2800      	cmp	r0, #0
 800374c:	d1ed      	bne.n	800372a <__swbuf_r+0x2a>
 800374e:	68a3      	ldr	r3, [r4, #8]
 8003750:	3b01      	subs	r3, #1
 8003752:	60a3      	str	r3, [r4, #8]
 8003754:	6823      	ldr	r3, [r4, #0]
 8003756:	1c5a      	adds	r2, r3, #1
 8003758:	6022      	str	r2, [r4, #0]
 800375a:	701e      	strb	r6, [r3, #0]
 800375c:	6962      	ldr	r2, [r4, #20]
 800375e:	1c43      	adds	r3, r0, #1
 8003760:	429a      	cmp	r2, r3
 8003762:	d004      	beq.n	800376e <__swbuf_r+0x6e>
 8003764:	89a3      	ldrh	r3, [r4, #12]
 8003766:	07db      	lsls	r3, r3, #31
 8003768:	d5e1      	bpl.n	800372e <__swbuf_r+0x2e>
 800376a:	2e0a      	cmp	r6, #10
 800376c:	d1df      	bne.n	800372e <__swbuf_r+0x2e>
 800376e:	4621      	mov	r1, r4
 8003770:	4628      	mov	r0, r5
 8003772:	f7ff f9db 	bl	8002b2c <_fflush_r>
 8003776:	2800      	cmp	r0, #0
 8003778:	d0d9      	beq.n	800372e <__swbuf_r+0x2e>
 800377a:	e7d6      	b.n	800372a <__swbuf_r+0x2a>

0800377c <__swsetup_r>:
 800377c:	b538      	push	{r3, r4, r5, lr}
 800377e:	4b29      	ldr	r3, [pc, #164]	@ (8003824 <__swsetup_r+0xa8>)
 8003780:	4605      	mov	r5, r0
 8003782:	6818      	ldr	r0, [r3, #0]
 8003784:	460c      	mov	r4, r1
 8003786:	b118      	cbz	r0, 8003790 <__swsetup_r+0x14>
 8003788:	6a03      	ldr	r3, [r0, #32]
 800378a:	b90b      	cbnz	r3, 8003790 <__swsetup_r+0x14>
 800378c:	f7fe fa32 	bl	8001bf4 <__sinit>
 8003790:	f9b4 300c 	ldrsh.w	r3, [r4, #12]
 8003794:	0719      	lsls	r1, r3, #28
 8003796:	d422      	bmi.n	80037de <__swsetup_r+0x62>
 8003798:	06da      	lsls	r2, r3, #27
 800379a:	d407      	bmi.n	80037ac <__swsetup_r+0x30>
 800379c:	2209      	movs	r2, #9
 800379e:	602a      	str	r2, [r5, #0]
 80037a0:	f043 0340 	orr.w	r3, r3, #64	@ 0x40
 80037a4:	81a3      	strh	r3, [r4, #12]
 80037a6:	f04f 30ff 	mov.w	r0, #4294967295	@ 0xffffffff
 80037aa:	e033      	b.n	8003814 <__swsetup_r+0x98>
 80037ac:	0758      	lsls	r0, r3, #29
 80037ae:	d512      	bpl.n	80037d6 <__swsetup_r+0x5a>
 80037b0:	6b61      	ldr	r1, [r4, #52]	@ 0x34
 80037b2:	b141      	cbz	r1, 80037c6 <__swsetup_r+0x4a>
 80037b4:	f104 0344 	add.w	r3, r4, #68	@ 0x44
 80037b8:	4299      	cmp	r1, r3
 80037ba:	d002      	beq.n	80037c2 <__swsetup_r+0x46>
 80037bc:	4628      	mov	r0, r5
 80037be:	f7ff f8eb 	bl	8002998 <_free_r>
 80037c2:	2300      	movs	r3, #0
 80037c4:	6363      	str	r3, [r4, #52]	@ 0x34
 80037c6:	89a3      	ldrh	r3, [r4, #12]
 80037c8:	f023 0324 	bic.w	r3, r3, #36	@ 0x24
 80037cc:	81a3      	strh	r3, [r4, #12]
 80037ce:	2300      	movs	r3, #0
 80037d0:	6063      	str	r3, [r4, #4]
 80037d2:	6923      	ldr	r3, [r4, #16]
 80037d4:	6023      	str	r3, [r4, #0]
 80037d6:	89a3      	ldrh	r3, [r4, #12]
 80037d8:	f043 0308 	orr.w	r3, r3, #8
 80037dc:	81a3      	strh	r3, [r4, #12]
 80037de:	6923      	ldr	r3, [r4, #16]
 80037e0:	b94b      	cbnz	r3, 80037f6 <__swsetup_r+0x7a>
 80037e2:	89a3      	ldrh	r3, [r4, #12]
 80037e4:	f403 7320 	and.w	r3, r3, #640	@ 0x280
 80037e8:	f5b3 7f00 	cmp.w	r3, #512	@ 0x200
 80037ec:	d003      	beq.n	80037f6 <__swsetup_r+0x7a>
 80037ee:	4621      	mov	r1, r4
 80037f0:	4628      	mov	r0, r5
 80037f2:	f000 f83f 	bl	8003874 <__smakebuf_r>
 80037f6:	f9b4 300c 	ldrsh.w	r3, [r4, #12]
 80037fa:	f013 0201 	ands.w	r2, r3, #1
 80037fe:	d00a      	beq.n	8003816 <__swsetup_r+0x9a>
 8003800:	2200      	movs	r2, #0
 8003802:	60a2      	str	r2, [r4, #8]
 8003804:	6962      	ldr	r2, [r4, #20]
 8003806:	4252      	negs	r2, r2
 8003808:	61a2      	str	r2, [r4, #24]
 800380a:	6922      	ldr	r2, [r4, #16]
 800380c:	b942      	cbnz	r2, 8003820 <__swsetup_r+0xa4>
 800380e:	f013 0080 	ands.w	r0, r3, #128	@ 0x80
 8003812:	d1c5      	bne.n	80037a0 <__swsetup_r+0x24>
 8003814:	bd38      	pop	{r3, r4, r5, pc}
 8003816:	0799      	lsls	r1, r3, #30
 8003818:	bf58      	it	pl
 800381a:	6962      	ldrpl	r2, [r4, #20]
 800381c:	60a2      	str	r2, [r4, #8]
 800381e:	e7f4      	b.n	800380a <__swsetup_r+0x8e>
 8003820:	2000      	movs	r0, #0
 8003822:	e7f7      	b.n	8003814 <__swsetup_r+0x98>
 8003824:	20000034 	.word	0x20000034

08003828 <__swhatbuf_r>:
 8003828:	b570      	push	{r4, r5, r6, lr}
 800382a:	460c      	mov	r4, r1
 800382c:	f9b1 100e 	ldrsh.w	r1, [r1, #14]
 8003830:	2900      	cmp	r1, #0
 8003832:	b096      	sub	sp, #88	@ 0x58
 8003834:	4615      	mov	r5, r2
 8003836:	461e      	mov	r6, r3
 8003838:	da0d      	bge.n	8003856 <__swhatbuf_r+0x2e>
 800383a:	89a3      	ldrh	r3, [r4, #12]
 800383c:	f013 0f80 	tst.w	r3, #128	@ 0x80
 8003840:	f04f 0100 	mov.w	r1, #0
 8003844:	bf14      	ite	ne
 8003846:	2340      	movne	r3, #64	@ 0x40
 8003848:	f44f 6380 	moveq.w	r3, #1024	@ 0x400
 800384c:	2000      	movs	r0, #0
 800384e:	6031      	str	r1, [r6, #0]
 8003850:	602b      	str	r3, [r5, #0]
 8003852:	b016      	add	sp, #88	@ 0x58
 8003854:	bd70      	pop	{r4, r5, r6, pc}
 8003856:	466a      	mov	r2, sp
 8003858:	f000 f848 	bl	80038ec <_fstat_r>
 800385c:	2800      	cmp	r0, #0
 800385e:	dbec      	blt.n	800383a <__swhatbuf_r+0x12>
 8003860:	9901      	ldr	r1, [sp, #4]
 8003862:	f401 4170 	and.w	r1, r1, #61440	@ 0xf000
 8003866:	f5a1 5300 	sub.w	r3, r1, #8192	@ 0x2000
 800386a:	4259      	negs	r1, r3
 800386c:	4159      	adcs	r1, r3
 800386e:	f44f 6380 	mov.w	r3, #1024	@ 0x400
 8003872:	e7eb      	b.n	800384c <__swhatbuf_r+0x24>

08003874 <__smakebuf_r>:
 8003874:	898b      	ldrh	r3, [r1, #12]
 8003876:	b5f7      	push	{r0, r1, r2, r4, r5, r6, r7, lr}
 8003878:	079d      	lsls	r5, r3, #30
 800387a:	4606      	mov	r6, r0
 800387c:	460c      	mov	r4, r1
 800387e:	d507      	bpl.n	8003890 <__smakebuf_r+0x1c>
 8003880:	f104 0347 	add.w	r3, r4, #71	@ 0x47
 8003884:	6023      	str	r3, [r4, #0]
 8003886:	6123      	str	r3, [r4, #16]
 8003888:	2301      	movs	r3, #1
 800388a:	6163      	str	r3, [r4, #20]
 800388c:	b003      	add	sp, #12
 800388e:	bdf0      	pop	{r4, r5, r6, r7, pc}
 8003890:	ab01      	add	r3, sp, #4
 8003892:	466a      	mov	r2, sp
 8003894:	f7ff ffc8 	bl	8003828 <__swhatbuf_r>
 8003898:	9f00      	ldr	r7, [sp, #0]
 800389a:	4605      	mov	r5, r0
 800389c:	4639      	mov	r1, r7
 800389e:	4630      	mov	r0, r6
 80038a0:	f7fd ff02 	bl	80016a8 <_malloc_r>
 80038a4:	b948      	cbnz	r0, 80038ba <__smakebuf_r+0x46>
 80038a6:	f9b4 300c 	ldrsh.w	r3, [r4, #12]
 80038aa:	059a      	lsls	r2, r3, #22
 80038ac:	d4ee      	bmi.n	800388c <__smakebuf_r+0x18>
 80038ae:	f023 0303 	bic.w	r3, r3, #3
 80038b2:	f043 0302 	orr.w	r3, r3, #2
 80038b6:	81a3      	strh	r3, [r4, #12]
 80038b8:	e7e2      	b.n	8003880 <__smakebuf_r+0xc>
 80038ba:	89a3      	ldrh	r3, [r4, #12]
 80038bc:	6020      	str	r0, [r4, #0]
 80038be:	f043 0380 	orr.w	r3, r3, #128	@ 0x80
 80038c2:	81a3      	strh	r3, [r4, #12]
 80038c4:	9b01      	ldr	r3, [sp, #4]
 80038c6:	e9c4 0704 	strd	r0, r7, [r4, #16]
 80038ca:	b15b      	cbz	r3, 80038e4 <__smakebuf_r+0x70>
 80038cc:	f9b4 100e 	ldrsh.w	r1, [r4, #14]
 80038d0:	4630      	mov	r0, r6
 80038d2:	f000 f81d 	bl	8003910 <_isatty_r>
 80038d6:	b128      	cbz	r0, 80038e4 <__smakebuf_r+0x70>
 80038d8:	89a3      	ldrh	r3, [r4, #12]
 80038da:	f023 0303 	bic.w	r3, r3, #3
 80038de:	f043 0301 	orr.w	r3, r3, #1
 80038e2:	81a3      	strh	r3, [r4, #12]
 80038e4:	89a3      	ldrh	r3, [r4, #12]
 80038e6:	431d      	orrs	r5, r3
 80038e8:	81a5      	strh	r5, [r4, #12]
 80038ea:	e7cf      	b.n	800388c <__smakebuf_r+0x18>

080038ec <_fstat_r>:
 80038ec:	b538      	push	{r3, r4, r5, lr}
 80038ee:	4d07      	ldr	r5, [pc, #28]	@ (800390c <_fstat_r+0x20>)
 80038f0:	2300      	movs	r3, #0
 80038f2:	4604      	mov	r4, r0
 80038f4:	4608      	mov	r0, r1
 80038f6:	4611      	mov	r1, r2
 80038f8:	602b      	str	r3, [r5, #0]
 80038fa:	f7fd fb5b 	bl	8000fb4 <_fstat>
 80038fe:	1c43      	adds	r3, r0, #1
 8003900:	d102      	bne.n	8003908 <_fstat_r+0x1c>
 8003902:	682b      	ldr	r3, [r5, #0]
 8003904:	b103      	cbz	r3, 8003908 <_fstat_r+0x1c>
 8003906:	6023      	str	r3, [r4, #0]
 8003908:	bd38      	pop	{r3, r4, r5, pc}
 800390a:	bf00      	nop
 800390c:	200003c4 	.word	0x200003c4

08003910 <_isatty_r>:
 8003910:	b538      	push	{r3, r4, r5, lr}
 8003912:	4d06      	ldr	r5, [pc, #24]	@ (800392c <_isatty_r+0x1c>)
 8003914:	2300      	movs	r3, #0
 8003916:	4604      	mov	r4, r0
 8003918:	4608      	mov	r0, r1
 800391a:	602b      	str	r3, [r5, #0]
 800391c:	f7fd fb59 	bl	8000fd2 <_isatty>
 8003920:	1c43      	adds	r3, r0, #1
 8003922:	d102      	bne.n	800392a <_isatty_r+0x1a>
 8003924:	682b      	ldr	r3, [r5, #0]
 8003926:	b103      	cbz	r3, 800392a <_isatty_r+0x1a>
 8003928:	6023      	str	r3, [r4, #0]
 800392a:	bd38      	pop	{r3, r4, r5, pc}
 800392c:	200003c4 	.word	0x200003c4

08003930 <_raise_r>:
 8003930:	291f      	cmp	r1, #31
 8003932:	b538      	push	{r3, r4, r5, lr}
 8003934:	4605      	mov	r5, r0
 8003936:	460c      	mov	r4, r1
 8003938:	d904      	bls.n	8003944 <_raise_r+0x14>
 800393a:	2316      	movs	r3, #22
 800393c:	6003      	str	r3, [r0, #0]
 800393e:	f04f 30ff 	mov.w	r0, #4294967295	@ 0xffffffff
 8003942:	bd38      	pop	{r3, r4, r5, pc}
 8003944:	6bc2      	ldr	r2, [r0, #60]	@ 0x3c
 8003946:	b112      	cbz	r2, 800394e <_raise_r+0x1e>
 8003948:	f852 3021 	ldr.w	r3, [r2, r1, lsl #2]
 800394c:	b94b      	cbnz	r3, 8003962 <_raise_r+0x32>
 800394e:	4628      	mov	r0, r5
 8003950:	f000 f830 	bl	80039b4 <_getpid_r>
 8003954:	4622      	mov	r2, r4
 8003956:	4601      	mov	r1, r0
 8003958:	4628      	mov	r0, r5
 800395a:	e8bd 4038 	ldmia.w	sp!, {r3, r4, r5, lr}
 800395e:	f000 b817 	b.w	8003990 <_kill_r>
 8003962:	2b01      	cmp	r3, #1
 8003964:	d00a      	beq.n	800397c <_raise_r+0x4c>
 8003966:	1c59      	adds	r1, r3, #1
 8003968:	d103      	bne.n	8003972 <_raise_r+0x42>
 800396a:	2316      	movs	r3, #22
 800396c:	6003      	str	r3, [r0, #0]
 800396e:	2001      	movs	r0, #1
 8003970:	e7e7      	b.n	8003942 <_raise_r+0x12>
 8003972:	2100      	movs	r1, #0
 8003974:	f842 1024 	str.w	r1, [r2, r4, lsl #2]
 8003978:	4620      	mov	r0, r4
 800397a:	4798      	blx	r3
 800397c:	2000      	movs	r0, #0
 800397e:	e7e0      	b.n	8003942 <_raise_r+0x12>

08003980 <raise>:
 8003980:	4b02      	ldr	r3, [pc, #8]	@ (800398c <raise+0xc>)
 8003982:	4601      	mov	r1, r0
 8003984:	6818      	ldr	r0, [r3, #0]
 8003986:	f7ff bfd3 	b.w	8003930 <_raise_r>
 800398a:	bf00      	nop
 800398c:	20000034 	.word	0x20000034

08003990 <_kill_r>:
 8003990:	b538      	push	{r3, r4, r5, lr}
 8003992:	4d07      	ldr	r5, [pc, #28]	@ (80039b0 <_kill_r+0x20>)
 8003994:	2300      	movs	r3, #0
 8003996:	4604      	mov	r4, r0
 8003998:	4608      	mov	r0, r1
 800399a:	4611      	mov	r1, r2
 800399c:	602b      	str	r3, [r5, #0]
 800399e:	f7fd faaa 	bl	8000ef6 <_kill>
 80039a2:	1c43      	adds	r3, r0, #1
 80039a4:	d102      	bne.n	80039ac <_kill_r+0x1c>
 80039a6:	682b      	ldr	r3, [r5, #0]
 80039a8:	b103      	cbz	r3, 80039ac <_kill_r+0x1c>
 80039aa:	6023      	str	r3, [r4, #0]
 80039ac:	bd38      	pop	{r3, r4, r5, pc}
 80039ae:	bf00      	nop
 80039b0:	200003c4 	.word	0x200003c4

080039b4 <_getpid_r>:
 80039b4:	f7fd ba98 	b.w	8000ee8 <_getpid>

080039b8 <_init>:
 80039b8:	b5f8      	push	{r3, r4, r5, r6, r7, lr}
 80039ba:	bf00      	nop
 80039bc:	bcf8      	pop	{r3, r4, r5, r6, r7}
 80039be:	bc08      	pop	{r3}
 80039c0:	469e      	mov	lr, r3
 80039c2:	4770      	bx	lr

080039c4 <_fini>:
 80039c4:	b5f8      	push	{r3, r4, r5, r6, r7, lr}
 80039c6:	bf00      	nop
 80039c8:	bcf8      	pop	{r3, r4, r5, r6, r7}
 80039ca:	bc08      	pop	{r3}
 80039cc:	469e      	mov	lr, r3
 80039ce:	4770      	bx	lr
